 wqpro380

 Timestamp is 4756d027 (Wed Dec 05 11:21:59 2007)

 Preferred load address is 00400000

 Start         Length     Name                   Class
 0001:00000000 0006993bH .text                   CODE
 0002:00000000 00000e97H .rdata                  DATA
 0002:00000e97 00000000H .edata                  DATA
 0003:00000000 00000004H .CRT$XCA                DATA
 0003:00000004 00000004H .CRT$XCZ                DATA
 0003:00000008 00000004H .CRT$XIA                DATA
 0003:0000000c 00000008H .CRT$XIC                DATA
 0003:00000014 00000004H .CRT$XIZ                DATA
 0003:00000018 00000004H .CRT$XPA                DATA
 0003:0000001c 00000008H .CRT$XPX                DATA
 0003:00000024 00000004H .CRT$XPZ                DATA
 0003:00000028 00000004H .CRT$XTA                DATA
 0003:0000002c 00000004H .CRT$XTZ                DATA
 0003:00000030 00015f94H .data                   DATA
 0003:00015fc8 000e1118H .bss                    DATA
 0004:00000000 00000078H .idata$2                DATA
 0004:00000078 00000014H .idata$3                DATA
 0004:0000008c 00000314H .idata$4                DATA
 0004:000003a0 00000314H .idata$5                DATA
 0004:000006b4 00000cceH .idata$6                DATA
 0005:00000000 00000340H .rsrc$01                DATA
 0005:00000340 00004f40H .rsrc$02                DATA

  Address         Publics by Value              Rva+Base     Lib:Object

 0001:00000000       _CDAudio_Play              00401000 f   cd_win.obj
 0001:00000290       _CDAudio_Stop              00401290 f   cd_win.obj
 0001:000002e0       _CDAudio_Pause             004012e0 f   cd_win.obj
 0001:00000340       _CDAudio_Resume            00401340 f   cd_win.obj
 0001:000003c0       _CDAudio_MessageHandler    004013c0 f   cd_win.obj
 0001:00000470       _CDAudio_Update            00401470 f   cd_win.obj
 0001:000004f0       _CDAudio_Init              004014f0 f   cd_win.obj
 0001:00000950       _CDAudio_Shutdown          00401950 f   cd_win.obj
 0001:00000990       _Chase_Init                00401990 f   chase.obj
 0001:000009d0       _TraceLine                 004019d0 f   chase.obj
 0001:00000a30       _Chase_Update              00401a30 f   chase.obj
 0001:00000bd0       _CL_StopPlayback           00401bd0 f   cl_demo.obj
 0001:00000c20       _CL_FixMsg                 00401c20 f   cl_demo.obj
 0001:00000ce0       _CL_WriteDemoMessage       00401ce0 f   cl_demo.obj
 0001:00000d80       _CL_GetMessage             00401d80 f   cl_demo.obj
 0001:00001030       _CL_Stop_f                 00402030 f   cl_demo.obj
 0001:000010a0       _CL_Record_f               004020a0 f   cl_demo.obj
 0001:000013d0       _CL_PlayDemo_f             004023d0 f   cl_demo.obj
 0001:00001520       _CL_FinishTimeDemo         00402520 f   cl_demo.obj
 0001:00001590       _CL_TimeDemo_f             00402590 f   cl_demo.obj
 0001:000015e0       _KeyDown                   004025e0 f   cl_input.obj
 0001:00001680       _KeyUp                     00402680 f   cl_input.obj
 0001:00001730       _IN_KLookDown              00402730 f   cl_input.obj
 0001:00001740       _IN_KLookUp                00402740 f   cl_input.obj
 0001:00001750       _IN_MLookDown              00402750 f   cl_input.obj
 0001:00001760       _IN_MLookUp                00402760 f   cl_input.obj
 0001:000017b0       _IN_UpDown                 004027b0 f   cl_input.obj
 0001:000017c0       _IN_UpUp                   004027c0 f   cl_input.obj
 0001:000017d0       _IN_DownDown               004027d0 f   cl_input.obj
 0001:000017e0       _IN_DownUp                 004027e0 f   cl_input.obj
 0001:000017f0       _IN_LeftDown               004027f0 f   cl_input.obj
 0001:00001800       _IN_LeftUp                 00402800 f   cl_input.obj
 0001:00001810       _IN_RightDown              00402810 f   cl_input.obj
 0001:00001820       _IN_RightUp                00402820 f   cl_input.obj
 0001:00001830       _IN_ForwardDown            00402830 f   cl_input.obj
 0001:00001840       _IN_ForwardUp              00402840 f   cl_input.obj
 0001:00001850       _IN_BackDown               00402850 f   cl_input.obj
 0001:00001860       _IN_BackUp                 00402860 f   cl_input.obj
 0001:00001870       _IN_LookupDown             00402870 f   cl_input.obj
 0001:00001880       _IN_LookupUp               00402880 f   cl_input.obj
 0001:00001890       _IN_LookdownDown           00402890 f   cl_input.obj
 0001:000018a0       _IN_LookdownUp             004028a0 f   cl_input.obj
 0001:000018b0       _IN_MoveleftDown           004028b0 f   cl_input.obj
 0001:000018c0       _IN_MoveleftUp             004028c0 f   cl_input.obj
 0001:000018d0       _IN_MoverightDown          004028d0 f   cl_input.obj
 0001:000018e0       _IN_MoverightUp            004028e0 f   cl_input.obj
 0001:000018f0       _IN_SpeedDown              004028f0 f   cl_input.obj
 0001:00001900       _IN_SpeedUp                00402900 f   cl_input.obj
 0001:00001910       _IN_StrafeDown             00402910 f   cl_input.obj
 0001:00001920       _IN_StrafeUp               00402920 f   cl_input.obj
 0001:00001930       _IN_AttackDown             00402930 f   cl_input.obj
 0001:00001940       _IN_AttackUp               00402940 f   cl_input.obj
 0001:00001950       _IN_UseDown                00402950 f   cl_input.obj
 0001:00001960       _IN_UseUp                  00402960 f   cl_input.obj
 0001:00001970       _IN_JumpDown               00402970 f   cl_input.obj
 0001:00001980       _IN_JumpUp                 00402980 f   cl_input.obj
 0001:00001990       _IN_Impulse                00402990 f   cl_input.obj
 0001:000019b0       _IN_BestWeapon             004029b0 f   cl_input.obj
 0001:00001a20       _CL_KeyState               00402a20 f   cl_input.obj
 0001:00001ab0       _CL_AdjustAngles           00402ab0 f   cl_input.obj
 0001:00001cb0       _CL_BaseMove               00402cb0 f   cl_input.obj
 0001:00001de0       _CL_SendLagMove            00402de0 f   cl_input.obj
 0001:00001eb0       _CL_SendMove               00402eb0 f   cl_input.obj
 0001:00002040       _CL_InitInput              00403040 f   cl_input.obj
 0001:00002280       _CL_ClearState             00403280 f   cl_main.obj
 0001:00002330       _CL_Disconnect             00403330 f   cl_main.obj
 0001:000023f0       _CL_Disconnect_f           004033f0 f   cl_main.obj
 0001:00002410       _CL_EstablishConnection    00403410 f   cl_main.obj
 0001:000024f0       _CL_SignonReply            004034f0 f   cl_main.obj
 0001:000027c0       _CL_NextDemo               004037c0 f   cl_main.obj
 0001:00002860       _CL_PrintEntities_f        00403860 f   cl_main.obj
 0001:00002900       _CL_AllocDlight            00403900 f   cl_main.obj
 0001:00002980       _CL_DecayLights            00403980 f   cl_main.obj
 0001:000029e0       _CL_LerpPoint              004039e0 f   cl_main.obj
 0001:00002b30       _CL_RelinkEntities         00403b30 f   cl_main.obj
 0001:00002fd0       _CL_ReadFromServer         00403fd0 f   cl_main.obj
 0001:00003070       _CL_SendCmd                00404070 f   cl_main.obj
 0001:00003120       _CL_SaveFOV_f              00404120 f   cl_main.obj
 0001:00003130       _CL_RestoreFOV_f           00404130 f   cl_main.obj
 0001:00003170       _CL_SaveSensitivity_f      00404170 f   cl_main.obj
 0001:00003180       _CL_RestoreSensitivity_f   00404180 f   cl_main.obj
 0001:000031c0       _CL_Viewpos_f              004041c0 f   cl_main.obj
 0001:00003230       _CL_Init                   00404230 f   cl_main.obj
 0001:00003430       _CL_EntityNum              00404430 f   cl_parse.obj
 0001:00003490       _CL_ParseStartSoundPacket  00404490 f   cl_parse.obj
 0001:00003560       _CL_KeepaliveMessage       00404560 f   cl_parse.obj
 0001:000036a0       _CL_ParseServerInfo        004046a0 f   cl_parse.obj
 0001:00003950       _CL_ParseUpdate            00404950 f   cl_parse.obj
 0001:00003c10       _CL_ParseBaseline          00404c10 f   cl_parse.obj
 0001:00003c60       _CL_ParseClientdata        00404c60 f   cl_parse.obj
 0001:00003ec0       _CL_NewTranslation         00404ec0 f   cl_parse.obj
 0001:00003ff0       _CL_ParseStatic            00404ff0 f   cl_parse.obj
 0001:000040a0       _CL_ParseStaticSound       004050a0 f   cl_parse.obj
 0001:00004100       _MSG_ReadBytePQ            00405100 f   cl_parse.obj
 0001:00004120       _MSG_ReadShortPQ           00405120 f   cl_parse.obj
 0001:00004140       _CL_ParseProQuakeMessage   00405140 f   cl_parse.obj
 0001:00004310       _VersionString             00405310 f   cl_parse.obj
 0001:00004340       _Q_Version                 00405340 f   cl_parse.obj
 0001:000043a0       _CL_ParseProQuakeString    004053a0 f   cl_parse.obj
 0001:000049e0       _CL_ParseServerMessage     004059e0 f   cl_parse.obj
 0001:00005060       _CL_InitTEnts              00406060 f   cl_tent.obj
 0001:000050d0       _CL_ParseBeam              004060d0 f   cl_tent.obj
 0001:000051e0       _CL_ParseTEnt              004061e0 f   cl_tent.obj
 0001:000056a0       _CL_NewTempEntity          004066a0 f   cl_tent.obj
 0001:00005710       _CL_UpdateTEnts            00406710 f   cl_tent.obj
 0001:00005940       _Cmd_Wait_f                00406940 f   cmd.obj
 0001:00005950       _Cbuf_Init                 00406950 f   cmd.obj
 0001:00005970       _Cbuf_AddText              00406970 f   cmd.obj
 0001:000059c0       _Cbuf_InsertText           004069c0 f   cmd.obj
 0001:00005a20       _Cbuf_Execute              00406a20 f   cmd.obj
 0001:00005b10       _Cmd_StuffCmds_f           00406b10 f   cmd.obj
 0001:00005d60       _Cmd_Exec_f                00406d60 f   cmd.obj
 0001:00005de0       _Cmd_Echo_f                00406de0 f   cmd.obj
 0001:00005e20       _CopyString                00406e20 f   cmd.obj
 0001:00005e70       _Cmd_Alias_f               00406e70 f   cmd.obj
 0001:00006070       _Cmd_List_f                00407070 f   cmd.obj
 0001:00006120       _Cmd_Argc                  00407120 f   cmd.obj
 0001:00006130       _Cmd_Argv                  00407130 f   cmd.obj
 0001:00006150       _Cmd_Args                  00407150 f   cmd.obj
 0001:00006160       _Cmd_TokenizeString        00407160 f   cmd.obj
 0001:00006230       _Cmd_AddCommand            00407230 f   cmd.obj
 0001:00006370       _Cmd_Exists                00407370 f   cmd.obj
 0001:000063b0       _Cmd_CompleteCommand       004073b0 f   cmd.obj
 0001:00006550       _Cmd_ExecuteString         00407550 f   cmd.obj
 0001:00006600       _Cmd_ForwardToServer       00407600 f   cmd.obj
 0001:00006b40       _Cmd_Init                  00407b40 f   cmd.obj
 0001:00006bc0       _ClearLink                 00407bc0 f   common.obj
 0001:00006bd0       _RemoveLink                00407bd0 f   common.obj
 0001:00006bf0       _InsertLinkBefore          00407bf0 f   common.obj
 0001:00006c10       _Q_memset                  00407c10 f   common.obj
 0001:00006c70       _Q_memcpy                  00407c70 f   common.obj
 0001:00006cc0       _Q_strcpy                  00407cc0 f   common.obj
 0001:00006cf0       _Q_strncpy                 00407cf0 f   common.obj
 0001:00006d30       _Q_strlen                  00407d30 f   common.obj
 0001:00006d50       _Q_strrchr                 00407d50 f   common.obj
 0001:00006d90       _Q_strcat                  00407d90 f   common.obj
 0001:00006db0       _Q_strcmp                  00407db0 f   common.obj
 0001:00006de0       _Q_strncmp                 00407de0 f   common.obj
 0001:00006e20       _Q_strncasecmp             00407e20 f   common.obj
 0001:00006e80       _Q_strcasecmp              00407e80 f   common.obj
 0001:00006ea0       _Q_atoi                    00407ea0 f   common.obj
 0001:00006f40       _Q_atof                    00407f40 f   common.obj
 0001:00007050       _Q_strncpyz                00408050 f   common.obj
 0001:00007080       _Q_snprintfz               00408080 f   common.obj
 0001:000070b0       _ShortSwap                 004080b0 f   common.obj
 0001:000070d0       _ShortNoSwap               004080d0 f   common.obj
 0001:000070e0       _LongSwap                  004080e0 f   common.obj
 0001:00007120       _LongNoSwap                00408120 f   common.obj
 0001:00007130       _FloatSwap                 00408130 f   common.obj
 0001:00007160       _FloatNoSwap               00408160 f   common.obj
 0001:00007170       _MSG_WriteByte             00408170 f   common.obj
 0001:00007170       _MSG_WriteChar             00408170 f   common.obj
 0001:00007190       _MSG_WriteShort            00408190 f   common.obj
 0001:000071b0       _MSG_WriteLong             004081b0 f   common.obj
 0001:000071e0       _MSG_WriteFloat            004081e0 f   common.obj
 0001:00007210       _MSG_WriteString           00408210 f   common.obj
 0001:00007250       _MSG_WriteCoord            00408250 f   common.obj
 0001:00007270       _MSG_WriteAngle            00408270 f   common.obj
 0001:000072b0       _MSG_WritePreciseAngle     004082b0 f   common.obj
 0001:000072f0       _MSG_BeginReading          004082f0 f   common.obj
 0001:00007300       _MSG_ReadChar              00408300 f   common.obj
 0001:00007340       _MSG_ReadByte              00408340 f   common.obj
 0001:00007380       _MSG_PeekByte              00408380 f   common.obj
 0001:000073b0       _MSG_ReadShort             004083b0 f   common.obj
 0001:00007400       _MSG_ReadLong              00408400 f   common.obj
 0001:00007460       _MSG_ReadFloat             00408460 f   common.obj
 0001:000074b0       _MSG_ReadString            004084b0 f   common.obj
 0001:000074f0       _MSG_ReadCoord             004084f0 f   common.obj
 0001:00007510       _MSG_ReadAngle             00408510 f   common.obj
 0001:00007530       _MSG_ReadPreciseAngle      00408530 f   common.obj
 0001:00007550       _SZ_Alloc                  00408550 f   common.obj
 0001:00007590       _SZ_Clear                  00408590 f   common.obj
 0001:000075a0       _SZ_GetSpace               004085a0 f   common.obj
 0001:00007610       _SZ_Write                  00408610 f   common.obj
 0001:00007640       _SZ_Print                  00408640 f   common.obj
 0001:000076a0       _COM_StripExtension        004086a0 f   common.obj
 0001:000076d0       _COM_FileExtension         004086d0 f   common.obj
 0001:00007710       _COM_FileBase              00408710 f   common.obj
 0001:00007790       _COM_ForceExtension        00408790 f   common.obj
 0001:00007810       _COM_DefaultExtension      00408810 f   common.obj
 0001:00007880       _COM_Parse                 00408880 f   common.obj
 0001:00007980       _COM_CheckParm             00408980 f   common.obj
 0001:000079d0       _COM_CheckRegistered       004089d0 f   common.obj
 0001:00007ac0       _COM_InitArgv              00408ac0 f   common.obj
 0001:00007be0       _COM_Init                  00408be0 f   common.obj
 0001:00007cb0       _va                        00408cb0 f   common.obj
 0001:00007cd0       _COM_Path_f                00408cd0 f   common.obj
 0001:00007d30       _COM_WriteFile             00408d30 f   common.obj
 0001:00007db0       _COM_CreatePath            00408db0 f   common.obj
 0001:00007df0       _COM_CopyFile              00408df0 f   common.obj
 0001:00007e80       _COM_FindFile              00408e80 f   common.obj
 0001:000081f0       _COM_OpenFile              004091f0 f   common.obj
 0001:00008210       _COM_FOpenFile             00409210 f   common.obj
 0001:00008230       _COM_CloseFile             00409230 f   common.obj
 0001:00008270       _COM_LoadFile              00409270 f   common.obj
 0001:00008380       _COM_LoadHunkFile          00409380 f   common.obj
 0001:000083a0       _COM_LoadCacheFile         004093a0 f   common.obj
 0001:000083c0       _COM_LoadStackFile         004093c0 f   common.obj
 0001:000083f0       _COM_LoadPackFile          004093f0 f   common.obj
 0001:000085f0       _COM_AddGameDirectory      004095f0 f   common.obj
 0001:000086d0       _COM_InitFilesystem        004096d0 f   common.obj
 0001:00008a00       _COM_ModelCRC              00409a00 f   common.obj
 0001:00008a90       _InitConProc               00409a90 f   conproc.obj
 0001:00008b60       _DeinitConProc             00409b60 f   conproc.obj
 0001:00008b80       _RequestProc               00409b80 f   conproc.obj
 0001:00008c60       _GetMappedBuffer           00409c60 f   conproc.obj
 0001:00008c80       _ReleaseMappedBuffer       00409c80 f   conproc.obj
 0001:00008c90       _GetScreenBufferLines      00409c90 f   conproc.obj
 0001:00008cc0       _SetScreenBufferLines      00409cc0 f   conproc.obj
 0001:00008ce0       _ReadText                  00409ce0 f   conproc.obj
 0001:00008d30       _WriteText                 00409d30 f   conproc.obj
 0001:00008e10       _CharToCode                00409e10 f   conproc.obj
 0001:00008eb0       _SetConsoleCXCY            00409eb0 f   conproc.obj
 0001:00009030       _Con_ToggleConsole_f       0040a030 f   console.obj
 0001:000090b0       _Con_Clear_f               0040a0b0 f   console.obj
 0001:000090d0       _Con_Showtime_f            0040a0d0 f   console.obj
 0001:00009110       _Con_Dump_f                0040a110 f   console.obj
 0001:00009290       _Con_ClearNotify           0040a290 f   console.obj
 0001:000092b0       _Con_MessageMode_f         0040a2b0 f   console.obj
 0001:000092d0       _Con_MessageMode2_f        0040a2d0 f   console.obj
 0001:000092f0       _Con_CheckResize           0040a2f0 f   console.obj
 0001:00009420       _Con_Init                  0040a420 f   console.obj
 0001:000096f0       _Con_Linefeed              0040a6f0 f   console.obj
 0001:00009740       _Con_Print                 0040a740 f   console.obj
 0001:00009c80       _Con_DebugLog              0040ac80 f   console.obj
 0001:00009cf0       _Con_Printf                0040acf0 f   console.obj
 0001:00009da0       _Con_DPrintf               0040ada0 f   console.obj
 0001:00009df0       _Con_SafePrintf            0040adf0 f   console.obj
 0001:00009e40       _Con_DrawInput             0040ae40 f   console.obj
 0001:00009f10       _Con_DrawNotify            0040af10 f   console.obj
 0001:0000a110       _Con_DrawConsole           0040b110 f   console.obj
 0001:0000a1e0       _CRC_Init                  0040b1e0 f   crc.obj
 0001:0000a1f0       _CRC_ProcessByte           0040b1f0 f   crc.obj
 0001:0000a230       _Cvar_List_f               0040b230 f   cvar.obj
 0001:0000a2e0       _Cvar_Toggle_f             0040b2e0 f   cvar.obj
 0001:0000a350       _Cvar_Reset_f              0040b350 f   cvar.obj
 0001:0000a380       _Cvar_ResetAll_f           0040b380 f   cvar.obj
 0001:0000a3a0       _Cvar_Init                 0040b3a0 f   cvar.obj
 0001:0000a3e0       _Cvar_FindVar              0040b3e0 f   cvar.obj
 0001:0000a420       _Cvar_VariableValue        0040b420 f   cvar.obj
 0001:0000a450       _Cvar_VariableString       0040b450 f   cvar.obj
 0001:0000a470       _Cvar_Reset                0040b470 f   cvar.obj
 0001:0000a4b0       _Cvar_Set                  0040b4b0 f   cvar.obj
 0001:0000a690       _Cvar_SetValue             0040b690 f   cvar.obj
 0001:0000a6d0       _Cvar_RegisterVariable     0040b6d0 f   cvar.obj
 0001:0000a820       _Cvar_Command              0040b820 f   cvar.obj
 0001:0000a880       _Cvar_WriteVariables       0040b880 f   cvar.obj
 0001:0000a8d0       _D_MipLevelForScale        0040b8d0 f   d_edge.obj
 0001:0000a930       _D_DrawSolidSurface        0040b930 f   d_edge.obj
 0001:0000aa10       _D_CalcGradients           0040ba10 f   d_edge.obj
 0001:0000abe0       _D_DrawSurfaces            0040bbe0 f   d_edge.obj
 0001:0000af60       _D_Init                    0040bf60 f   d_init.obj
 0001:0000afc0       _D_EnableBackBufferAccess  0040bfc0 f   d_init.obj
 0001:0000afd0       _D_DisableBackBufferAccess 0040bfd0 f   d_init.obj
 0001:0000afe0       _D_SetupFrame              0040bfe0 f   d_init.obj
 0001:0000b0a0       _D_Patch                   0040c0a0 f   d_modech.obj
 0001:0000b0d0       _D_ViewChanged             0040c0d0 f   d_modech.obj
 0001:0000b230       _D_PolysetUpdateTables     0040c230 f   d_polyse.obj
 0001:0000b270       _D_PolysetSetUpForLineScan 0040c270 f   d_polyse.obj
 0001:0000b310       _D_RasterizeAliasPolySmooth 0040c310 f   d_polyse.obj
 0001:0000b950       _D_PolysetSetEdgeTable     0040c950 f   d_polyse.obj
 0001:0000b9f0       _D_WarpScreen              0040c9f0 f   d_scan.obj
 0001:0000bbf0       _Turbulent8                0040cbf0 f   d_scan.obj
 0001:0000bf10       _D_Sky_uv_To_st            0040cf10 f   d_sky.obj
 0001:0000c040       _D_DrawSkyScans8           0040d040 f   d_sky.obj
 0001:0000c190       _D_SpriteScanLeftEdge      0040d190 f   d_sprite.obj
 0001:0000c2a0       _D_SpriteScanRightEdge     0040d2a0 f   d_sprite.obj
 0001:0000c470       _D_SpriteCalculateGradients 0040d470 f   d_sprite.obj
 0001:0000c650       _D_DrawSprite              0040d650 f   d_sprite.obj
 0001:0000c740       _D_SurfaceCacheForRes      0040d740 f   d_surf.obj
 0001:0000c7a0       _D_CheckCacheGuard         0040d7a0 f   d_surf.obj
 0001:0000c7d0       _D_ClearCacheGuard         0040d7d0 f   d_surf.obj
 0001:0000c7f0       _D_InitCaches              0040d7f0 f   d_surf.obj
 0001:0000c860       _D_FlushCaches             0040d860 f   d_surf.obj
 0001:0000c8c0       _D_SCAlloc                 0040d8c0 f   d_surf.obj
 0001:0000ca80       _D_CacheSurface            0040da80 f   d_surf.obj
 0001:0000cc20       _Draw_PicFromWad           0040dc20 f   draw.obj
 0001:0000cc40       _Draw_CachePic             0040dc40 f   draw.obj
 0001:0000cd20       _Draw_Init                 0040dd20 f   draw.obj
 0001:0000cd80       _Draw_Character            0040dd80 f   draw.obj
 0001:0000cf50       _Draw_String               0040df50 f   draw.obj
 0001:0000cf90       _Draw_Pic                  0040df90 f   draw.obj
 0001:0000d0b0       _Draw_TransPic             0040e0b0 f   draw.obj
 0001:0000d2a0       _Draw_TransPicTranslate    0040e2a0 f   draw.obj
 0001:0000d530       _Draw_CharToConback        0040e530 f   draw.obj
 0001:0000d590       _Draw_ConsoleBackground    0040e590 f   draw.obj
 0001:0000d840       _R_DrawRect8               0040e840 f   draw.obj
 0001:0000d900       _R_DrawRect16              0040e900 f   draw.obj
 0001:0000d9e0       _Draw_TileClear            0040e9e0 f   draw.obj
 0001:0000db00       _Draw_Fill                 0040eb00 f   draw.obj
 0001:0000dbe0       _Draw_FadeScreen           0040ebe0 f   draw.obj
 0001:0000dc60       _Draw_BeginDisc            0040ec60 f   draw.obj
 0001:0000dc90       _Draw_EndDisc              0040ec90 f   draw.obj
 0001:0000dcb0       _Host_EndGame              0040ecb0 f   host.obj
 0001:0000dd40       _Host_Error                0040ed40 f   host.obj
 0001:0000ddf0       _Host_FindMaxClients       0040edf0 f   host.obj
 0001:0000df30       _Host_InitDeQuake          0040ef30 f   host.obj
 0001:0000e010       _Host_InitLocal            0040f010 f   host.obj
 0001:0000e150       _Host_WriteConfig          0040f150 f   host.obj
 0001:0000e250       _Host_WriteConfiguration   0040f250 f   host.obj
 0001:0000e280       _Host_WriteConfig_f        0040f280 f   host.obj
 0001:0000e2f0       _SV_ClientPrintf           0040f2f0 f   host.obj
 0001:0000e340       _SV_BroadcastPrintf        0040f340 f   host.obj
 0001:0000e3d0       _Host_ClientCommands       0040f3d0 f   host.obj
 0001:0000e420       _SV_DropClient             0040f420 f   host.obj
 0001:0000e630       _Host_ShutdownServer       0040f630 f   host.obj
 0001:0000e7d0       _Host_ClearMemory          0040f7d0 f   host.obj
 0001:0000e820       _Host_FilterTime           0040f820 f   host.obj
 0001:0000e910       _Host_GetConsoleCommands   0040f910 f   host.obj
 0001:0000e930       _Host_ServerFrame          0040f930 f   host.obj
 0001:0000e9e0       __Host_Frame               0040f9e0 f   host.obj
 0001:0000ebb0       _Host_Frame                0040fbb0 f   host.obj
 0001:0000ec80       _Host_InitVCR              0040fc80 f   host.obj
 0001:0000eeb0       _Host_Init                 0040feb0 f   host.obj
 0001:0000f0c0       _Host_Shutdown             004100c0 f   host.obj
 0001:0000f120       _Host_Quit_f               00410120 f   host_cmd.obj
 0001:0000f160       _Host_Status_f             00410160 f   host_cmd.obj
 0001:0000f370       _Host_Cheatfree_f          00410370 f   host_cmd.obj
 0001:0000f3b0       _Host_God_f                004103b0 f   host_cmd.obj
 0001:0000f450       _Host_Notarget_f           00410450 f   host_cmd.obj
 0001:0000f4f0       _Host_Noclip_f             004104f0 f   host_cmd.obj
 0001:0000f580       _Host_Fly_f                00410580 f   host_cmd.obj
 0001:0000f5f0       _Host_Ping_f               004105f0 f   host_cmd.obj
 0001:0000f6d0       _Host_Map_f                004106d0 f   host_cmd.obj
 0001:0000f8f0       _Host_Changelevel_f        004108f0 f   host_cmd.obj
 0001:0000f980       _Host_Restart_f            00410980 f   host_cmd.obj
 0001:0000f9e0       _Host_Reconnect_f          004109e0 f   host_cmd.obj
 0001:0000f9f0       _Host_Connect_f            004109f0 f   host_cmd.obj
 0001:0000fa80       _Host_SavegameComment      00410a80 f   host_cmd.obj
 0001:0000fb20       _Host_Savegame_f           00410b20 f   host_cmd.obj
 0001:0000fdb0       _Host_Loadgame_f           00410db0 f   host_cmd.obj
 0001:00010160       _Host_Name_f               00411160 f   host_cmd.obj
 0001:00010380       _Host_Version_f            00411380 f   host_cmd.obj
 0001:000103b0       _Host_Say                  004113b0 f   host_cmd.obj
 0001:000106d0       _Host_Say_f                004116d0 f   host_cmd.obj
 0001:000106e0       _Host_Say_Team_f           004116e0 f   host_cmd.obj
 0001:000106f0       _Host_Tell_f               004116f0 f   host_cmd.obj
 0001:00010890       _Host_Color_f              00411890 f   host_cmd.obj
 0001:00010a10       _Host_Kill_f               00411a10 f   host_cmd.obj
 0001:00010a80       _Host_Pause_f              00411a80 f   host_cmd.obj
 0001:00010b30       _Host_PreSpawn_f           00411b30 f   host_cmd.obj
 0001:00010bc0       _Host_Spawn_f              00411bc0 f   host_cmd.obj
 0001:000111f0       _Host_Begin_f              004121f0 f   host_cmd.obj
 0001:00011230       _Host_Kick_f               00412230 f   host_cmd.obj
 0001:00011460       _Host_Give_f               00412460 f   host_cmd.obj
 0001:00011a30       _FindViewthing             00412a30 f   host_cmd.obj
 0001:00011ab0       _Host_Viewmodel_f          00412ab0 f   host_cmd.obj
 0001:00011b10       _Host_Viewframe_f          00412b10 f   host_cmd.obj
 0001:00011b60       _PrintFrameName            00412b60 f   host_cmd.obj
 0001:00011b90       _Host_Viewnext_f           00412b90 f   host_cmd.obj
 0001:00011c00       _Host_Viewprev_f           00412c00 f   host_cmd.obj
 0001:00011c60       _Host_Startdemos_f         00412c60 f   host_cmd.obj
 0001:00011d20       _Host_Demos_f              00412d20 f   host_cmd.obj
 0001:00011d50       _Host_Stopdemo_f           00412d50 f   host_cmd.obj
 0001:00011d70       _unfun_match               00412d70 f   host_cmd.obj
 0001:00011dd0       _Host_Identify_f           00412dd0 f   host_cmd.obj
 0001:00012090       _Host_Say_Rand_f           00413090 f   host_cmd.obj
 0001:000121d0       _Host_InitCommands         004131d0 f   host_cmd.obj
 0001:00012540       _OnChange_m_directinput    00413540 f   in_win.obj
 0001:00012570       _IN_SMouseProc@4           00413570 f   in_win.obj
 0001:00012840       _IN_SMouseRead             00413840 f   in_win.obj
 0001:00012b40       _IN_SMouseInit             00413b40 f   in_win.obj
 0001:00012be0       _Force_CenterView_f        00413be0 f   in_win.obj
 0001:00012bf0       _IN_UpdateClipCursor       00413bf0 f   in_win.obj
 0001:00012c30       _IN_ShowMouse              00413c30 f   in_win.obj
 0001:00012c50       _IN_HideMouse              00413c50 f   in_win.obj
 0001:00012c70       _IN_ActivateMouse          00413c70 f   in_win.obj
 0001:00012d20       _IN_SetQuakeMouseState     00413d20 f   in_win.obj
 0001:00012d30       _IN_DeactivateMouse        00413d30 f   in_win.obj
 0001:00012db0       _IN_RestoreOriginalMouseState 00413db0 f   in_win.obj
 0001:00012de0       _IN_InitDInput             00413de0 f   in_win.obj
 0001:00012f40       _IN_StartupMouse           00413f40 f   in_win.obj
 0001:000130b0       _IN_SetGlobals             004140b0 f   in_win.obj
 0001:000130d0       _IN_Init                   004140d0 f   in_win.obj
 0001:00013170       _IN_Shutdown               00414170 f   in_win.obj
 0001:000131b0       _IN_MouseEvent             004141b0 f   in_win.obj
 0001:00013240       _IN_MouseMove              00414240 f   in_win.obj
 0001:00013860       _IN_Move                   00414860 f   in_win.obj
 0001:00013890       _IN_Accumulate             00414890 f   in_win.obj
 0001:000138f0       _IN_StartupJoystick        004148f0 f   in_win.obj
 0001:00013b20       _RawValuePointer           00414b20 f   in_win.obj
 0001:00013b80       _Joy_AdvancedUpdate_f      00414b80 f   in_win.obj
 0001:00013d00       _IN_Commands               00414d00 f   in_win.obj
 0001:00013e60       _IN_ReadJoystick           00414e60 f   in_win.obj
 0001:00013ec0       _IN_JoyMove                00414ec0 f   in_win.obj
 0001:00014340       _IN_MapKey                 00415340 f   in_win.obj
 0001:000144b0       _IPLog_Init                004154b0 f   iplog.obj
 0001:000145c0       _IPLog_Import              004155c0 f   iplog.obj
 0001:000146a0       _IPLog_WriteLog            004156a0 f   iplog.obj
 0001:000147f0       _IPLog_Add                 004157f0 f   iplog.obj
 0001:000149e0       _IPLog_Delete              004159e0 f   iplog.obj
 0001:00014a30       _IPLog_Merge               00415a30 f   iplog.obj
 0001:00014a90       _IPLog_Identify            00415a90 f   iplog.obj
 0001:00014af0       _IPLog_DumpTree            00415af0 f   iplog.obj
 0001:00014bb0       _IPLog_Dump                00415bb0 f   iplog.obj
 0001:00014c20       _Key_Console               00415c20 f   keys.obj
 0001:000153a0       _Key_Message               004163a0 f   keys.obj
 0001:00015530       _Key_StringToKeynum        00416530 f   keys.obj
 0001:00015590       _Key_KeynumToString        00416590 f   keys.obj
 0001:000155f0       _Key_SetBinding            004165f0 f   keys.obj
 0001:00015650       _Key_Unbind_f              00416650 f   keys.obj
 0001:000156b0       _Key_Unbindall_f           004166b0 f   keys.obj
 0001:000156e0       _Key_Bindlist_f            004166e0 f   keys.obj
 0001:00015730       _Key_Bind_f                00416730 f   keys.obj
 0001:00015880       _Key_WriteBindings         00416880 f   keys.obj
 0001:000158e0       _Key_Init                  004168e0 f   keys.obj
 0001:00015b20       _Key_Event                 00416b20 f   keys.obj
 0001:00015e60       _Key_ClearAllStates        00416e60 f   keys.obj
 0001:00015e70       _Key_ClearStates           00416e70 f   keys.obj
 0001:00015e90       _LOC_LoadLocations         00416e90 f   location.obj
 0001:00016090       _LOC_GetLocation           00417090 f   location.obj
 0001:00016140       _anglemod                  00417140 f   mathlib.obj
 0001:00016170       _BOPS_Error                00417170 f   mathlib.obj
 0001:00016180       _AngleVectors              00417180 f   mathlib.obj
 0001:00016250       _VectorMA                  00417250 f   mathlib.obj
 0001:00016280       _CrossProduct              00417280 f   mathlib.obj
 0001:000162c0       _Length                    004172c0 f   mathlib.obj
 0001:000162f0       _VectorLength              004172f0 f   mathlib.obj
 0001:00016320       _VectorNormalize           00417320 f   mathlib.obj
 0001:00016380       _VectorInverse             00417380 f   mathlib.obj
 0001:000163a0       _VectorScale               004173a0 f   mathlib.obj
 0001:000163d0       _R_ConcatRotations         004173d0 f   mathlib.obj
 0001:000164c0       _R_ConcatTransforms        004174c0 f   mathlib.obj
 0001:00016600       _FloorDivMod               00417600 f   mathlib.obj
 0001:000166e0       _GreatestCommonDivisor     004176e0 f   mathlib.obj
 0001:00016710       _Mat_Init                  00417710 f   matrix.obj
 0001:00016950       _Mat_Update                00417950 f   matrix.obj
 0001:00016c00       _M_DrawCharacter           00417c00 f   menu.obj
 0001:00016c30       _M_Print                   00417c30 f   menu.obj
 0001:00016c70       _M_PrintWhite              00417c70 f   menu.obj
 0001:00016cb0       _M_DrawTransPic            00417cb0 f   menu.obj
 0001:00016ce0       _M_DrawPic                 00417ce0 f   menu.obj
 0001:00016d10       _M_BuildTranslationTable   00417d10 f   menu.obj
 0001:00016de0       _M_DrawTransPicTranslate   00417de0 f   menu.obj
 0001:00016e10       _M_DrawTextBox             00417e10 f   menu.obj
 0001:00016f80       _M_ToggleMenu_f            00417f80 f   menu.obj
 0001:00016fc0       _M_Menu_Main_f             00417fc0 f   menu.obj
 0001:00017000       _M_Main_Draw               00418000 f   menu.obj
 0001:00017090       _M_Main_Key                00418090 f   menu.obj
 0001:00017230       _M_Menu_SinglePlayer_f     00418230 f   menu.obj
 0001:00017250       _M_SinglePlayer_Draw       00418250 f   menu.obj
 0001:000172e0       _M_SinglePlayer_Key        004182e0 f   menu.obj
 0001:00017470       _M_ScanSaves               00418470 f   menu.obj
 0001:00017560       _M_Menu_Load_f             00418560 f   menu.obj
 0001:00017580       _M_Menu_Save_f             00418580 f   menu.obj
 0001:000175c0       _M_Load_Draw               004185c0 f   menu.obj
 0001:00017640       _M_Save_Draw               00418640 f   menu.obj
 0001:000176c0       _M_Load_Key                004186c0 f   menu.obj
 0001:00017810       _M_Save_Key                00418810 f   menu.obj
 0001:00017940       _M_Menu_MultiPlayer_f      00418940 f   menu.obj
 0001:00017960       _M_MultiPlayer_Draw        00418960 f   menu.obj
 0001:00017a20       _M_MultiPlayer_Key         00418a20 f   menu.obj
 0001:00017b90       _M_Menu_Setup_f            00418b90 f   menu.obj
 0001:00017c00       _M_Setup_Draw              00418c00 f   menu.obj
 0001:00017df0       _M_Setup_Key               00418df0 f   menu.obj
 0001:00018170       _M_Menu_Net_f              00419170 f   menu.obj
 0001:000181c0       _M_Net_Draw                004191c0 f   menu.obj
 0001:00018390       _M_Net_Key                 00419390 f   menu.obj
 0001:00018530       _M_Menu_Options_f          00419530 f   menu.obj
 0001:00018570       _M_AdjustSliders           00419570 f   menu.obj
 0001:00018a30       _M_DrawSlider              00419a30 f   menu.obj
 0001:00018ad0       _M_DrawCheckbox            00419ad0 f   menu.obj
 0001:00018b10       _M_Options_Draw            00419b10 f   menu.obj
 0001:00018e00       _M_Options_Key             00419e00 f   menu.obj
 0001:00019010       _M_Menu_Keys_f             0041a010 f   menu.obj
 0001:00019030       _M_FindKeysForCommand      0041a030 f   menu.obj
 0001:000190a0       _M_UnbindCommand           0041a0a0 f   menu.obj
 0001:00019100       _M_Keys_Draw               0041a100 f   menu.obj
 0001:00019280       _M_Keys_Key                0041a280 f   menu.obj
 0001:00019490       _M_Menu_Preferences_f      0041a490 f   menu.obj
 0001:000194b0       _M_Pref_AdjustSliders      0041a4b0 f   menu.obj
 0001:000198f0       _M_Pref_Options_Draw       0041a8f0 f   menu.obj
 0001:00019ca0       _M_Pref_Options_Key        0041aca0 f   menu.obj
 0001:00019e20       _M_Menu_Video_f            0041ae20 f   menu.obj
 0001:00019e40       _M_Video_Draw              0041ae40 f   menu.obj
 0001:00019e50       _M_Video_Key               0041ae50 f   menu.obj
 0001:00019e70       _M_Menu_Help_f             0041ae70 f   menu.obj
 0001:00019ea0       _M_Help_Draw               0041aea0 f   menu.obj
 0001:00019fc0       _M_Help_Key                0041afc0 f   menu.obj
 0001:0001a0b0       _M_Menu_Quit_f             0041b0b0 f   menu.obj
 0001:0001a110       _M_Quit_Key                0041b110 f   menu.obj
 0001:0001a1e0       _M_Quit_Draw               0041b1e0 f   menu.obj
 0001:0001a370       _M_Menu_SerialConfig_f     0041b370 f   menu.obj
 0001:0001a450       _M_SerialConfig_Draw       0041b450 f   menu.obj
 0001:0001a710       _M_SerialConfig_Key        0041b710 f   menu.obj
 0001:0001ab80       _M_Menu_ModemConfig_f      0041bb80 f   menu.obj
 0001:0001abc0       _M_ModemConfig_Draw        0041bbc0 f   menu.obj
 0001:0001ae20       _M_ModemConfig_Key         0041be20 f   menu.obj
 0001:0001b110       _M_Menu_LanConfig_f        0041c110 f   menu.obj
 0001:0001b1a0       _M_LanConfig_Draw          0041c1a0 f   menu.obj
 0001:0001b3f0       _M_LanConfig_Key           0041c3f0 f   menu.obj
 0001:0001b6d0       _M_Menu_GameOptions_f      0041c6d0 f   menu.obj
 0001:0001b720       _M_GameOptions_Draw        0041c720 f   menu.obj
 0001:0001bbd0       _M_NetStart_Change         0041cbd0 f   menu.obj
 0001:0001bf50       _M_GameOptions_Key         0041cf50 f   menu.obj
 0001:0001c1c0       _M_Menu_Search_f           0041d1c0 f   menu.obj
 0001:0001c200       _M_Search_Draw             0041d200 f   menu.obj
 0001:0001c2c0       _M_Menu_ServerList_f       0041d2c0 f   menu.obj
 0001:0001c300       _M_ServerList_Draw         0041d300 f   menu.obj
 0001:0001c4c0       _M_ServerList_Key          0041d4c0 f   menu.obj
 0001:0001c640       _M_Init                    0041d640 f   menu.obj
 0001:0001c710       _M_Draw                    0041d710 f   menu.obj
 0001:0001c8b0       _M_Keydown                 0041d8b0 f   menu.obj
 0001:0001ca80       _M_ConfigureNetSubsystem   0041da80 f   menu.obj
 0001:0001cad0       _Mod_Init                  0041dad0 f   model.obj
 0001:0001caf0       _Mod_Extradata             0041daf0 f   model.obj
 0001:0001cb30       _Mod_PointInLeaf           0041db30 f   model.obj
 0001:0001cba0       _Mod_DecompressVis         0041dba0 f   model.obj
 0001:0001cc40       _Mod_LeafPVS               0041dc40 f   model.obj
 0001:0001cc70       _Mod_ClearAll              0041dc70 f   model.obj
 0001:0001ccb0       _Mod_FindName              0041dcb0 f   model.obj
 0001:0001cdd0       _Mod_TouchModel            0041ddd0 f   model.obj
 0001:0001ce00       _Mod_LoadModel             0041de00 f   model.obj
 0001:0001cee0       _Mod_ForName               0041dee0 f   model.obj
 0001:0001cf00       _Mod_LoadTextures          0041df00 f   model.obj
 0001:0001d350       _Mod_LoadLighting          0041e350 f   model.obj
 0001:0001d3c0       _Mod_LoadVisibility        0041e3c0 f   model.obj
 0001:0001d430       _Mod_LoadEntities          0041e430 f   model.obj
 0001:0001d4a0       _Mod_LoadVertexes          0041e4a0 f   model.obj
 0001:0001d550       _Mod_LoadSubmodels         0041e550 f   model.obj
 0001:0001d690       _Mod_LoadEdges             0041e690 f   model.obj
 0001:0001d730       _Mod_LoadTexinfo           0041e730 f   model.obj
 0001:0001d8e0       _CalcSurfaceExtents        0041e8e0 f   model.obj
 0001:0001da60       _Mod_LoadFaces             0041ea60 f   model.obj
 0001:0001dc20       _Mod_SetParent             0041ec20 f   model.obj
 0001:0001dc60       _Mod_LoadNodes             0041ec60 f   model.obj
 0001:0001de10       _Mod_LoadLeafs             0041ee10 f   model.obj
 0001:0001df80       _Mod_LoadClipnodes         0041ef80 f   model.obj
 0001:0001e0c0       _Mod_MakeHull0             0041f0c0 f   model.obj
 0001:0001e1b0       _Mod_LoadMarksurfaces      0041f1b0 f   model.obj
 0001:0001e270       _Mod_LoadSurfedges         0041f270 f   model.obj
 0001:0001e300       _Mod_LoadPlanes            0041f300 f   model.obj
 0001:0001e410       _RadiusFromBounds          0041f410 f   model.obj
 0001:0001e460       _Mod_LoadBrushModel        0041f460 f   model.obj
 0001:0001e670       _Mod_LoadAliasFrame        0041f670 f   model.obj
 0001:0001e730       _Mod_LoadAliasGroup        0041f730 f   model.obj
 0001:0001e840       _Mod_LoadAliasSkin         0041f840 f   model.obj
 0001:0001e8e0       _Mod_LoadAliasSkinGroup    0041f8e0 f   model.obj
 0001:0001e9b0       _Mod_LoadAliasModel        0041f9b0 f   model.obj
 0001:0001ee50       _Mod_LoadSpriteFrame       0041fe50 f   model.obj
 0001:0001ef70       _Mod_LoadSpriteGroup       0041ff70 f   model.obj
 0001:0001f030       _Mod_LoadSpriteModel       00420030 f   model.obj
 0001:0001f190       _Mod_Print                 00420190 f   model.obj
 0001:0001f210       _NET_Ban_f                 00420210 f   net_dgrm.obj
 0001:0001f370       _Datagram_SendMessage      00420370 f   net_dgrm.obj
 0001:0001f460       _SendMessageNext           00420460 f   net_dgrm.obj
 0001:0001f530       _ReSendMessage             00420530 f   net_dgrm.obj
 0001:0001f5f0       _Datagram_CanSendMessage   004205f0 f   net_dgrm.obj
 0001:0001f610       _Datagram_SendUnreliableMessage 00420610 f   net_dgrm.obj
 0001:0001f6b0       _Datagram_GetMessage       004206b0 f   net_dgrm.obj
 0001:0001fa70       _PrintStats                00420a70 f   net_dgrm.obj
 0001:0001fac0       _NET_Stats_f               00420ac0 f   net_dgrm.obj
 0001:0001fc40       _Strip_Port                00420c40 f   net_dgrm.obj
 0001:00020170       _Datagram_Init             00421170 f   net_dgrm.obj
 0001:00020940       _Datagram_Shutdown         00421940 f   net_dgrm.obj
 0001:00020970       _Datagram_Close            00421970 f   net_dgrm.obj
 0001:000209a0       _Datagram_Listen           004219a0 f   net_dgrm.obj
 0001:000209e0       _Datagram_Reject           004219e0 f   net_dgrm.obj
 0001:00020a80       _Datagram_CheckNewConnections 00421a80 f   net_dgrm.obj
 0001:000215f0       _Datagram_SearchForHosts   004225f0 f   net_dgrm.obj
 0001:00021a10       _Datagram_Connect          00422a10 f   net_dgrm.obj
 0001:00021ff0       _Loop_Init                 00422ff0 f   net_loop.obj
 0001:00022000       _D_DrawPoly                00423000 f   net_loop.obj
 0001:00022000       _D_TurnZOn                 00423000 f   net_loop.obj
 0001:00022000       _VCR_Shutdown              00423000 f   net_loop.obj
 0001:00022000       _VCR_SearchForHosts        00423000 f   net_loop.obj
 0001:00022000       _S_EndPrecaching           00423000 f   net_loop.obj
 0001:00022000       _D_StartParticles          00423000 f   net_loop.obj
 0001:00022000       _D_EndParticles            00423000 f   net_loop.obj
 0001:00022000       _SetPal                    00423000 f   net_loop.obj
 0001:00022000       _S_BeginPrecaching         00423000 f   net_loop.obj
 0001:00022000       _VCR_Close                 00423000 f   net_loop.obj
 0001:00022000       _Loop_Listen               00423000 f   net_loop.obj
 0001:00022000       _D_UpdateRects             00423000 f   net_loop.obj
 0001:00022000       _M_Search_Key              00423000 f   net_loop.obj
 0001:00022000       _Loop_Shutdown             00423000 f   net_loop.obj
 0001:00022010       _Loop_SearchForHosts       00423010 f   net_loop.obj
 0001:000220a0       _Loop_Connect              004230a0 f   net_loop.obj
 0001:000221e0       _Loop_CheckNewConnections  004231e0 f   net_loop.obj
 0001:00022240       _Loop_GetMessage           00423240 f   net_loop.obj
 0001:00022300       _Loop_SendMessage          00423300 f   net_loop.obj
 0001:000223b0       _Loop_SendUnreliableMessage 004233b0 f   net_loop.obj
 0001:00022440       _Loop_CanSendMessage       00423440 f   net_loop.obj
 0001:00022460       _Datagram_CanSendUnreliableMessage 00423460 f   net_loop.obj
 0001:00022460       _Loop_CanSendUnreliableMessage 00423460 f   net_loop.obj
 0001:00022470       _Loop_Close                00423470 f   net_loop.obj
 0001:000224b0       _SetNetTime                004234b0 f   net_main.obj
 0001:000224c0       _NET_NewQSocket            004234c0 f   net_main.obj
 0001:00022580       _NET_FreeQSocket           00423580 f   net_main.obj
 0001:000225e0       _NET_Slist_f               004235e0 f   net_main.obj
 0001:00022870       _NET_Connect               00423870 f   net_main.obj
 0001:00022a10       _NET_CheckNewConnections   00423a10 f   net_main.obj
 0001:00022b20       _NET_Close                 00423b20 f   net_main.obj
 0001:00022b60       _NET_GetMessage            00423b60 f   net_main.obj
 0001:00022dc0       _NET_SendMessage           00423dc0 f   net_main.obj
 0001:00022ef0       _NET_SendUnreliableMessage 00423ef0 f   net_main.obj
 0001:00023020       _NET_CanSendMessage        00424020 f   net_main.obj
 0001:000230b0       _NET_SendToAll             004240b0 f   net_main.obj
 0001:00023220       _NET_Init                  00424220 f   net_main.obj
 0001:00023710       _NET_Shutdown              00424710 f   net_main.obj
 0001:000237b0       _NET_Poll                  004247b0 f   net_main.obj
 0001:00023880       _SchedulePollProcedure     00424880 f   net_main.obj
 0001:000238e0       _VCR_Init                  004248e0 f   net_vcr.obj
 0001:00023960       _VCR_ReadNext              00424960 f   net_vcr.obj
 0001:000239b0       _VCR_GetMessage            004249b0 f   net_vcr.obj
 0001:00023a50       _VCR_SendMessage           00424a50 f   net_vcr.obj
 0001:00023ab0       _VCR_CanSendMessage        00424ab0 f   net_vcr.obj
 0001:00023b10       _WINS_Connect              00424b10 f   net_vcr.obj
 0001:00023b10       _WIPX_Connect              00424b10 f   net_vcr.obj
 0001:00023b10       _VCR_Connect               00424b10 f   net_vcr.obj
 0001:00023b20       _VCR_CheckNewConnections   00424b20 f   net_vcr.obj
 0001:00023b90       _BlockingHook@0            00424b90 f   net_wins.obj
 0001:00023bf0       _WINS_GetLocalAddress      00424bf0 f   net_wins.obj
 0001:00023c90       _WINS_Init                 00424c90 f   net_wins.obj
 0001:000240f0       _WINS_Shutdown             004250f0 f   net_wins.obj
 0001:00024120       _WINS_Listen               00425120 f   net_wins.obj
 0001:00024180       _WINS_OpenSocket           00425180 f   net_wins.obj
 0001:00024210       _WINS_CloseSocket          00425210 f   net_wins.obj
 0001:00024240       _WINS_CheckNewConnections  00425240 f   net_wins.obj
 0001:00024290       _WINS_Read                 00425290 f   net_wins.obj
 0001:000242f0       _WINS_MakeSocketBroadcastCapable 004252f0 f   net_wins.obj
 0001:00024330       _WINS_Broadcast            00425330 f   net_wins.obj
 0001:00024390       _WINS_Write                00425390 f   net_wins.obj
 0001:000243d0       _WINS_AddrToString         004253d0 f   net_wins.obj
 0001:00024430       _WINS_StringToAddr         00425430 f   net_wins.obj
 0001:000244a0       _WINS_GetSocketAddr        004254a0 f   net_wins.obj
 0001:00024500       _WINS_GetNameFromAddr      00425500 f   net_wins.obj
 0001:00024520       _WINS_GetAddrFromName      00425520 f   net_wins.obj
 0001:00024690       _WINS_AddrCompare          00425690 f   net_wins.obj
 0001:000246d0       _WINS_GetSocketPort        004256d0 f   net_wins.obj
 0001:000246f0       _WINS_SetSocketPort        004256f0 f   net_wins.obj
 0001:00024710       _WIPX_Init                 00425710 f   net_wipx.obj
 0001:000248e0       _WIPX_Shutdown             004258e0 f   net_wipx.obj
 0001:00024910       _WIPX_Listen               00425910 f   net_wipx.obj
 0001:00024970       _WIPX_OpenSocket           00425970 f   net_wipx.obj
 0001:00024a50       _WIPX_CloseSocket          00425a50 f   net_wipx.obj
 0001:00024a80       _WIPX_CheckNewConnections  00425a80 f   net_wipx.obj
 0001:00024ad0       _WIPX_Read                 00425ad0 f   net_wipx.obj
 0001:00024b50       _WIPX_Broadcast            00425b50 f   net_wipx.obj
 0001:00024b70       _WIPX_Write                00425b70 f   net_wipx.obj
 0001:00024bf0       _WIPX_AddrToString         00425bf0 f   net_wipx.obj
 0001:00024c60       _WIPX_StringToAddr         00425c60 f   net_wipx.obj
 0001:00024ec0       _WIPX_GetSocketAddr        00425ec0 f   net_wipx.obj
 0001:00024f10       _WIPX_GetNameFromAddr      00425f10 f   net_wipx.obj
 0001:00024f30       _WIPX_GetAddrFromName      00425f30 f   net_wipx.obj
 0001:00024fd0       _WIPX_AddrCompare          00425fd0 f   net_wipx.obj
 0001:00025040       _WIPX_GetSocketPort        00426040 f   net_wipx.obj
 0001:00025060       _WIPX_SetSocketPort        00426060 f   net_wipx.obj
 0001:00025080       _PF_VarString              00426080 f   pr_cmds.obj
 0001:00025100       _PF_error                  00426100 f   pr_cmds.obj
 0001:00025150       _PF_objerror               00426150 f   pr_cmds.obj
 0001:000251a0       _PF_makevectors            004261a0 f   pr_cmds.obj
 0001:000251d0       _PF_setorigin              004261d0 f   pr_cmds.obj
 0001:00025210       _SetMinMaxSize             00426210 f   pr_cmds.obj
 0001:000252e0       _PF_setsize                004262e0 f   pr_cmds.obj
 0001:00025310       _PF_setmodel               00426310 f   pr_cmds.obj
 0001:00025400       _PF_bprint                 00426400 f   pr_cmds.obj
 0001:00025420       _PF_sprint                 00426420 f   pr_cmds.obj
 0001:000254a0       _PF_centerprint            004264a0 f   pr_cmds.obj
 0001:00025520       _PF_normalize              00426520 f   pr_cmds.obj
 0001:000255c0       _PF_vlen                   004265c0 f   pr_cmds.obj
 0001:000255f0       _PF_vectoyaw               004265f0 f   pr_cmds.obj
 0001:00025660       _PF_vectoangles            00426660 f   pr_cmds.obj
 0001:00025740       _PF_random                 00426740 f   pr_cmds.obj
 0001:00025770       _PF_particle               00426770 f   pr_cmds.obj
 0001:000257a0       _PF_ambientsound           004267a0 f   pr_cmds.obj
 0001:000258c0       _PF_sound                  004268c0 f   pr_cmds.obj
 0001:000259a0       _PF_break                  004269a0 f   pr_cmds.obj
 0001:000259c0       _PF_traceline              004269c0 f   pr_cmds.obj
 0001:00025b00       _PF_newcheckclient         00426b00 f   pr_cmds.obj
 0001:00025c00       _PF_checkclient            00426c00 f   pr_cmds.obj
 0001:00025d60       _PF_stuffcmd               00426d60 f   pr_cmds.obj
 0001:00025df0       _PF_localcmd               00426df0 f   pr_cmds.obj
 0001:00025e10       _PF_cvar                   00426e10 f   pr_cmds.obj
 0001:00025e40       _PF_cvar_set               00426e40 f   pr_cmds.obj
 0001:00025eb0       _PF_findradius             00426eb0 f   pr_cmds.obj
 0001:00025fa0       _PF_dprint                 00426fa0 f   pr_cmds.obj
 0001:00025fc0       _PF_ftos                   00426fc0 f   pr_cmds.obj
 0001:00026030       _PF_fabs                   00427030 f   pr_cmds.obj
 0001:00026040       _PF_vtos                   00427040 f   pr_cmds.obj
 0001:00026090       _PF_Spawn                  00427090 f   pr_cmds.obj
 0001:000260b0       _PF_Remove                 004270b0 f   pr_cmds.obj
 0001:000260d0       _PF_Find                   004270d0 f   pr_cmds.obj
 0001:000261b0       _PR_CheckEmptyString       004271b0 f   pr_cmds.obj
 0001:000261d0       _PF_precache_file          004271d0 f   pr_cmds.obj
 0001:000261e0       _PF_precache_sound         004271e0 f   pr_cmds.obj
 0001:000262a0       _PF_precache_model         004272a0 f   pr_cmds.obj
 0001:00026370       _PF_coredump               00427370 f   pr_cmds.obj
 0001:00026380       _PF_traceon                00427380 f   pr_cmds.obj
 0001:00026390       _PF_traceoff               00427390 f   pr_cmds.obj
 0001:000263a0       _PF_eprint                 004273a0 f   pr_cmds.obj
 0001:000263c0       _PF_walkmove               004273c0 f   pr_cmds.obj
 0001:00026470       _PF_droptofloor            00427470 f   pr_cmds.obj
 0001:00026570       _PF_lightstyle             00427570 f   pr_cmds.obj
 0001:00026610       _PF_rint                   00427610 f   pr_cmds.obj
 0001:00026660       _PF_floor                  00427660 f   pr_cmds.obj
 0001:00026680       _PF_ceil                   00427680 f   pr_cmds.obj
 0001:000266a0       _PF_checkbottom            004276a0 f   pr_cmds.obj
 0001:000266d0       _PF_pointcontents          004276d0 f   pr_cmds.obj
 0001:00026700       _PF_nextent                00427700 f   pr_cmds.obj
 0001:00026760       _PF_aim                    00427760 f   pr_cmds.obj
 0001:00026b00       _PF_changeyaw              00427b00 f   pr_cmds.obj
 0001:00026be0       _WriteDest                 00427be0 f   pr_cmds.obj
 0001:00026c90       _PF_WriteByte              00427c90 f   pr_cmds.obj
 0001:00026c90       _PF_WriteChar              00427c90 f   pr_cmds.obj
 0001:00026cb0       _PF_WriteShort             00427cb0 f   pr_cmds.obj
 0001:00026cd0       _PF_WriteLong              00427cd0 f   pr_cmds.obj
 0001:00026cf0       _PF_WriteAngle             00427cf0 f   pr_cmds.obj
 0001:00026d10       _PF_WriteCoord             00427d10 f   pr_cmds.obj
 0001:00026d30       _PF_WriteString            00427d30 f   pr_cmds.obj
 0001:00026d50       _PF_WriteEntity            00427d50 f   pr_cmds.obj
 0001:00026d80       _PF_makestatic             00427d80 f   pr_cmds.obj
 0001:00026e40       _PF_setspawnparms          00427e40 f   pr_cmds.obj
 0001:00026ec0       _PF_changelevel            00427ec0 f   pr_cmds.obj
 0001:00026f00       _PF_Fixme                  00427f00 f   pr_cmds.obj
 0001:00026f10       _ED_ClearEdict             00427f10 f   pr_edict.obj
 0001:00026f40       _ED_Alloc                  00427f40 f   pr_edict.obj
 0001:00026fe0       _ED_Free                   00427fe0 f   pr_edict.obj
 0001:00027080       _ED_GlobalAtOfs            00428080 f   pr_edict.obj
 0001:000270c0       _ED_FieldAtOfs             004280c0 f   pr_edict.obj
 0001:00027100       _ED_FindField              00428100 f   pr_edict.obj
 0001:00027180       _ED_FindGlobal             00428180 f   pr_edict.obj
 0001:00027200       _ED_FindFunction           00428200 f   pr_edict.obj
 0001:00027280       _GetEdictFieldValue        00428280 f   pr_edict.obj
 0001:00027380       _PR_ValueString            00428380 f   pr_edict.obj
 0001:00027520       _PR_UglyValueString        00428520 f   pr_edict.obj
 0001:000276a0       _PR_GlobalString           004286a0 f   pr_edict.obj
 0001:00027790       _PR_GlobalStringNoContents 00428790 f   pr_edict.obj
 0001:00027860       _ED_Print                  00428860 f   pr_edict.obj
 0001:00027980       _ED_Write                  00428980 f   pr_edict.obj
 0001:00027a70       _ED_PrintNum               00428a70 f   pr_edict.obj
 0001:00027a90       _ED_PrintEdicts            00428a90 f   pr_edict.obj
 0001:00027ad0       _ED_PrintEdict_f           00428ad0 f   pr_edict.obj
 0001:00027b00       _ED_Count                  00428b00 f   pr_edict.obj
 0001:00027bb0       _ED_WriteGlobals           00428bb0 f   pr_edict.obj
 0001:00027c70       _ED_ParseGlobals           00428c70 f   pr_edict.obj
 0001:00027d60       _ED_NewString              00428d60 f   pr_edict.obj
 0001:00027dc0       _ED_ParseEpair             00428dc0 f   pr_edict.obj
 0001:00027f60       _ED_ParseEdict             00428f60 f   pr_edict.obj
 0001:000281e0       _ED_LoadFromFile           004291e0 f   pr_edict.obj
 0001:00028370       _PR_LoadProgs              00429370 f   pr_edict.obj
 0001:00028740       _PR_Init                   00429740 f   pr_edict.obj
 0001:00028800       _EDICT_NUM                 00429800 f   pr_edict.obj
 0001:00028840       _NUM_FOR_EDICT             00429840 f   pr_edict.obj
 0001:00028880       _PR_PrintStatement         00429880 f   pr_exec.obj
 0001:00028a00       _PR_StackTrace             00429a00 f   pr_exec.obj
 0001:00028a80       _PR_Profile_f              00429a80 f   pr_exec.obj
 0001:00028af0       _PR_RunError               00429af0 f   pr_exec.obj
 0001:00028b60       _PR_EnterFunction          00429b60 f   pr_exec.obj
 0001:00028c70       _PR_LeaveFunction          00429c70 f   pr_exec.obj
 0001:00028d00       _PR_ExecuteProgram         00429d00 f   pr_exec.obj
 0001:00029590       _R_Alias_clip_z            0042a590 f   r_aclip.obj
 0001:00029740       _R_AliasClip               0042a740 f   r_aclip.obj
 0001:00029840       _R_AliasClipTriangle       0042a840 f   r_aclip.obj
 0001:00029b20       _R_AliasCheckBBox          0042ab20 f   r_alias.obj
 0001:00029ea0       _R_AliasTransformVector    0042aea0 f   r_alias.obj
 0001:00029f20       _R_AliasPreparePoints      0042af20 f   r_alias.obj
 0001:0002a0c0       _R_AliasSetUpTransform     0042b0c0 f   r_alias.obj
 0001:0002a270       _R_AliasTransformFinalVert 0042b270 f   r_alias.obj
 0001:0002a3c0       _R_AliasProjectFinalVert   0042b3c0 f   r_alias.obj
 0001:0002a420       _R_AliasPrepareUnclippedPoints 0042b420 f   r_alias.obj
 0001:0002a4a0       _R_AliasSetupSkin          0042b4a0 f   r_alias.obj
 0001:0002a5b0       _R_AliasSetupLighting      0042b5b0 f   r_alias.obj
 0001:0002a680       _R_AliasSetupFrame         0042b680 f   r_alias.obj
 0001:0002a750       _R_AliasDrawModel          0042b750 f   r_alias.obj
 0001:0002a880       _R_EntityRotate            0042b880 f   r_bsp.obj
 0001:0002a900       _R_RotateBmodel            0042b900 f   r_bsp.obj
 0001:0002aa50       _R_RecursiveClipBPoly      0042ba50 f   r_bsp.obj
 0001:0002ad70       _R_DrawSolidClippedSubmodelPolygons 0042bd70 f   r_bsp.obj
 0001:0002af30       _R_DrawSubmodelPolygons    0042bf30 f   r_bsp.obj
 0001:0002afd0       _R_RecursiveWorldNode      0042bfd0 f   r_bsp.obj
 0001:0002b320       _R_RenderWorld             0042c320 f   r_bsp.obj
 0001:0002b3c0       _R_EmitCachedEdge          0042c3c0 f   r_draw.obj
 0001:0002b430       _R_RenderFace              0042c430 f   r_draw.obj
 0001:0002b880       _R_RenderBmodelFace        0042c880 f   r_draw.obj
 0001:0002bb10       _R_RenderPoly              0042cb10 f   r_draw.obj
 0001:0002bfc0       _R_ZDrawSubmodelPolys      0042cfc0 f   r_draw.obj
 0001:0002c060       _R_DrawCulledPolys         0042d060 f   r_edge.obj
 0001:0002c0f0       _R_BeginEdgeFrame          0042d0f0 f   r_edge.obj
 0001:0002c1c0       _R_CleanupSpan             0042d1c0 f   r_edge.obj
 0001:0002c220       _R_LeadingEdgeBackwards    0042d220 f   r_edge.obj
 0001:0002c2d0       _R_TrailingEdge            0042d2d0 f   r_edge.obj
 0001:0002c350       _R_GenerateSpansBackward   0042d350 f   r_edge.obj
 0001:0002c3e0       _R_ScanEdges               0042d3e0 f   r_edge.obj
 0001:0002c610       _R_RemoveEfrags            0042d610 f   r_efrag.obj
 0001:0002c670       _R_SplitEntityOnNode       0042d670 f   r_efrag.obj
 0001:0002c790       _R_SplitEntityOnNode2      0042d790 f   r_efrag.obj
 0001:0002c830       _R_AddEfrags               0042d830 f   r_efrag.obj
 0001:0002c8c0       _R_StoreEfrags             0042d8c0 f   r_efrag.obj
 0001:0002c930       _R_AnimateLight            0042d930 f   r_light.obj
 0001:0002c990       _R_MarkLights              0042d990 f   r_light.obj
 0001:0002ca60       _R_PushDlights             0042da60 f   r_light.obj
 0001:0002cad0       _RecursiveLightPoint       0042dad0 f   r_light.obj
 0001:0002cd50       _R_LightPoint              0042dd50 f   r_light.obj
 0001:0002cdc0       _R_InitTextures            0042ddc0 f   r_main.obj
 0001:0002ceb0       _R_Init                    0042deb0 f   r_main.obj
 0001:0002d050       _R_NewMap                  0042e050 f   r_main.obj
 0001:0002d170       _R_SetVrect                0042e170 f   r_main.obj
 0001:0002d260       _R_ViewChanged             0042e260 f   r_main.obj
 0001:0002d670       _R_MarkLeaves              0042e670 f   r_main.obj
 0001:0002d720       _R_DrawEntitiesOnList      0042e720 f   r_main.obj
 0001:0002d960       _R_DrawViewModel           0042e960 f   r_main.obj
 0001:0002db70       _R_BmodelCheckBBox         0042eb70 f   r_main.obj
 0001:0002dcf0       _R_DrawBEntitiesOnList     0042ecf0 f   r_main.obj
 0001:0002e000       _R_EdgeDrawing             0042f000 f   r_main.obj
 0001:0002e120       _R_RenderView_             0042f120 f   r_main.obj
 0001:0002e380       _R_RenderView              0042f380 f   r_main.obj
 0001:0002e400       _R_InitTurb                0042f400 f   r_main.obj
 0001:0002e460       _R_CheckVariables          0042f460 f   r_misc.obj
 0001:0002e490       _R_TimeRefresh_f           0042f490 f   r_misc.obj
 0001:0002e550       _R_LineGraph               0042f550 f   r_misc.obj
 0001:0002e5e0       _R_TimeGraph               0042f5e0 f   r_misc.obj
 0001:0002e690       _R_PrintTimes              0042f690 f   r_misc.obj
 0001:0002e6e0       _R_PrintDSpeeds            0042f6e0 f   r_misc.obj
 0001:0002e7a0       _R_PrintAliasStats         0042f7a0 f   r_misc.obj
 0001:0002e7c0       _R_TransformFrustum        0042f7c0 f   r_misc.obj
 0001:0002e890       _R_SetUpFrustumIndexes     0042f890 f   r_misc.obj
 0001:0002e900       _R_SetupFrame              0042f900 f   r_misc.obj
 0001:0002ed00       _R_InitParticles           0042fd00 f   r_part.obj
 0001:0002ed60       _R_EntityParticles         0042fd60 f   r_part.obj
 0001:0002eea0       _R_ClearParticles          0042fea0 f   r_part.obj
 0001:0002ef00       _R_ReadPointFile_f         0042ff00 f   r_part.obj
 0001:0002f060       _R_ParseParticleEffect     00430060 f   r_part.obj
 0001:0002f0d0       _R_ParticleExplosion       004300d0 f   r_part.obj
 0001:0002f200       _R_ParticleExplosion2      00430200 f   r_part.obj
 0001:0002f2e0       _R_BlobExplosion           004302e0 f   r_part.obj
 0001:0002f440       _R_RunParticleEffect       00430440 f   r_part.obj
 0001:0002f620       _R_LavaSplash              00430620 f   r_part.obj
 0001:0002f770       _R_TeleportSplash          00430770 f   r_part.obj
 0001:0002f8f0       _R_RocketTrail             004308f0 f   r_part.obj
 0001:0002fc90       _R_DrawParticles           00430c90 f   r_part.obj
 0001:0002ff50       _R_InitSky                 00430f50 f   r_sky.obj
 0001:0002fff0       _R_MakeSky                 00430ff0 f   r_sky.obj
 0001:00030090       _R_SetSkyFrame             00431090 f   r_sky.obj
 0001:00030120       _R_RotateSprite            00431120 f   r_sprite.obj
 0001:000301b0       _R_ClipSpriteFace          004311b0 f   r_sprite.obj
 0001:00030350       _R_SetupAndDrawSprite      00431350 f   r_sprite.obj
 0001:00030660       _R_GetSpriteframe          00431660 f   r_sprite.obj
 0001:00030700       _R_DrawSprite              00431700 f   r_sprite.obj
 0001:00030970       _R_AddDynamicLights        00431970 f   r_surf.obj
 0001:00030b90       _R_BuildLightMap           00431b90 f   r_surf.obj
 0001:00030ca0       _R_TextureAnimation        00431ca0 f   r_surf.obj
 0001:00030d20       _R_DrawSurface             00431d20 f   r_surf.obj
 0001:00030ed0       _Sbar_ShowScores           00431ed0 f   sbar.obj
 0001:00030ef0       _Sbar_DontShowScores       00431ef0 f   sbar.obj
 0001:00030f00       _Sbar_Changed              00431f00 f   sbar.obj
 0001:00030f10       _Sbar_Init                 00431f10 f   sbar.obj
 0001:00031570       _Sbar_DrawPic              00432570 f   sbar.obj
 0001:000315d0       _Sbar_DrawTransPic         004325d0 f   sbar.obj
 0001:00031630       _Sbar_DrawCharacter        00432630 f   sbar.obj
 0001:00031690       _Sbar_DrawString           00432690 f   sbar.obj
 0001:000316f0       _Sbar_itoa                 004326f0 f   sbar.obj
 0001:00031760       _Sbar_DrawNum              00432760 f   sbar.obj
 0001:000317f0       _Sbar_SortFrags            004327f0 f   sbar.obj
 0001:000318a0       _Sbar_SortTeamFrags        004328a0 f   sbar.obj
 0001:00031920       _Sbar_ColorForMap          00432920 f   sbar.obj
 0001:00031930       _Sbar_SoloScoreboard       00432930 f   sbar.obj
 0001:00031b10       _Sbar_DrawScoreboard       00432b10 f   sbar.obj
 0001:00031b30       _Sbar_DrawInventory        00432b30 f   sbar.obj
 0001:00031ff0       _Sbar_DrawFrags            00432ff0 f   sbar.obj
 0001:000323a0       _Sbar_DrawFace             004333a0 f   sbar.obj
 0001:00032630       _Sbar_Draw                 00433630 f   sbar.obj
 0001:00032970       _Sbar_IntermissionNumber   00433970 f   sbar.obj
 0001:00032a00       _Sbar_DeathmatchOverlay    00433a00 f   sbar.obj
 0001:00032ce0       _Sbar_MiniDeathmatchOverlay 00433ce0 f   sbar.obj
 0001:00032f00       _Sbar_IntermissionOverlay  00433f00 f   sbar.obj
 0001:00033080       _Sbar_FinaleOverlay        00434080 f   sbar.obj
 0001:000330b0       _SCR_CenterPrint           004340b0 f   screen.obj
 0001:00033110       _SCR_EraseCenterString     00434110 f   screen.obj
 0001:000331a0       _SCR_DrawCenterString      004341a0 f   screen.obj
 0001:000332a0       _SCR_CheckDrawCenterString 004342a0 f   screen.obj
 0001:00033300       _CalcFov                   00434300 f   screen.obj
 0001:00033370       _SCR_SizeUp_f              00434370 f   screen.obj
 0001:000333a0       _SCR_SizeDown_f            004343a0 f   screen.obj
 0001:000333d0       _SCR_Init                  004343d0 f   screen.obj
 0001:000334a0       _SCR_DrawRam               004344a0 f   screen.obj
 0001:000334e0       _SCR_DrawTurtle            004344e0 f   screen.obj
 0001:00033540       _SCR_DrawNet               00434540 f   screen.obj
 0001:00033590       _SCR_DrawFPS               00434590 f   screen.obj
 0001:00033680       _SCR_DrawSpeed             00434680 f   screen.obj
 0001:000337d0       _SCR_DrawPause             004347d0 f   screen.obj
 0001:00033820       _SCR_DrawLoading           00434820 f   screen.obj
 0001:00033860       _SCR_SetUpToDrawConsole    00434860 f   screen.obj
 0001:00033a10       _SCR_DrawConsole           00434a10 f   screen.obj
 0001:00033a70       _WritePCXfile              00434a70 f   screen.obj
 0001:00033ba0       _SCR_ScreenShot_f          00434ba0 f   screen.obj
 0001:00033c80       _SCR_BeginLoadingPlaque    00434c80 f   screen.obj
 0001:00033d00       _SCR_EndLoadingPlaque      00434d00 f   screen.obj
 0001:00033d20       _SCR_DrawNotifyString      00434d20 f   screen.obj
 0001:00033dd0       _SCR_ModalMessage          00434dd0 f   screen.obj
 0001:00033e60       _SCR_UpdateScreen          00434e60 f   screen.obj
 0001:00034310       _SCR_UpdateWholeScreen     00435310 f   screen.obj
 0001:00034320       _Security_Init             00435320 f   security.obj
 0001:000343f0       _S_SoundInfo_f             004353f0 f   snd_dma.obj
 0001:000344b0       _S_Startup                 004354b0 f   snd_dma.obj
 0001:000344e0       _S_Init                    004354e0 f   snd_dma.obj
 0001:00034730       _S_Shutdown                00435730 f   snd_dma.obj
 0001:00034770       _S_FindName                00435770 f   snd_dma.obj
 0001:00034840       _S_TouchSound              00435840 f   snd_dma.obj
 0001:00034870       _S_PrecacheSound           00435870 f   snd_dma.obj
 0001:000348d0       _SND_PickChannel           004358d0 f   snd_dma.obj
 0001:00034970       _SND_Spatialize            00435970 f   snd_dma.obj
 0001:00034a70       _S_StartSound              00435a70 f   snd_dma.obj
 0001:00034bc0       _S_StopSound               00435bc0 f   snd_dma.obj
 0001:00034c10       _S_StopAllSounds           00435c10 f   snd_dma.obj
 0001:00034c70       _S_StopAllSoundsC          00435c70 f   snd_dma.obj
 0001:00034c80       _S_ClearBuffer             00435c80 f   snd_dma.obj
 0001:00034dd0       _S_StaticSound             00435dd0 f   snd_dma.obj
 0001:00034e90       _S_UpdateAmbientSounds     00435e90 f   snd_dma.obj
 0001:00034fd0       _S_Update                  00435fd0 f   snd_dma.obj
 0001:00035170       _GetSoundtime              00436170 f   snd_dma.obj
 0001:000351f0       _S_ExtraUpdate             004361f0 f   snd_dma.obj
 0001:00035210       _S_Update_                 00436210 f   snd_dma.obj
 0001:000352f0       _S_Play                    004362f0 f   snd_dma.obj
 0001:000353b0       _S_PlayVol                 004363b0 f   snd_dma.obj
 0001:00035480       _S_SoundList               00436480 f   snd_dma.obj
 0001:00035540       _S_VolumeDown_f            00436540 f   snd_dma.obj
 0001:000355c0       _S_VolumeUp_f              004365c0 f   snd_dma.obj
 0001:00035640       _S_LocalSound              00436640 f   snd_dma.obj
 0001:000356b0       _ResampleSfx               004366b0 f   snd_mem.obj
 0001:00035810       _S_LoadSound               00436810 f   snd_mem.obj
 0001:00035950       _GetLittleShort            00436950 f   snd_mem.obj
 0001:00035970       _GetLittleLong             00436970 f   snd_mem.obj
 0001:000359b0       _FindNextChunk             004369b0 f   snd_mem.obj
 0001:00035a20       _FindChunk                 00436a20 f   snd_mem.obj
 0001:00035a40       _GetWavinfo                00436a40 f   snd_mem.obj
 0001:00035c30       _S_TransferStereo16        00436c30 f   snd_mix.obj
 0001:00035d90       _S_TransferPaintBuffer     00436d90 f   snd_mix.obj
 0001:00035fa0       _S_PaintChannels           00436fa0 f   snd_mix.obj
 0001:000360f0       _SND_InitScaletable        004370f0 f   snd_mix.obj
 0001:00036120       _SND_PaintChannelFrom16    00437120 f   snd_mix.obj
 0001:000361a0       _S_BlockSound              004371a0 f   snd_win.obj
 0001:000361d0       _S_UnblockSound            004371d0 f   snd_win.obj
 0001:000361e0       _FreeSound                 004371e0 f   snd_win.obj
 0001:00036300       _SNDDMA_InitDirect         00437300 f   snd_win.obj
 0001:000368e0       _SNDDMA_InitWav            004378e0 f   snd_win.obj
 0001:00036be0       _SNDDMA_Init               00437be0 f   snd_win.obj
 0001:00036cd0       _SNDDMA_GetDMAPos          00437cd0 f   snd_win.obj
 0001:00036d40       _SNDDMA_Submit             00437d40 f   snd_win.obj
 0001:00036e10       _SNDDMA_Shutdown           00437e10 f   snd_win.obj
 0001:00036e20       _SV_Init                   00437e20 f   sv_main.obj
 0001:00036ec0       _SV_StartParticle          00437ec0 f   sv_main.obj
 0001:00036f80       _SV_StartSound             00437f80 f   sv_main.obj
 0001:00037170       _SV_SendServerinfo         00438170 f   sv_main.obj
 0001:00037370       _SV_ConnectClient          00438370 f   sv_main.obj
 0001:000374d0       _SV_CheckForNewClients     004384d0 f   sv_main.obj
 0001:00037550       _SV_ClearDatagram          00438550 f   sv_main.obj
 0001:00037560       _SV_AddToFatPVS            00438560 f   sv_main.obj
 0001:00037610       _SV_FatPVS                 00438610 f   sv_main.obj
 0001:00037660       _SV_WriteEntitiesToClient  00438660 f   sv_main.obj
 0001:000379e0       _SV_CleanupEnts            004389e0 f   sv_main.obj
 0001:00037a40       _SV_WriteClientdataToMessage 00438a40 f   sv_main.obj
 0001:00037e70       _SV_SendClientDatagram     00438e70 f   sv_main.obj
 0001:00037f40       _SV_UpdateToReliableMessages 00438f40 f   sv_main.obj
 0001:00038080       _SV_SendNop                00439080 f   sv_main.obj
 0001:00038100       _SV_SendClientMessages     00439100 f   sv_main.obj
 0001:00038240       _SV_ModelIndex             00439240 f   sv_main.obj
 0001:000382d0       _SV_CreateBaseline         004392d0 f   sv_main.obj
 0001:00038430       _SV_SendReconnect          00439430 f   sv_main.obj
 0001:000384a0       _SV_SaveSpawnparms         004394a0 f   sv_main.obj
 0001:00038540       _SV_SpawnServer            00439540 f   sv_main.obj
 0001:00038970       _SV_CheckBottom            00439970 f   sv_move.obj
 0001:00038ba0       _SV_movestep               00439ba0 f   sv_move.obj
 0001:00038f50       _SV_StepDirection          00439f50 f   sv_move.obj
 0001:00039030       _SV_FixCheckBottom         0043a030 f   sv_move.obj
 0001:00039060       _SV_NewChaseDir            0043a060 f   sv_move.obj
 0001:00039360       _SV_CloseEnough            0043a360 f   sv_move.obj
 0001:000393c0       _SV_MoveToGoal             0043a3c0 f   sv_move.obj
 0001:00039470       _SV_CheckVelocity          0043a470 f   sv_phys.obj
 0001:00039530       _SV_RunThink               0043a530 f   sv_phys.obj
 0001:000395d0       _SV_Impact                 0043a5d0 f   sv_phys.obj
 0001:000396d0       _ClipVelocity              0043a6d0 f   sv_phys.obj
 0001:00039770       _SV_FlyMove                0043a770 f   sv_phys.obj
 0001:00039b70       _SV_AddGravity             0043ab70 f   sv_phys.obj
 0001:00039bd0       _SV_PushEntity             0043abd0 f   sv_phys.obj
 0001:00039cf0       _SV_PushMove               0043acf0 f   sv_phys.obj
 0001:0003a0d0       _SV_Physics_Pusher         0043b0d0 f   sv_phys.obj
 0001:0003a1a0       _SV_CheckStuck             0043b1a0 f   sv_phys.obj
 0001:0003a2d0       _SV_CheckWater             0043b2d0 f   sv_phys.obj
 0001:0003a3c0       _SV_WallFriction           0043b3c0 f   sv_phys.obj
 0001:0003a490       _SV_TryUnstick             0043b490 f   sv_phys.obj
 0001:0003a640       _SV_WalkMove               0043b640 f   sv_phys.obj
 0001:0003a8f0       _SV_Physics_Client         0043b8f0 f   sv_phys.obj
 0001:0003aab0       _SV_Physics_None           0043bab0 f   sv_phys.obj
 0001:0003aad0       _SV_Physics_Noclip         0043bad0 f   sv_phys.obj
 0001:0003ab40       _SV_CheckWaterTransition   0043bb40 f   sv_phys.obj
 0001:0003abf0       _SV_Physics_Toss           0043bbf0 f   sv_phys.obj
 0001:0003ada0       _SV_Physics_Step           0043bda0 f   sv_phys.obj
 0001:0003ae50       _SV_Physics                0043be50 f   sv_phys.obj
 0001:0003afe0       _SV_SetIdealPitch          0043bfe0 f   sv_user.obj
 0001:0003b1d0       _SV_UserFriction           0043c1d0 f   sv_user.obj
 0001:0003b310       _SV_Accelerate             0043c310 f   sv_user.obj
 0001:0003b3a0       _SV_AirAccelerate          0043c3a0 f   sv_user.obj
 0001:0003b440       _DropPunchAngle            0043c440 f   sv_user.obj
 0001:0003b4a0       _SV_WaterMove              0043c4a0 f   sv_user.obj
 0001:0003b670       _SV_WaterJump              0043c670 f   sv_user.obj
 0001:0003b700       _SV_AirMove                0043c700 f   sv_user.obj
 0001:0003b870       _SV_ClientThink            0043c870 f   sv_user.obj
 0001:0003b9d0       _SV_ReadClientMove         0043c9d0 f   sv_user.obj
 0001:0003bba0       _SV_ReadClientMessage      0043cba0 f   sv_user.obj
 0001:0003be80       _SV_RunClients             0043ce80 f   sv_user.obj
 0001:0003bf20       _Sys_PageIn                0043cf20 f   sys_win.obj
 0001:0003bf80       _Sys_GetLock               0043cf80 f   sys_win.obj
 0001:0003bfe0       _Sys_ReleaseLock           0043cfe0 f   sys_win.obj
 0001:0003c010       _findhandle                0043d010 f   sys_win.obj
 0001:0003c040       _filelength                0043d040 f   sys_win.obj
 0001:0003c090       _Sys_FileOpenRead          0043d090 f   sys_win.obj
 0001:0003c100       _Sys_FileOpenWrite         0043d100 f   sys_win.obj
 0001:0003c160       _Sys_FileClose             0043d160 f   sys_win.obj
 0001:0003c1a0       _Sys_FileSeek              0043d1a0 f   sys_win.obj
 0001:0003c1d0       _Sys_FileRead              0043d1d0 f   sys_win.obj
 0001:0003c210       _Sys_FileWrite             0043d210 f   sys_win.obj
 0001:0003c250       _Sys_FileTime              0043d250 f   sys_win.obj
 0001:0003c2a0       _Sys_mkdir                 0043d2a0 f   sys_win.obj
 0001:0003c2c0       _Sys_MakeCodeWriteable     0043d2c0 f   sys_win.obj
 0001:0003c2f0       _Sys_Init                  0043d2f0 f   sys_win.obj
 0001:0003c3e0       _Sys_Error                 0043d3e0 f   sys_win.obj
 0001:0003c5c0       _Sys_Printf                0043d5c0 f   sys_win.obj
 0001:0003c6b0       _Sys_Quit                  0043d6b0 f   sys_win.obj
 0001:0003c700       _Sys_FloatTime             0043d700 f   sys_win.obj
 0001:0003c7f0       _Sys_InitFloatTime         0043d7f0 f   sys_win.obj
 0001:0003c840       _Sys_ConsoleInput          0043d840 f   sys_win.obj
 0001:0003c9c0       _Sys_Sleep                 0043d9c0 f   sys_win.obj
 0001:0003c9d0       _Sys_SendKeyEvents         0043d9d0 f   sys_win.obj
 0001:0003ca50       _SleepUntilInput           0043da50 f   sys_win.obj
 0001:0003ca70       _WinMain@16                0043da70 f   sys_win.obj
 0001:0003cf10       _VID_RememberWindowPos     0043df10 f   vid_win.obj
 0001:0003cf80       _VID_CheckWindowXY         0043df80 f   vid_win.obj
 0001:0003cff0       _VID_UpdateWindowStatus    0043dff0 f   vid_win.obj
 0001:0003d050       _VID_CheckAdequateMem      0043e050 f   vid_win.obj
 0001:0003d090       _VID_AllocBuffers          0043e090 f   vid_win.obj
 0001:0003d140       _initFatalError            0043e140 f   vid_win.obj
 0001:0003d160       _VID_Suspend               0043e160 f   vid_win.obj
 0001:0003d1f0       _registerAllDispDrivers    0043e1f0 f   vid_win.obj
 0001:0003d260       _registerAllMemDrivers     0043e260 f   vid_win.obj
 0001:0003d280       _VID_InitMGLFull           0043e280 f   vid_win.obj
 0001:0003d5c0       _createDisplayDC           0043e5c0 f   vid_win.obj
 0001:0003d730       _VID_InitMGLDIB            0043e730 f   vid_win.obj
 0001:0003d930       _VID_InitFullDIB           0043e930 f   vid_win.obj
 0001:0003e080       _VID_NumModes              0043f080 f   vid_win.obj
 0001:0003e090       _VID_GetModePtr            0043f090 f   vid_win.obj
 0001:0003e0c0       _VID_CheckModedescFixup    0043f0c0 f   vid_win.obj
 0001:0003e170       _VID_GetModeDescriptionMemCheck 0043f170 f   vid_win.obj
 0001:0003e1b0       _VID_GetModeDescription    0043f1b0 f   vid_win.obj
 0001:0003e1e0       _VID_GetModeDescription2   0043f1e0 f   vid_win.obj
 0001:0003e260       _VID_GetExtModeDescription 0043f260 f   vid_win.obj
 0001:0003e300       _DestroyDIBWindow          0043f300 f   vid_win.obj
 0001:0003e350       _DestroyFullscreenWindow   0043f350 f   vid_win.obj
 0001:0003e3a0       _DestroyFullDIBWindow      0043f3a0 f   vid_win.obj
 0001:0003e3f0       _VID_SetWindowedMode       0043f3f0 f   vid_win.obj
 0001:0003e7f0       _VID_SetFullscreenMode     0043f7f0 f   vid_win.obj
 0001:0003e980       _VID_SetFullDIBMode        0043f980 f   vid_win.obj
 0001:0003ecd0       _VID_RestoreOldMode        0043fcd0 f   vid_win.obj
 0001:0003ed50       _VID_SetDefaultMode        0043fd50 f   vid_win.obj
 0001:0003ed70       _VID_SetMode               0043fd70 f   vid_win.obj
 0001:0003f070       _VID_LockBuffer            00440070 f   vid_win.obj
 0001:0003f130       _VID_UnlockBuffer          00440130 f   vid_win.obj
 0001:0003f180       _VID_ForceUnlockedAndReturnState 00440180 f   vid_win.obj
 0001:0003f1c0       _VID_ForceLockState        004401c0 f   vid_win.obj
 0001:0003f200       _VID_SetPalette            00440200 f   vid_win.obj
 0001:0003f3b0       _VID_ShiftPalette          004403b0 f   vid_win.obj
 0001:0003f3d0       _VID_DescribeCurrentMode_f 004403d0 f   vid_win.obj
 0001:0003f3f0       _VID_NumModes_f            004403f0 f   vid_win.obj
 0001:0003f420       _VID_DescribeMode_f        00440420 f   vid_win.obj
 0001:0003f450       _VID_DescribeModes_f       00440450 f   vid_win.obj
 0001:0003f4e0       _VID_TestMode_f            004404e0 f   vid_win.obj
 0001:0003f550       _VID_Windowed_f            00440550 f   vid_win.obj
 0001:0003f570       _VID_Fullscreen_f          00440570 f   vid_win.obj
 0001:0003f590       _VID_Minimize_f            00440590 f   vid_win.obj
 0001:0003f5b0       _VID_ForceMode_f           004405b0 f   vid_win.obj
 0001:0003f5f0       _VID_Init                  004405f0 f   vid_win.obj
 0001:0003f950       _VID_Shutdown              00440950 f   vid_win.obj
 0001:0003f9f0       _FlipScreen                004409f0 f   vid_win.obj
 0001:0003fbd0       _VID_Update                00440bd0 f   vid_win.obj
 0001:0003fe60       _D_BeginDirectRect         00440e60 f   vid_win.obj
 0001:00040110       _D_EndDirectRect           00441110 f   vid_win.obj
 0001:00040330       _AppActivate               00441330 f   vid_win.obj
 0001:00040580       _VID_HandlePause           00441580 f   vid_win.obj
 0001:000405c0       _MainWndProc@16            004415c0 f   vid_win.obj
 0001:00040b90       _VID_MenuDraw              00441b90 f   vid_win.obj
 0001:00041030       _VID_MenuKey               00442030 f   vid_win.obj
 0001:00041350       _V_CalcRoll                00442350 f   view.obj
 0001:000413f0       _V_CalcBob                 004423f0 f   view.obj
 0001:000414c0       _V_StartPitchDrift         004424c0 f   view.obj
 0001:00041510       _V_StopPitchDrift          00442510 f   view.obj
 0001:00041540       _V_DriftPitch              00442540 f   view.obj
 0001:000416b0       _BuildGammaTable           004426b0 f   view.obj
 0001:00041740       _V_CheckGamma              00442740 f   view.obj
 0001:000417c0       _V_ParseDamage             004427c0 f   view.obj
 0001:00041970       _V_cshift_f                00442970 f   view.obj
 0001:000419c0       _V_BonusFlash_f            004429c0 f   view.obj
 0001:000419f0       _V_SetContentsColor        004429f0 f   view.obj
 0001:00041af0       _V_CalcPowerupCshift       00442af0 f   view.obj
 0001:00041be0       _V_UpdatePalette           00442be0 f   view.obj
 0001:00041d60       _angledelta                00442d60 f   view.obj
 0001:00041d90       _CalcGunAngle              00442d90 f   view.obj
 0001:00041f60       _V_BoundOffsets            00442f60 f   view.obj
 0001:00042050       _V_AddIdle                 00443050 f   view.obj
 0001:000420d0       _V_CalcViewRoll            004430d0 f   view.obj
 0001:00042170       _V_CalcIntermissionRefdef  00443170 f   view.obj
 0001:00042200       _V_CalcRefdef              00443200 f   view.obj
 0001:00042590       _SCR_DrawVolume            00443590 f   view.obj
 0001:00042680       _V_RenderView              00443680 f   view.obj
 0001:000428b0       _V_Init                    004438b0 f   view.obj
 0001:00042a50       _W_CleanupName             00443a50 f   wad.obj
 0001:00042ab0       _W_LoadWadFile             00443ab0 f   wad.obj
 0001:00042b90       _W_GetLumpinfo             00443b90 f   wad.obj
 0001:00042c30       _W_GetLumpName             00443c30 f   wad.obj
 0001:00042c50       _SwapPic                   00443c50 f   wad.obj
 0001:00042c80       _SV_InitBoxHull            00443c80 f   world.obj
 0001:00042d20       _SV_HullForBox             00443d20 f   world.obj
 0001:00042d70       _SV_HullForEntity          00443d70 f   world.obj
 0001:00042ed0       _SV_CreateAreaNode         00443ed0 f   world.obj
 0001:00042ff0       _SV_ClearWorld             00443ff0 f   world.obj
 0001:00043030       _SV_UnlinkEdict            00444030 f   world.obj
 0001:00043060       _SV_TouchLinks             00444060 f   world.obj
 0001:000431b0       _SV_FindTouchedLeafs       004441b0 f   world.obj
 0001:00043280       _SV_LinkEdict              00444280 f   world.obj
 0001:00043450       _SV_PointContents          00444450 f   world.obj
 0001:00043480       _SV_TestEntityPosition     00444480 f   world.obj
 0001:000434d0       _SV_RecursiveHullCheck     004444d0 f   world.obj
 0001:00043850       _SV_ClipMoveToEntity       00444850 f   world.obj
 0001:00043950       _SV_ClipToLinks            00444950 f   world.obj
 0001:00043b80       _SV_MoveBounds             00444b80 f   world.obj
 0001:00043c00       _SV_Move                   00444c00 f   world.obj
 0001:00043cf0       _Z_ClearZone               00444cf0 f   zone.obj
 0001:00043d40       _Z_Free                    00444d40 f   zone.obj
 0001:00043df0       _Z_Malloc                  00444df0 f   zone.obj
 0001:00043e30       _Z_TagMalloc               00444e30 f   zone.obj
 0001:00043ee0       _Z_CheckHeap               00444ee0 f   zone.obj
 0001:00043f60       _Hunk_Check                00444f60 f   zone.obj
 0001:00043fd0       _Hunk_AllocName            00444fd0 f   zone.obj
 0001:00044070       _Hunk_Alloc                00445070 f   zone.obj
 0001:00044090       _Hunk_LowMark              00445090 f   zone.obj
 0001:000440a0       _Hunk_FreeToLowMark        004450a0 f   zone.obj
 0001:000440f0       _Hunk_HighMark             004450f0 f   zone.obj
 0001:00044120       _Hunk_FreeToHighMark       00445120 f   zone.obj
 0001:000441a0       _Hunk_HighAllocName        004451a0 f   zone.obj
 0001:00044270       _Hunk_TempAlloc            00445270 f   zone.obj
 0001:000442d0       _Cache_Move                004452d0 f   zone.obj
 0001:00044340       _Cache_FreeLow             00445340 f   zone.obj
 0001:00044370       _Cache_FreeHigh            00445370 f   zone.obj
 0001:000443d0       _Cache_UnlinkLRU           004453d0 f   zone.obj
 0001:00044420       _Cache_MakeLRU             00445420 f   zone.obj
 0001:00044470       _Cache_TryAlloc            00445470 f   zone.obj
 0001:000445c0       _Cache_Flush               004455c0 f   zone.obj
 0001:000445f0       _Cache_Report              004455f0 f   zone.obj
 0001:00044630       _Cache_Init                00445630 f   zone.obj
 0001:00044660       _Cache_Free                00445660 f   zone.obj
 0001:000446b0       _Cache_Check               004456b0 f   zone.obj
 0001:000446e0       _Cache_Alloc               004456e0 f   zone.obj
 0001:00044780       _Memory_Init               00445780 f   zone.obj
 0001:0004489c       _D_DrawSpans8              0044589c     d_draw.obj
 0001:00044dc5       Entry2_8                   00445dc5     d_draw.obj
 0001:00044dcf       Entry3_8                   00445dcf     d_draw.obj
 0001:00044de6       Entry4_8                   00445de6     d_draw.obj
 0001:00044e03       Entry5_8                   00445e03     d_draw.obj
 0001:00044e20       Entry6_8                   00445e20     d_draw.obj
 0001:00044e3a       Entry7_8                   00445e3a     d_draw.obj
 0001:00044e52       Entry8_8                   00445e52     d_draw.obj
 0001:00044f0f       _D_DrawZSpans              00445f0f     d_draw.obj
 0001:00045198       _D_DrawSpans16             00446198     d_draw16.obj
 0001:00045771       Entry2_16                  00446771     d_draw16.obj
 0001:0004577b       Entry3_16                  0044677b     d_draw16.obj
 0001:00045792       Entry4_16                  00446792     d_draw16.obj
 0001:000457af       Entry5_16                  004467af     d_draw16.obj
 0001:000457cc       Entry6_16                  004467cc     d_draw16.obj
 0001:000457e9       Entry7_16                  004467e9     d_draw16.obj
 0001:00045806       Entry8_16                  00446806     d_draw16.obj
 0001:00045823       Entry9_16                  00446823     d_draw16.obj
 0001:00045840       Entry10_16                 00446840     d_draw16.obj
 0001:0004585d       Entry11_16                 0044685d     d_draw16.obj
 0001:0004587a       Entry12_16                 0044687a     d_draw16.obj
 0001:00045897       Entry13_16                 00446897     d_draw16.obj
 0001:000458b4       Entry14_16                 004468b4     d_draw16.obj
 0001:000458ce       Entry15_16                 004468ce     d_draw16.obj
 0001:000458e6       Entry16_16                 004468e6     d_draw16.obj
 0001:00045a38       _D_DrawParticle            00446a38     d_parta.obj
 0001:00045bd6       DP_1x1                     00446bd6     d_parta.obj
 0001:00045be9       DP_2x2                     00446be9     d_parta.obj
 0001:00045c30       DP_3x3                     00446c30     d_parta.obj
 0001:00045cc1       DP_4x4                     00446cc1     d_parta.obj
 0001:00045dfc       _D_PolysetCalcGradients    00446dfc     d_polysa.obj
 0001:00045fce       _D_PolysetRecursiveTriangle 00446fce     d_polysa.obj
 0001:0004611a       _D_PolysetDrawSpans8       0044711a     d_polysa.obj
 0001:0004611a       _D_PolysetAff8Start        0044711a     d_polysa.obj
 0001:00046401       _D_Aff8Patch               00447401     d_polysa.obj
 0001:00046401       _D_PolysetAff8End          00447401     d_polysa.obj
 0001:00046434       _D_PolysetDraw             00447434     d_polysa.obj
 0001:0004654e       _D_PolysetScanLeftEdge     0044754e     d_polysa.obj
 0001:000466b3       _D_PolysetDrawFinalVerts   004476b3     d_polysa.obj
 0001:0004673e       _D_DrawNonSubdiv           0044773e     d_polysa.obj
 0001:000468ac       _D_DrawTurbulent8Span      004478ac     d_scana.obj
 0001:000469a4       _D_SpriteDrawSpans         004479a4     d_spr8.obj
 0001:00047008       Spr8Entry2_8               00448008     d_spr8.obj
 0001:00047015       Spr8Entry3_8               00448015     d_spr8.obj
 0001:00047020       Spr8Entry4_8               00448020     d_spr8.obj
 0001:0004702b       Spr8Entry5_8               0044802b     d_spr8.obj
 0001:00047036       Spr8Entry6_8               00448036     d_spr8.obj
 0001:0004703e       Spr8Entry7_8               0044803e     d_spr8.obj
 0001:00047044       Spr8Entry8_8               00448044     d_spr8.obj
 0001:000471c8       _Invert24To16              004481c8     math.obj
 0001:000471e2       _TransformVector           004481e2     math.obj
 0001:00047254       _BoxOnPlaneSide            00448254     math.obj
 0001:00047430       _R_Alias_clip_bottom       00448430     r_aclipa.obj
 0001:000474e8       _R_Alias_clip_top          004484e8     r_aclipa.obj
 0001:000474fe       _R_Alias_clip_right        004484fe     r_aclipa.obj
 0001:00047530       _R_Alias_clip_left         00448530     r_aclipa.obj
 0001:00047544       _R_AliasTransformAndProjectFinalVerts 00448544     r_aliasa.obj
 0001:000476cc       _R_ClipEdge                004486cc     r_drawa.obj
 0001:00047c58       _R_EdgeCodeStart           00448c58     r_edgea.obj
 0001:00047c58       _R_InsertNewEdges          00448c58     r_edgea.obj
 0001:00047cc3       _R_RemoveEdges             00448cc3     r_edgea.obj
 0001:00047cf6       _R_StepActiveU             00448cf6     r_edgea.obj
 0001:00047e21       _R_GenerateSpans           00448e21     r_edgea.obj
 0001:000480cb       _R_EdgeCodeEnd             004490cb     r_edgea.obj
 0001:000480cc       _R_SurfacePatch            004490cc     r_edgea.obj
 0001:000480ec       _SND_PaintChannelFrom8     004490ec     snd_mixa.obj
 0001:000481d4       _Snd_WriteLinearBlastStereo16 004491d4     snd_mixa.obj
 0001:00048250       _R_DrawSurfaceBlock16      00449250     surf16.obj
 0001:00048250       _R_Surf16Start             00449250     surf16.obj
 0001:0004845c       _R_Surf16End               0044945c     surf16.obj
 0001:0004845c       _R_Surf16Patch             0044945c     surf16.obj
 0001:00048478       _R_Surf8Start              00449478     surf8.obj
 0001:00048478       _R_DrawSurfaceBlock8_mip0  00449478     surf8.obj
 0001:00048634       _R_DrawSurfaceBlock8_mip1  00449634     surf8.obj
 0001:00048780       _R_DrawSurfaceBlock8_mip2  00449780     surf8.obj
 0001:0004888c       _R_DrawSurfaceBlock8_mip3  0044988c     surf8.obj
 0001:0004899a       _R_Surf8End                0044999a     surf8.obj
 0001:0004899c       _R_Surf8Patch              0044999c     surf8.obj
 0001:000489b8       _MaskExceptions            004499b8     sys_wina.obj
 0001:000489cc       _Sys_LowFPPrecision        004499cc     sys_wina.obj
 0001:000489d3       _Sys_HighFPPrecision       004499d3     sys_wina.obj
 0001:000489da       _Sys_PushFPCW_SetHigh      004499da     sys_wina.obj
 0001:000489e7       _Sys_PopFPCW               004499e7     sys_wina.obj
 0001:000489ee       _Sys_SetFPCW               004499ee     sys_wina.obj
 0001:00048a1c       _SV_HullPointContents      00449a1c     worlda.obj
 0001:00048ab0       __MGL_disableAutoPlay      00449ab0 f   mgllt:mglwin.obj
 0001:00048b2f       __MGL_restoreAutoPlay      00449b2f f   mgllt:mglwin.obj
 0001:00048bae       __DD_doSuspendApp          00449bae f   mgllt:mglwin.obj
 0001:00048def       __DD_deactivate            00449def f   mgllt:mglwin.obj
 0001:00048e90       _DD_winProc@16             00449e90 f   mgllt:mglwin.obj
 0001:00049091       _DD_subWinProc@16          0044a091 f   mgllt:mglwin.obj
 0001:000491c5       __DD_subClassWindow        0044a1c5 f   mgllt:mglwin.obj
 0001:000491fc       __DD_unsubClassWindow      0044a1fc f   mgllt:mglwin.obj
 0001:00049223       __DD_convertUserWindow     0044a223 f   mgllt:mglwin.obj
 0001:000492ad       __DD_restoreUserWindow     0044a2ad f   mgllt:mglwin.obj
 0001:00049329       __DD_setMousePos           0044a329 f   mgllt:mglwin.obj
 0001:000493ab       _MGLPC_init                0044a3ab f   mgllt:mglwin.obj
 0001:00049ee5       _MGLPC_destroyFullScreenMode 0044aee5 f   mgllt:mglwin.obj
 0001:0004a010       _MGLPC_startFullScreen     0044b010 f   mgllt:mglwin.obj
 0001:0004a120       _MGLPC_disableFullScreen   0044b120 f   mgllt:mglwin.obj
 0001:0004a14d       _MGL_fatalError            0044b14d f   mgllt:mglwin.obj
 0001:0004a17a       _MGL_createWindowedDC      0044b17a f   mgllt:mglwin.obj
 0001:0004a284       _MGL_destroyDC             0044b284 f   mgllt:mglwin.obj
 0001:0004a3f1       _MGL_activatePalette       0044b3f1 f   mgllt:mglwin.obj
 0001:0004a495       _MGL_setWinDC              0044b495 f   mgllt:mglwin.obj
 0001:0004a501       __MGL_allocateDIB          0044b501 f   mgllt:mglwin.obj
 0001:0004a6ea       __MGL_freeDIB              0044b6ea f   mgllt:mglwin.obj
 0001:0004a7b8       _MGL_initWindowed          0044b7b8 f   mgllt:mglwin.obj
 0001:0004ab99       _MGL_changeDisplayMode     0044bb99 f   mgllt:mglwin.obj
 0001:0004ac3a       _MGL_init                  0044bc3a f   mgllt:mglwin.obj
 0001:0004ace2       _MGL_exit                  0044bce2 f   mgllt:mglwin.obj
 0001:0004adeb       _MGL_appActivate           0044bdeb f   mgllt:mglwin.obj
 0001:0004ae96       _MGL_setPaletteSnowLevel   0044be96 f   mgllt:mglwin.obj
 0001:0004aed7       _MGL_getPaletteSnowLevel   0044bed7 f   mgllt:mglwin.obj
 0001:0004af0a       _MGL_beep                  0044bf0a f   mgllt:mglwin.obj
 0001:0004af1d       _MGL_delay                 0044bf1d f   mgllt:mglwin.obj
 0001:0004af4b       _MGL_getTicks              0044bf4b f   mgllt:mglwin.obj
 0001:0004af61       _MGL_getTickResolution     0044bf61 f   mgllt:mglwin.obj
 0001:0004af76       _MGL_setSuspendAppCallback 0044bf76 f   mgllt:mglwin.obj
 0001:0004af89       _MGL_setMainWindow         0044bf89 f   mgllt:mglwin.obj
 0001:0004af9c       _MGL_setAppInstance        0044bf9c f   mgllt:mglwin.obj
 0001:0004afaf       _MGL_registerFullScreenWindow 0044bfaf f   mgllt:mglwin.obj
 0001:0004afc2       _MGL_registerEventProc     0044bfc2 f   mgllt:mglwin.obj
 0001:0004afd5       _MGL_getFullScreenWindow   0044bfd5 f   mgllt:mglwin.obj
 0001:0004afea       _MGL_getWinDC              0044bfea f   mgllt:mglwin.obj
 0001:0004b00a       _PM_getByte                0044c00a f   mgllt:mglwin.obj
 0001:0004b030       _PM_getWord                0044c030 f   mgllt:mglwin.obj
 0001:0004b056       _PM_getLong                0044c056 f   mgllt:mglwin.obj
 0001:0004b07c       _PM_setByte                0044c07c f   mgllt:mglwin.obj
 0001:0004b0a1       _PM_setWord                0044c0a1 f   mgllt:mglwin.obj
 0001:0004b0c6       _PM_setLong                0044c0c6 f   mgllt:mglwin.obj
 0001:0004b0eb       _PM_memcpynf               0044c0eb f   mgllt:mglwin.obj
 0001:0004b114       _PM_memcpyfn               0044c114 f   mgllt:mglwin.obj
 0001:0004b13d       _PM_getBIOSSelector        0044c13d f   mgllt:mglwin.obj
 0001:0004b158       _PM_createSelector         0044c158 f   mgllt:mglwin.obj
 0001:0004b17e       _PM_freeSelector           0044c17e f   mgllt:mglwin.obj
 0001:0004b19b       _PM_mapPhysicalAddr        0044c19b f   mgllt:mglwin.obj
 0001:0004b1c1       _PM_mapRealPointer         0044c1c1 f   mgllt:mglwin.obj
 0001:0004b1ea       _PM_allocRealSeg           0044c1ea f   mgllt:mglwin.obj
 0001:0004b21c       _PM_freeRealSeg            0044c21c f   mgllt:mglwin.obj
 0001:0004b23d       _PM_callRealMode           0044c23d f   mgllt:mglwin.obj
 0001:0004b266       _PM_int86                  0044c266 f   mgllt:mglwin.obj
 0001:0004b290       _PM_int86x                 0044c290 f   mgllt:mglwin.obj
 0001:0004b2be       _PM_availableMemory        0044c2be f   mgllt:mglwin.obj
 0001:0004b2df       _VF_available              0044c2df f   mgllt:mglwin.obj
 0001:0004b2fa       _VF_init                   0044c2fa f   mgllt:mglwin.obj
 0001:0004b328       _VF_exit                   0044c328 f   mgllt:mglwin.obj
 0001:0004b33e       __PM_getRMvect             0044c33e f   mgllt:mglwin.obj
 0001:0004b35f       __PM_setRMvect             0044c35f f   mgllt:mglwin.obj
 0001:0004b380       _PM_setBankA               0044c380 f   mgllt:mglwin.obj
 0001:0004b398       _PM_setBankAB              0044c398 f   mgllt:mglwin.obj
 0001:0004b3b0       _PM_setCRTStart            0044c3b0 f   mgllt:mglwin.obj
 0001:0004b3d0       __MGL_scratchTooSmall      0044c3d0 f   mgllt:mgraph.obj
 0001:0004b3e8       _MGL_result                0044c3e8 f   mgllt:mgraph.obj
 0001:0004b410       _MGL_setResult             0044c410 f   mgllt:mgraph.obj
 0001:0004b423       _MGL_errorMsg              0044c423 f   mgllt:mgraph.obj
 0001:0004b45c       _MGL_makeCurrentDC         0044c45c f   mgllt:mgraph.obj
 0001:0004b50d       _MGL_isCurrentDC           0044c50d f   mgllt:mgraph.obj
 0001:0004b538       __MGL_updateCurrentDC      0044c538 f   mgllt:mgraph.obj
 0001:0004b566       _MGL_registerDriver        0044c566 f   mgllt:mgraph.obj
 0001:0004b687       _MGL_unregisterAllDrivers  0044c687 f   mgllt:mgraph.obj
 0001:0004b6d9       _MGL_detectGraph           0044c6d9 f   mgllt:mgraph.obj
 0001:0004b863       __MGL_initDC               0044c863 f   mgllt:mgraph.obj
 0001:0004ba04       _MGL_createScrollingDC     0044ca04 f   mgllt:mgraph.obj
 0001:0004bc5e       _MGL_createDisplayDC       0044cc5e f   mgllt:mgraph.obj
 0001:0004bc7e       __MGL_destroyDisplayDC     0044cc7e f   mgllt:mgraph.obj
 0001:0004bda1       _MGL_createMemoryDC        0044cda1 f   mgllt:mgraph.obj
 0001:0004bfe6       __MGL_destroyMemoryDC      0044cfe6 f   mgllt:mgraph.obj
 0001:0004c09b       _MGL_availableModes        0044d09b f   mgllt:mgraph.obj
 0001:0004c0b0       _MGL_availablePages        0044d0b0 f   mgllt:mgraph.obj
 0001:0004c0ec       _MGL_modeResolution        0044d0ec f   mgllt:mgraph.obj
 0001:0004ca0c       __MGL_fileSize             0044da0c f   mgllt:mgraph.obj
 0001:0004ca66       _MGL_makeSubDC             0044da66 f   mgllt:mgraph.obj
 0001:0004cbce       __MGL_findFile             0044dbce f   mgllt:mgraph.obj
 0001:0004cd83       __MGL_openFile             0044dd83 f   mgllt:mgraph.obj
 0001:0004cdd7       _MGL_driverName            0044ddd7 f   mgllt:mgraph.obj
 0001:0004ce14       _MGL_modeName              0044de14 f   mgllt:mgraph.obj
 0001:0004ce51       _MGL_modeDriverName        0044de51 f   mgllt:mgraph.obj
 0001:0004cec1       _MGL_setBufSize            0044dec1 f   mgllt:mgraph.obj
 0001:0004ced4       _MGL_isDisplayDC           0044ded4 f   mgllt:mgraph.obj
 0001:0004cf00       _MGL_isWindowedDC          0044df00 f   mgllt:mgraph.obj
 0001:0004cf2c       _MGL_isMemoryDC            0044df2c f   mgllt:mgraph.obj
 0001:0004cf58       _MGL_surfaceAccessType     0044df58 f   mgllt:mgraph.obj
 0001:0004cf74       _MGL_zbufferAccessType     0044df74 f   mgllt:mgraph.obj
 0001:0004cf90       _MGL_getHardwareFlags      0044df90 f   mgllt:mgraph.obj
 0001:0004cfae       __MGL_computePF            0044dfae f   mgllt:mgraph.obj
 0001:0004d10c       _MGL_setACCELDriver        0044e10c f   mgllt:mgraph.obj
 0001:0004d11f       _MGL_setFileIO             0044e11f f   mgllt:mgraph.obj
 0001:0004d1c0       _DDRAW8_detect             0044e1c0 f   mgllt:ddraw8.obj
 0001:0004d3ae       _DDRAW8_initInternal       0044e3ae f   mgllt:ddraw8.obj
 0001:0004d42b       _DDRAW8_initDriver         0044e42b f   mgllt:ddraw8.obj
 0001:0004d630       _ACCEL8_detect             0044e630 f   mgllt:accel8.obj
 0001:0004d81e       _ACCEL8_initInternal       0044e81e f   mgllt:accel8.obj
 0001:0004d89b       _ACCEL8_initDriver         0044e89b f   mgllt:accel8.obj
 0001:0004da90       _LINEAR8_detect            0044ea90 f   mgllt:linear8.obj
 0001:0004dc91       _LINEAR8_initInternal      0044ec91 f   mgllt:linear8.obj
 0001:0004dd0e       _LINEAR8_initDriver        0044ed0e f   mgllt:linear8.obj
 0001:0004df10       _VGA8_detect               0044ef10 f   mgllt:vga8.obj
 0001:0004df61       _VGA8_initDriver           0044ef61 f   mgllt:vga8.obj
 0001:0004e14f       _VGA8_restoreGraphMode     0044f14f f   mgllt:vga8.obj
 0001:0004e18c       _VGA8_restoreTextMode      0044f18c f   mgllt:vga8.obj
 0001:0004e1bf       _VGA8_getDefaultPalette    0044f1bf f   mgllt:vga8.obj
 0001:0004e1e0       _PACKED8_realizePalette    0044f1e0 f   mgllt:pack8.obj
 0001:0004e3b6       _PACKED8_initInternal      0044f3b6 f   mgllt:pack8.obj
 0001:0004e4f1       _PACKED8_initDriver        0044f4f1 f   mgllt:pack8.obj
 0001:0004e7eb       _PACKED8_setColor          0044f7eb f   mgllt:pack8.obj
 0001:0004e81c       _PACKED8_setBackColor      0044f81c f   mgllt:pack8.obj
 0001:0004e84d       _PACKED8_divotSize         0044f84d f   mgllt:pack8.obj
 0001:0004e87a       _PACKED8_stretchScanLine2x 0044f87a f   mgllt:pack8.obj
 0001:0004e8df       _PACKED8_stretchScanLine   0044f8df f   mgllt:pack8.obj
 0001:0004e95b       _PACKED8_putMouseImage     0044f95b f   mgllt:pack8.obj
 0001:0004ea83       _PACKED8_getImage          0044fa83 f   mgllt:pack8.obj
 0001:0004ec15       _PACKED8_stretchBlt1x2     0044fc15 f   mgllt:pack8.obj
 0001:0004ed93       _PACKED8_stretchBlt        0044fd93 f   mgllt:pack8.obj
 0001:0004ef70       _MGL_setViewport           0044ff70 f   mgllt:viewport.obj
 0001:0004f02f       _MGL_setViewportDC         0045002f f   mgllt:viewport.obj
 0001:0004f1ab       _MGL_setRelViewport        004501ab f   mgllt:viewport.obj
 0001:0004f1ee       _MGL_setRelViewportDC      004501ee f   mgllt:viewport.obj
 0001:0004f245       _MGL_setViewportOrg        00450245 f   mgllt:viewport.obj
 0001:0004f292       _MGL_setViewportOrgDC      00450292 f   mgllt:viewport.obj
 0001:0004f385       _MGL_getViewportOrg        00450385 f   mgllt:viewport.obj
 0001:0004f3a7       _MGL_getViewportOrgDC      004503a7 f   mgllt:viewport.obj
 0001:0004f3f1       _MGL_getViewport           004503f1 f   mgllt:viewport.obj
 0001:0004f41f       _MGL_getViewportDC         0045041f f   mgllt:viewport.obj
 0001:0004f482       _MGL_globalToLocal         00450482 f   mgllt:viewport.obj
 0001:0004f4ac       _MGL_globalToLocalDC       004504ac f   mgllt:viewport.obj
 0001:0004f50f       _MGL_localToGlobal         0045050f f   mgllt:viewport.obj
 0001:0004f52f       _MGL_localToGlobalDC       0045052f f   mgllt:viewport.obj
 0001:0004f580       _MGL_sizex                 00450580 f   mgllt:viewport.obj
 0001:0004f5a3       _MGL_sizey                 004505a3 f   mgllt:viewport.obj
 0001:0004f5c6       _MGL_maxx                  004505c6 f   mgllt:viewport.obj
 0001:0004f5e2       _MGL_maxxDC                004505e2 f   mgllt:viewport.obj
 0001:0004f62a       _MGL_maxy                  0045062a f   mgllt:viewport.obj
 0001:0004f646       _MGL_maxyDC                00450646 f   mgllt:viewport.obj
 0001:0004f68e       _MGL_clearDevice           0045068e f   mgllt:viewport.obj
 0001:0004f70b       _MGL_clearViewport         0045070b f   mgllt:viewport.obj
 0001:0004f76e       _MGL_setClipRect           0045076e f   mgllt:viewport.obj
 0001:0004f81f       _MGL_setClipRectDC         0045081f f   mgllt:viewport.obj
 0001:0004f9b6       _MGL_getClipRect           004509b6 f   mgllt:viewport.obj
 0001:0004f9e4       _MGL_getClipRectDC         004509e4 f   mgllt:viewport.obj
 0001:0004fa47       _MGL_setClipMode           00450a47 f   mgllt:viewport.obj
 0001:0004fabd       _MGL_setClipModeDC         00450abd f   mgllt:viewport.obj
 0001:0004fbaa       _MGL_getClipMode           00450baa f   mgllt:viewport.obj
 0001:0004fbbf       _MGL_getClipModeDC         00450bbf f   mgllt:viewport.obj
 0001:0004fc00       _MGL_getBitsPerPixel       00450c00 f   mgllt:devctx.obj
 0001:0004fc19       _MGL_maxColor              00450c19 f   mgllt:devctx.obj
 0001:0004fc32       _MGL_maxPage               00450c32 f   mgllt:devctx.obj
 0001:0004fc4b       _MGL_getColor              00450c4b f   mgllt:devctx.obj
 0001:0004fc60       _MGL_getBackColor          00450c60 f   mgllt:devctx.obj
 0001:0004fc75       _MGL_setAspectRatio        00450c75 f   mgllt:devctx.obj
 0001:0004fc88       _MGL_getAspectRatio        00450c88 f   mgllt:devctx.obj
 0001:0004fc9d       _MGL_defaultColor          00450c9d f   mgllt:devctx.obj
 0001:0004fcbc       _MGL_getDriver             00450cbc f   mgllt:devctx.obj
 0001:0004fcef       _MGL_getMode               00450cef f   mgllt:devctx.obj
 0001:0004fd22       _MGL_getActivePage         00450d22 f   mgllt:devctx.obj
 0001:0004fd55       _MGL_getVisualPage         00450d55 f   mgllt:devctx.obj
 0001:0004fd88       _MGL_setActivePage         00450d88 f   mgllt:devctx.obj
 0001:0004fde4       _MGL_setVisualPage         00450de4 f   mgllt:devctx.obj
 0001:0004fe44       _MGL_setDisplayStart       00450e44 f   mgllt:devctx.obj
 0001:0004fe83       _MGL_getDisplayStart       00450e83 f   mgllt:devctx.obj
 0001:0004feba       _MGL_vSync                 00450eba f   mgllt:devctx.obj
 0001:0004fee8       _MGL_haveWidePalette       00450ee8 f   mgllt:devctx.obj
 0001:0004ff1b       _MGL_doubleBuffer          00450f1b f   mgllt:devctx.obj
 0001:0004ff72       _MGL_singleBuffer          00450f72 f   mgllt:devctx.obj
 0001:0004ff96       _MGL_swapBuffers           00450f96 f   mgllt:devctx.obj
 0001:0004fff1       __MGL_setRenderingVectors  00450ff1 f   mgllt:devctx.obj
 0001:00050224       _MGL_getAttributes         00451224 f   mgllt:devctx.obj
 0001:0005024c       _MGL_restoreAttributes     0045124c f   mgllt:devctx.obj
 0001:000502d1       _MGL_defaultAttributes     004512d1 f   mgllt:devctx.obj
 0001:000504c5       _MGL_packColorRGB          004514c5 f   mgllt:devctx.obj
 0001:000504ee       _MGL_unpackColor           004514ee f   mgllt:devctx.obj
 0001:0005055e       _MGL_unpackColorRGB        0045155e f   mgllt:devctx.obj
 0001:00050581       _MGL_getPixelFormat        00451581 f   mgllt:devctx.obj
 0001:0005059f       _MGL_computePixelAddr      0045159f f   mgllt:devctx.obj
 0001:000505e0       _MGL_setColor              004515e0     mgllt:_stubs.obj
 0001:000505e6       _MGL_setBackColor          004515e6     mgllt:_stubs.obj
 0001:000505ec       _MGL_beginDirectAccess     004515ec     mgllt:_stubs.obj
 0001:000505f2       _MGL_endDirectAccess       004515f2     mgllt:_stubs.obj
 0001:000505f8       _MGL_beginDrawing          004515f8     mgllt:_stubs.obj
 0001:000505fe       _MGL_endDrawing            004515fe     mgllt:_stubs.obj
 0001:00050604       _MGL_scanLine              00451604     mgllt:_stubs.obj
 0001:00050610       _MGL_realColor             00451610 f   mgllt:palette.obj
 0001:0005065c       _MGL_rgbColor              0045165c f   mgllt:palette.obj
 0001:000507ba       _MGL_setColorRGB           004517ba f   mgllt:palette.obj
 0001:00050875       _MGL_setColorCI            00451875 f   mgllt:palette.obj
 0001:000508c4       _MGL_setPaletteEntry       004518c4 f   mgllt:palette.obj
 0001:00050949       _MGL_getPaletteEntry       00451949 f   mgllt:palette.obj
 0001:000509ce       _MGL_setPalette            004519ce f   mgllt:palette.obj
 0001:00050aad       _MGL_getPalette            00451aad f   mgllt:palette.obj
 0001:00050b5b       _MGL_getPaletteSize        00451b5b f   mgllt:palette.obj
 0001:00050b97       _MGL_getDefaultPalette     00451b97 f   mgllt:palette.obj
 0001:00050be2       _MGL_realizePalette        00451be2 f   mgllt:palette.obj
 0001:00050c26       _MGL_setDefaultPalette     00451c26 f   mgllt:palette.obj
 0001:00050c70       __MGL_bytesPerLine         00451c70 f   mgllt:bitblt.obj
 0001:00050d53       _MGL_bitBltCoord           00451d53 f   mgllt:bitblt.obj
 0001:000510d9       _MGL_stretchBltCoord       004520d9 f   mgllt:bitblt.obj
 0001:000515f0       __MS_sizeScreen            004525f0 f   mgllt:mouse.obj
 0001:000515fb       __MS_setDisplayDC          004525fb f   mgllt:mouse.obj
 0001:00051750       _MS_drawCursor             00452750 f   mgllt:mouse.obj
 0001:00051795       __MS_moveCursor            00452795 f   mgllt:mouse.obj
 0001:000519ef       __MS_displayStartChanged   004529ef f   mgllt:mouse.obj
 0001:00051a0e       __MS_preChangeVisualPage   00452a0e f   mgllt:mouse.obj
 0001:00051aa3       __MS_postChangeVisualPage  00452aa3 f   mgllt:mouse.obj
 0001:00051b33       __MS_saveCursor            00452b33 f   mgllt:mouse.obj
 0001:00051b4d       __MS_restoreCursor         00452b4d f   mgllt:mouse.obj
 0001:00051bda       __MS_saveState             00452bda f   mgllt:mouse.obj
 0001:00051bf5       __MS_restoreState          00452bf5 f   mgllt:mouse.obj
 0001:00051c0f       _MS_available              00452c0f f   mgllt:mouse.obj
 0001:00051c24       _MS_show                   00452c24 f   mgllt:mouse.obj
 0001:00051d52       _MS_hide                   00452d52 f   mgllt:mouse.obj
 0001:00051e1e       _MS_moveTo                 00452e1e f   mgllt:mouse.obj
 0001:00051e7c       _MS_getPos                 00452e7c f   mgllt:mouse.obj
 0001:00051eca       _MS_obscure                00452eca f   mgllt:mouse.obj
 0001:00051f09       _MS_setCursor              00452f09 f   mgllt:mouse.obj
 0001:00051f69       _MS_setCursorColor         00452f69 f   mgllt:mouse.obj
 0001:00051fc0       __LST_newNode              00452fc0 f   mgllt:list.obj
 0001:00052008       __LST_freeNode             00453008 f   mgllt:list.obj
 0001:0005202c       __LST_create               0045302c f   mgllt:list.obj
 0001:000520ae       __LST_destroy              004530ae f   mgllt:list.obj
 0001:00052102       __LST_addAfter             00453102 f   mgllt:list.obj
 0001:00052139       __LST_removeNext           00453139 f   mgllt:list.obj
 0001:00052174       __LST_first                00453174 f   mgllt:list.obj
 0001:000521ae       __LST_next                 004531ae f   mgllt:list.obj
 0001:000521ed       __LST_findNode             004531ed f   mgllt:list.obj
 0001:00052250       _DDRAW_detect              00453250 f   mgllt:gddraw.obj
 0001:00052560       _DDRAW_useMode             00453560 f   mgllt:gddraw.obj
 0001:00052691       __DD_enumerateSurfaces     00453691 f   mgllt:gddraw.obj
 0001:0005291c       _DDRAW_setMode             0045391c f   mgllt:gddraw.obj
 0001:000537d1       _DDRAW_setAccelVectors     004547d1 f   mgllt:gddraw.obj
 0001:00053927       _DDRAW_restoreTextMode     00454927 f   mgllt:gddraw.obj
 0001:0005398a       _DDRAW_setActivePage       0045498a f   mgllt:gddraw.obj
 0001:00053ac9       _DDRAW_setVisualPage       00454ac9 f   mgllt:gddraw.obj
 0001:00053c94       _DDRAW_realizePalette      00454c94 f   mgllt:gddraw.obj
 0001:00053d90       _DDRAW_beginDrawing        00454d90 f   mgllt:gddraw.obj
 0001:00053dcb       _DDRAW_endDrawing          00454dcb f   mgllt:gddraw.obj
 0001:00053e00       _DDRAW_beginDirectAccess   00454e00 f   mgllt:gddraw.obj
 0001:00053e3b       _DDRAW_endDirectAccess     00454e3b f   mgllt:gddraw.obj
 0001:00053e70       _DDRAW_beginPixel          00454e70 f   mgllt:gddraw.obj
 0001:00053eab       _DDRAW_endPixel            00454eab f   mgllt:gddraw.obj
 0001:00053ee0       _DDRAW_getDefaultPalette   00454ee0 f   mgllt:gddraw.obj
 0001:00053ef5       _DDRAW_fillRect            00454ef5 f   mgllt:gddraw.obj
 0001:00053f5c       _DDRAW_ropFillRect         00454f5c f   mgllt:gddraw.obj
 0001:00054010       _EVT_getNext               00455010 f   mgllt:event.obj
 0001:0005458f       _EVT_peekNext              0045558f f   mgllt:event.obj
 0001:00054646       _EVT_post                  00455646 f   mgllt:event.obj
 0001:0005469e       _EVT_flush                 0045569e f   mgllt:event.obj
 0001:000546c6       _EVT_halt                  004556c6 f   mgllt:event.obj
 0001:000546f1       _EVT_setTimerTick          004556f1 f   mgllt:event.obj
 0001:00054757       _EVT_isKeyDown             00455757 f   mgllt:event.obj
 0001:0005478a       __EVT_init                 0045578a f   mgllt:event.obj
 0001:00054850       _WINDC_noZbuf              00455850 f   mgllt:windc.obj
 0001:00054862       _WINDC_initDriver          00455862 f   mgllt:windc.obj
 0001:00054e22       _WINDC_getDefaultPalette   00455e22 f   mgllt:windc.obj
 0001:00054f1a       _WINDC_realizePalette      00455f1a f   mgllt:windc.obj
 0001:000554ac       _WINDC_putImage            004564ac f   mgllt:windc.obj
 0001:00055573       _WINDC_translateImage      00456573 f   mgllt:windc.obj
 0001:000555b2       _WINDC_stretchBlt1x2       004565b2 f   mgllt:windc.obj
 0001:000555f7       _WINDC_stretchBlt2x2       004565f7 f   mgllt:windc.obj
 0001:0005563c       _WINDC_stretchBlt          0045663c f   mgllt:windc.obj
 0001:00055770       __MGL_initMalloc           00456770 f   mgllt:memset.obj
 0001:0005578f       _MGL_availableMemory       0045678f f   mgllt:memset.obj
 0001:000557ab       _MGL_useLocalMalloc        004567ab f   mgllt:memset.obj
 0001:000557c6       _MGL_memset                004567c6 f   mgllt:memset.obj
 0001:000557e5       _MGL_memsetw               004567e5 f   mgllt:memset.obj
 0001:00055804       _MGL_memsetl               00456804 f   mgllt:memset.obj
 0001:00055823       _MGL_malloc                00456823 f   mgllt:memset.obj
 0001:00055840       _MGL_calloc                00456840 f   mgllt:memset.obj
 0001:0005587f       _MGL_free                  0045687f f   mgllt:memset.obj
 0001:000558a0       _DRV_stub                  004568a0 f   mgllt:common.obj
 0001:000558ab       __MGL_setCommonVectors     004568ab f   mgllt:common.obj
 0001:00055af0       __MGL_setLineVecs          00456af0 f   mgllt:common.obj
 0001:00055b67       __MGL_setScanLineVecs      00456b67 f   mgllt:common.obj
 0001:00055bde       __MGL_setFillRectVecs      00456bde f   mgllt:common.obj
 0001:00055c55       _DRV_getWinDC              00456c55 f   mgllt:common.obj
 0001:00055c67       _PACKED_getWinDC           00456c67 f   mgllt:common.obj
 0001:00055c80       _FULLSCREEN_getWinDC       00456c80 f   mgllt:common.obj
 0001:00055f3c       _FULLSCREEN_destroyHDC     00456f3c f   mgllt:common.obj
 0001:00055f57       _DRV_setColor              00456f57 f   mgllt:common.obj
 0001:00055f74       _DRV_setBackColor          00456f74 f   mgllt:common.obj
 0001:00055f91       _DRV_setClipRect           00456f91 f   mgllt:common.obj
 0001:00056179       _DRV_getDefaultPalette     00457179 f   mgllt:common.obj
 0001:0005618b       __MGL_getOriginOffset      0045718b f   mgllt:common.obj
 0001:000561a4       __MGL_getBankOffset        004571a4 f   mgllt:common.obj
 0001:000561c0       __MGL_getDefCursor         004571c0 f   mgllt:cursor.obj
 0001:000561d5       _MGL_loadCursor            004571d5 f   mgllt:cursor.obj
 0001:00056493       _MGL_availableCursor       00457493 f   mgllt:cursor.obj
 0001:000564e6       _MGL_unloadCursor          004574e6 f   mgllt:cursor.obj
 0001:00056510       _ACCEL_detect              00457510 f   mgllt:gaccel.obj
 0001:00056730       _ACCEL_useMode             00457730 f   mgllt:gaccel.obj
 0001:00056a04       _ACCEL_saveVideoMemory     00457a04 f   mgllt:gaccel.obj
 0001:00056d37       _ACCEL_restoreVideoMemory  00457d37 f   mgllt:gaccel.obj
 0001:00056f13       _ACCEL_setMode             00457f13 f   mgllt:gaccel.obj
 0001:000575e6       _ACCEL_restoreTextMode     004585e6 f   mgllt:gaccel.obj
 0001:00057630       _ACCEL_restoreGraphMode    00458630 f   mgllt:gaccel.obj
 0001:0005767f       _ACCEL_setActivePage       0045867f f   mgllt:gaccel.obj
 0001:0005775a       _ACCEL_setVisualPage       0045875a f   mgllt:gaccel.obj
 0001:000577a6       _ACCEL_setDisplayStart     004587a6 f   mgllt:gaccel.obj
 0001:000577f3       _ACCEL_realizePalette      004587f3 f   mgllt:gaccel.obj
 0001:0005785c       _ACCEL_setCursor           0045885c f   mgllt:gaccel.obj
 0001:00057879       _ACCEL_setCursorPos        00458879 f   mgllt:gaccel.obj
 0001:0005789a       _ACCEL_showCursor          0045889a f   mgllt:gaccel.obj
 0001:000578b7       _ACCEL_setCursorColor      004588b7 f   mgllt:gaccel.obj
 0001:00057985       _ACCEL_setClipRect         00458985 f   mgllt:gaccel.obj
 0001:000579f4       __MGL_getAFDC              004589f4 f   mgllt:gaccel.obj
 0001:00057a10       _VBE_initRMBuf             00458a10 f   mgllt:svga.obj
 0001:00057a41       _SVGA_detect               00458a41 f   mgllt:svga.obj
 0001:00057cbe       _SVGA_useMode              00458cbe f   mgllt:svga.obj
 0001:00057fbd       _SVGALIN_useMode           00458fbd f   mgllt:svga.obj
 0001:00058053       _SVGA_saveVideoMemory      00459053 f   mgllt:svga.obj
 0001:00058451       _SVGA_restoreVideoMemory   00459451 f   mgllt:svga.obj
 0001:000586f8       _SVGA_setMode              004596f8 f   mgllt:svga.obj
 0001:00058c40       _SVGA_setVirtualValues     00459c40 f   mgllt:svga.obj
 0001:00058d13       _SVGA_restoreTextMode      00459d13 f   mgllt:svga.obj
 0001:00058d74       _SVGA_restoreGraphMode     00459d74 f   mgllt:svga.obj
 0001:00058dc3       _SVGA_setActivePage        00459dc3 f   mgllt:svga.obj
 0001:00058e59       _SVGALIN_setActivePage     00459e59 f   mgllt:svga.obj
 0001:00058eef       _SVGA_setVisualPage        00459eef f   mgllt:svga.obj
 0001:00058fa9       _SVGA_setDisplayStart      00459fa9 f   mgllt:svga.obj
 0001:0005912c       _SVGA_realizePalette       0045a12c f   mgllt:svga.obj
 0001:000592f5       _SVGA_vSync                0045a2f5 f   mgllt:svga.obj
 0001:0005933c       _SVGA_getDefaultPalette    0045a33c f   mgllt:svga.obj
 0001:00059360       _VGA_detect                0045a360 f   mgllt:vga.obj
 0001:00059413       _VGA_useMode               0045a413 f   mgllt:vga.obj
 0001:00059473       _VGA_setMode               0045a473 f   mgllt:vga.obj
 0001:000596ae       _VGA_restoreMode           0045a6ae f   mgllt:vga.obj
 0001:000597e3       _VGA_setActivePage         0045a7e3 f   mgllt:vga.obj
 0001:00059879       _VGA_setVisualPage         0045a879 f   mgllt:vga.obj
 0001:000598cd       _VGA_realizePalette        0045a8cd f   mgllt:vga.obj
 0001:000599fe       _PACKED8_getPixel          0045a9fe     mgllt:_pack8.obj
 0001:00059a22       _PACKED8_putPixel          0045aa22     mgllt:_pack8.obj
 0001:00059a6b       _PACKED8_getScanLine       0045aa6b     mgllt:_pack8.obj
 0001:00059aee       _PACKED8_putScanLine       0045aaee     mgllt:_pack8.obj
 0001:00059b45       _PACKED8_line              0045ab45     mgllt:_pack8.obj
 0001:00059d78       _PACKED8_solidScanLine     0045ad78     mgllt:_pack8.obj
 0001:00059dd4       _PACKED8_ropSolidScanLine  0045add4     mgllt:_pack8.obj
 0001:00059e2c       _PACKED8_solidFillRect     0045ae2c     mgllt:_pack8.obj
 0001:00059e92       _PACKED8_putMonoImage      0045ae92     mgllt:_pack8.obj
 0001:0005a100       _PACKED8_putImage          0045b100     mgllt:_pack8.obj
 0001:0005a1d2       _PACKED8_getDivot          0045b1d2     mgllt:_pack8.obj
 0001:0005a233       _PACKED8_putDivot          0045b233     mgllt:_pack8.obj
 0001:0005a272       _PACKED8_stretchBlt2x2     0045b272     mgllt:_pack8.obj
 0001:0005a38b       _PACKED8_stretchScan       0045b38b     mgllt:_pack8.obj
 0001:0005a3c0       ___EMU__fillRect           0045b3c0 f   mgllt:em_fillr.obj
 0001:0005a410       __MGL_memset               0045b410     mgllt:_memset.obj
 0001:0005a44a       __MGL_memsetw              0045b44a     mgllt:_memset.obj
 0001:0005a480       __MGL_memsetl              0045b480     mgllt:_memset.obj
 0001:0005a498       _MGL_memcpy                0045b498     mgllt:_memset.obj
 0001:0005a4bc       _MGL_memcpyVIRTSRC         0045b4bc     mgllt:_memset.obj
 0001:0005a4ec       _MGL_memcpyVIRTDST         0045b4ec     mgllt:_memset.obj
 0001:0005a520       ___EMU__stretchBlt1x2      0045b520 f   mgllt:em_sblt.obj
 0001:0005a61b       ___EMU__stretchBlt2x2      0045b61b f   mgllt:em_sblt.obj
 0001:0005a70b       ___EMU__stretchBlt         0045b70b f   mgllt:em_sblt.obj
 0001:0005a880       _MGL_packColor             0045b880     mgllt:_devctx.obj
 0001:0005a8c8       _MGL_FixMul                0045b8c8     mgllt:_fix32.obj
 0001:0005a8dd       _MGL_FixDiv                0045b8dd     mgllt:_fix32.obj
 0001:0005a8ef       _MGL_ZFixDiv               0045b8ef     mgllt:_fix32.obj
 0001:0005a917       _MGL_FixMulDiv             0045b917     mgllt:_fix32.obj
 0001:0005a924       _MGL_backfacing            0045b924     mgllt:_fix32.obj
 0001:0005a948       _DDSTUB_putMonoImage       0045b948     mgllt:_ddstubs.obj
 0001:0005a972       _DDSTUB_putImage           0045b972     mgllt:_ddstubs.obj
 0001:0005a9ab       _DDSTUB_getDivot           0045b9ab     mgllt:_ddstubs.obj
 0001:0005a9d5       _DDSTUB_putDivot           0045b9d5     mgllt:_ddstubs.obj
 0001:0005a9f3       _DDSTUB_stretchBlt1x2      0045b9f3     mgllt:_ddstubs.obj
 0001:0005aa29       _DDSTUB_stretchBlt2x2      0045ba29     mgllt:_ddstubs.obj
 0001:0005aa5f       _DDSTUB_stretchBlt         0045ba5f     mgllt:_ddstubs.obj
 0001:0005aaa0       __AF_callRealMode_C        0045baa0 f   mgllt:vbeaf.obj
 0001:0005ab82       __AF_int86_C               0045bb82 f   mgllt:vbeaf.obj
 0001:0005ac5c       __AF_initInternal          0045bc5c f   mgllt:vbeaf.obj
 0001:0005b01a       _AF_loadDriver             0045c01a f   mgllt:vbeaf.obj
 0001:0005b300       _AF_unloadDriver           0045c300 f   mgllt:vbeaf.obj
 0001:0005b317       _AF_getBankFunc32          0045c317 f   mgllt:vbeaf.obj
 0001:0005b3cc       _AF_getStateBufferSize     0045c3cc f   mgllt:vbeaf.obj
 0001:0005b41c       _AF_saveHardwareState      0045c41c f   mgllt:vbeaf.obj
 0001:0005b463       _AF_restoreHardwareState   0045c463 f   mgllt:vbeaf.obj
 0001:0005b4aa       _AF_OEMExt                 0045c4aa f   mgllt:vbeaf.obj
 0001:0005b4e4       _AF_SupplementalExt        0045c4e4 f   mgllt:vbeaf.obj
 0001:0005b51e       _AF_PMdetect               0045c51e f   mgllt:vbeaf.obj
 0001:0005b580       _AF_PMsetState             0045c580 f   mgllt:vbeaf.obj
 0001:0005b5b1       _AF_PMgetState             0045c5b1 f   mgllt:vbeaf.obj
 0001:0005b5ed       _AF_DDCdetect              0045c5ed f   mgllt:vbeaf.obj
 0001:0005b652       _AF_DDCreadEDID            0045c652 f   mgllt:vbeaf.obj
 0001:0005b6ad       _AF_DDCreadVDIF            0045c6ad f   mgllt:vbeaf.obj
 0001:0005b708       _AF_status                 0045c708 f   mgllt:vbeaf.obj
 0001:0005b71d       _AF_errorMsg               0045c71d f   mgllt:vbeaf.obj
 0001:0005b788       __AF_int86                 0045c788     mgllt:_vbeaf.obj
 0001:0005b796       __AF_callRealMode          0045c796     mgllt:_vbeaf.obj
 0001:0005b7a0       __AF_initDriver            0045c7a0     mgllt:_vbeaf.obj
 0001:0005b7b4       __AF_plugAndPlayInit       0045c7b4     mgllt:_vbeaf.obj
 0001:0005b7c8       __AF_callFuncASM           0045c7c8     mgllt:_vbeaf.obj
 0001:0005b810       _AF_getVideoModeInfo       0045c810     mgllt:_vbeaf.obj
 0001:0005b829       _AF_setVideoMode           0045c829     mgllt:_vbeaf.obj
 0001:0005b84c       _AF_setVirtualVideoMode    0045c84c     mgllt:_vbeaf.obj
 0001:0005b877       _AF_setVideoModeExt        0045c877     mgllt:_vbeaf.obj
 0001:0005b89a       _AF_setVirtualVideoModeExt 0045c89a     mgllt:_vbeaf.obj
 0001:0005b8c5       _AF_restoreTextMode        0045c8c5     mgllt:_vbeaf.obj
 0001:0005b8d5       _AF_setBank                0045c8d5     mgllt:_vbeaf.obj
 0001:0005b8e8       _AF_waitTillIdle           0045c8e8     mgllt:_vbeaf.obj
 0001:0005b8f8       _AF_enableDirectAccess     0045c8f8     mgllt:_vbeaf.obj
 0001:0005b908       _AF_disableDirectAccess    0045c908     mgllt:_vbeaf.obj
 0001:0005b918       _AF_setDisplayStart        0045c918     mgllt:_vbeaf.obj
 0001:0005b931       _AF_setActiveBuffer        0045c931     mgllt:_vbeaf.obj
 0001:0005b944       _AF_setVisibleBuffer       0045c944     mgllt:_vbeaf.obj
 0001:0005b95a       _AF_setPaletteData         0045c95a     mgllt:_vbeaf.obj
 0001:0005b978       _AF_setGammaCorrectData    0045c978     mgllt:_vbeaf.obj
 0001:0005b993       _AF_setCursor              0045c993     mgllt:_vbeaf.obj
 0001:0005b9a8       _AF_setCursorPos           0045c9a8     mgllt:_vbeaf.obj
 0001:0005b9be       _AF_setCursorColor         0045c9be     mgllt:_vbeaf.obj
 0001:0005b9d7       _AF_showCursor             0045c9d7     mgllt:_vbeaf.obj
 0001:0005b9ea       _AF_setMix                 0045c9ea     mgllt:_vbeaf.obj
 0001:0005ba00       _AF_set8x8MonoPattern      0045ca00     mgllt:_vbeaf.obj
 0001:0005ba15       _AF_set8x8ColorPattern     0045ca15     mgllt:_vbeaf.obj
 0001:0005ba2a       _AF_set8x8ColorPatternExt  0045ca2a     mgllt:_vbeaf.obj
 0001:0005ba42       _AF_use8x8ColorPatternExt  0045ca42     mgllt:_vbeaf.obj
 0001:0005ba55       _AF_setLineStipple         0045ca55     mgllt:_vbeaf.obj
 0001:0005ba69       _AF_setLineStippleCount    0045ca69     mgllt:_vbeaf.obj
 0001:0005ba7c       _AF_setClipRect            0045ca7c     mgllt:_vbeaf.obj
 0001:0005ba91       _AF_drawScan               0045ca91     mgllt:_vbeaf.obj
 0001:0005baaf       _AF_drawPattScan           0045caaf     mgllt:_vbeaf.obj
 0001:0005bad2       _AF_drawScanList           0045cad2     mgllt:_vbeaf.obj
 0001:0005baf0       _AF_drawPattScanList       0045caf0     mgllt:_vbeaf.obj
 0001:0005bb13       _AF_drawColorPattScanList  0045cb13     mgllt:_vbeaf.obj
 0001:0005bb2e       _AF_drawRect               0045cb2e     mgllt:_vbeaf.obj
 0001:0005bb46       _AF_drawPattRect           0045cb46     mgllt:_vbeaf.obj
 0001:0005bb61       _AF_drawLine               0045cb61     mgllt:_vbeaf.obj
 0001:0005bb79       _AF_drawStippleLine        0045cb79     mgllt:_vbeaf.obj
 0001:0005bb94       _AF_drawTrap               0045cb94     mgllt:_vbeaf.obj
 0001:0005bbac       _AF_drawTri                0045cbac     mgllt:_vbeaf.obj
 0001:0005bbc4       _AF_drawQuad               0045cbc4     mgllt:_vbeaf.obj
 0001:0005bbdc       _AF_putMonoImage           0045cbdc     mgllt:_vbeaf.obj
 0001:0005bbf7       _AF_putMonoImageExt        0045cbf7     mgllt:_vbeaf.obj
 0001:0005bc12       _AF_putMonoImageLin        0045cc12     mgllt:_vbeaf.obj
 0001:0005bc2d       _AF_putMonoImageBM         0045cc2d     mgllt:_vbeaf.obj
 0001:0005bc48       _AF_bitBlt                 0045cc48     mgllt:_vbeaf.obj
 0001:0005bc5d       _AF_bitBltLin              0045cc5d     mgllt:_vbeaf.obj
 0001:0005bc72       _AF_bitBltLinExt           0045cc72     mgllt:_vbeaf.obj
 0001:0005bc87       _AF_bitBltBM               0045cc87     mgllt:_vbeaf.obj
 0001:0005bc9c       _AF_srcTransBlt            0045cc9c     mgllt:_vbeaf.obj
 0001:0005bcb1       _AF_dstTransBlt            0045ccb1     mgllt:_vbeaf.obj
 0001:0005bcc6       _AF_srcTransBltLin         0045ccc6     mgllt:_vbeaf.obj
 0001:0005bcdb       _AF_srcTransBltLinExt      0045ccdb     mgllt:_vbeaf.obj
 0001:0005bcf0       _AF_srcTransBltBM          0045ccf0     mgllt:_vbeaf.obj
 0001:0005bd05       _AF_dstTransBltLin         0045cd05     mgllt:_vbeaf.obj
 0001:0005bd1a       _AF_dstTransBltLinExt      0045cd1a     mgllt:_vbeaf.obj
 0001:0005bd2f       _AF_dstTransBltBM          0045cd2f     mgllt:_vbeaf.obj
 0001:0005bd44       _AF_stretchBlt             0045cd44     mgllt:_vbeaf.obj
 0001:0005bd59       _AF_stretchBltLin          0045cd59     mgllt:_vbeaf.obj
 0001:0005bd6e       _AF_stretchBltBM           0045cd6e     mgllt:_vbeaf.obj
 0001:0005bd83       _AF_setVideoInput          0045cd83     mgllt:_vbeaf.obj
 0001:0005bd98       _AF_setVideoOutput         0045cd98     mgllt:_vbeaf.obj
 0001:0005bdad       _AF_startVideoFrame        0045cdad     mgllt:_vbeaf.obj
 0001:0005bdbd       _AF_endVideoFrame          0045cdbd     mgllt:_vbeaf.obj
 0001:0005bdd0       _ACCEL_beginDirectAccess   0045cdd0     mgllt:_gaccel.obj
 0001:0005bddf       _ACCEL_endDirectAccess     0045cddf     mgllt:_gaccel.obj
 0001:0005bde0       _ACCEL_beginDirectAccessSLOW 0045cde0     mgllt:_gaccel.obj
 0001:0005bdef       _ACCEL_endDirectAccessSLOW 0045cdef     mgllt:_gaccel.obj
 0001:0005bdfe       _ACCEL_beginPixel          0045cdfe     mgllt:_gaccel.obj
 0001:0005be0d       _ACCEL_endPixel            0045ce0d     mgllt:_gaccel.obj
 0001:0005be0e       _ACCEL_beginPixelSLOW      0045ce0e     mgllt:_gaccel.obj
 0001:0005be1d       _ACCEL_endPixelSLOW        0045ce1d     mgllt:_gaccel.obj
 0001:0005be2c       _ACCEL_scanLine            0045ce2c     mgllt:_gaccel.obj
 0001:0005be50       _ACCEL_fillRect            0045ce50     mgllt:_gaccel.obj
 0001:0005be79       _ACCEL_putMonoImage        0045ce79     mgllt:_gaccel.obj
 0001:0005be96       _ACCEL_line                0045ce96     mgllt:_gaccel.obj
 0001:0005beb3       _ACCEL_blastPalette        0045ceb3     mgllt:_gaccel.obj
 0001:0005befc       _ACSTUB_putMonoImage       0045cefc     mgllt:_afstubs.obj
 0001:0005bf10       _ACSTUB_putMonoImageSLOW   0045cf10     mgllt:_afstubs.obj
 0001:0005bf44       _ACSTUB_putImage           0045cf44     mgllt:_afstubs.obj
 0001:0005bf58       _ACSTUB_putImageSLOW       0045cf58     mgllt:_afstubs.obj
 0001:0005bf9b       _ACSTUB_getDivot           0045cf9b     mgllt:_afstubs.obj
 0001:0005bfaf       _ACSTUB_getDivotSLOW       0045cfaf     mgllt:_afstubs.obj
 0001:0005bfe3       _ACSTUB_putDivot           0045cfe3     mgllt:_afstubs.obj
 0001:0005bff7       _ACSTUB_putDivotSLOW       0045cff7     mgllt:_afstubs.obj
 0001:0005c01f       _ACSTUB_stretchBlt1x2      0045d01f     mgllt:_afstubs.obj
 0001:0005c033       _ACSTUB_stretchBlt1x2SLOW  0045d033     mgllt:_afstubs.obj
 0001:0005c073       _ACSTUB_stretchBlt2x2      0045d073     mgllt:_afstubs.obj
 0001:0005c087       _ACSTUB_stretchBlt2x2SLOW  0045d087     mgllt:_afstubs.obj
 0001:0005c0c7       _ACSTUB_stretchBlt         0045d0c7     mgllt:_afstubs.obj
 0001:0005c0db       _ACSTUB_stretchBltSLOW     0045d0db     mgllt:_afstubs.obj
 0001:0005c130       _VBE_init                  0045d130 f   mgllt:vesavbe.obj
 0001:0005c191       _VBE_detectEXT             0045d191 f   mgllt:vesavbe.obj
 0001:0005c4ce       _VBE_detect                0045d4ce f   mgllt:vesavbe.obj
 0001:0005c4ec       _VBE_getModeInfo           0045d4ec f   mgllt:vesavbe.obj
 0001:0005c701       _VBE_getPageSize           0045d701 f   mgllt:vesavbe.obj
 0001:0005c7b7       _VBE_setVideoMode          0045d7b7 f   mgllt:vesavbe.obj
 0001:0005c844       _VBE_getVideoMode          0045d844 f   mgllt:vesavbe.obj
 0001:0005c890       _VBE_setBank               0045d890 f   mgllt:vesavbe.obj
 0001:0005c8e9       _VBE_getBank               0045d8e9 f   mgllt:vesavbe.obj
 0001:0005c93f       _VBE_setPixelsPerLine      0045d93f f   mgllt:vesavbe.obj
 0001:0005c9b5       _VBE_setBytesPerLine       0045d9b5 f   mgllt:vesavbe.obj
 0001:0005ca2b       _VBE_getScanlineLength     0045da2b f   mgllt:vesavbe.obj
 0001:0005ca9a       _VBE_getMaxScanlineLength  0045da9a f   mgllt:vesavbe.obj
 0001:0005cafe       _VBE_setDisplayStart       0045dafe f   mgllt:vesavbe.obj
 0001:0005cb6f       _VBE_getDisplayStart       0045db6f f   mgllt:vesavbe.obj
 0001:0005cbd5       _VBE_setDACWidth           0045dbd5 f   mgllt:vesavbe.obj
 0001:0005cc27       _VBE_getDACWidth           0045dc27 f   mgllt:vesavbe.obj
 0001:0005cc76       _VBE_setPalette            0045dc76 f   mgllt:vesavbe.obj
 0001:0005cce8       _VBE_getBankedPointer      0045dce8 f   mgllt:vesavbe.obj
 0001:0005cd2c       _VBE_getLinearPointer      0045dd2c f   mgllt:vesavbe.obj
 0001:0005ceaf       _VBE_getSetBank            0045deaf f   mgllt:vesavbe.obj
 0001:0005d060       _VBE_getSetDisplayStart    0045e060 f   mgllt:vesavbe.obj
 0001:0005d0a8       _VBE_getSetPalette         0045e0a8 f   mgllt:vesavbe.obj
 0001:0005d0f0       _VBE_freePMCode            0045e0f0 f   mgllt:vesavbe.obj
 0001:0005d120       _VBE_getBankFunc32         0045e120 f   mgllt:vesavbe.obj
 0001:0005d244       _VGA_blastPalette          0045e244     mgllt:_vga.obj
 0001:0005d2b2       _VGA_setCRTStart           0045e2b2     mgllt:_vga.obj
 0001:0005d2f5       _VGA_vSync                 0045e2f5     mgllt:_vga.obj
 0001:0005d304       _VBE_setBankA              0045e304     mgllt:_svga.obj
 0001:0005d338       _VBE_setBankAB             0045e338     mgllt:_svga.obj
 0001:0005d37f       _VBE20_setBankA            0045e37f     mgllt:_svga.obj
 0001:0005d394       _VBE20_setBankAB           0045e394     mgllt:_svga.obj
 0001:0005d3b6       _VBE20_setBankA_ES         0045e3b6     mgllt:_svga.obj
 0001:0005d3d6       _VBE20_setBankAB_ES        0045e3d6     mgllt:_svga.obj
 0001:0005d403       _SVGA_setBank              0045e403     mgllt:_svga.obj
 0001:0005d412       _SVGA_setBankC             0045e412     mgllt:_svga.obj
 0001:0005d41f       _SV_setBankASM             0045e41f     mgllt:_svga.obj
 0001:0005d42f       _SV_setBank                0045e42f     mgllt:_svga.obj
 0001:0005d43c       _VBE_setCRTStart           0045e43c     mgllt:_svga.obj
 0001:0005d535       _VBE20_blastPalette        0045e535     mgllt:_svga.obj
 0001:0005d590       ___EMU__getImage           0045e590 f   mgllt:em_image.obj
 0001:0005d633       ___EMU__putImage           0045e633 f   mgllt:em_image.obj
 0001:0005d6f0       ___EMU__scanLine           0045e6f0 f   mgllt:em_scanl.obj
 0001:0005d91e       _inet_ntoa@4               0045e91e f   wsock32:WSOCK32.dll
 0001:0005d924       _inet_addr@4               0045e924 f   wsock32:WSOCK32.dll
 0001:0005d92a       _WSACancelBlockingCall@0   0045e92a f   wsock32:WSOCK32.dll
 0001:0005d930       _ntohl@4                   0045e930 f   wsock32:WSOCK32.dll
 0001:0005d936       _WSAUnhookBlockingHook@0   0045e936 f   wsock32:WSOCK32.dll
 0001:0005d93c       _WSASetBlockingHook@4      0045e93c f   wsock32:WSOCK32.dll
 0001:0005d942       _htons@4                   0045e942 f   wsock32:WSOCK32.dll
 0001:0005d948       _bind@12                   0045e948 f   wsock32:WSOCK32.dll
 0001:0005d94e       _ntohs@4                   0045e94e f   wsock32:WSOCK32.dll
 0001:0005d954       _htonl@4                   0045e954 f   wsock32:WSOCK32.dll
 0001:0005d95a       __fpmath                   0045e95a f   LIBC:fpinit.obj
 0001:0005d971       __fpclear                  0045e971 f   LIBC:fpinit.obj
 0001:0005d972       __cfltcvt_init             0045e972 f   LIBC:fpinit.obj
 0001:0005d9aa       _fclose                    0045e9aa f   LIBC:fclose.obj
 0001:0005da00       _fflush                    0045ea00 f   LIBC:fflush.obj
 0001:0005da3b       __flush                    0045ea3b f   LIBC:fflush.obj
 0001:0005da97       __flushall                 0045ea97 f   LIBC:fflush.obj
 0001:0005db0d       _fwrite                    0045eb0d f   LIBC:fwrite.obj
 0001:0005dc17       _sprintf                   0045ec17 f   LIBC:sprintf.obj
 0001:0005dc70       _strstr                    0045ec70 f   LIBC:strstr.obj
 0001:0005dcf0       _fread                     0045ecf0 f   LIBC:fread.obj
 0001:0005ddd8       _fprintf                   0045edd8 f   LIBC:fprintf.obj
 0001:0005de0a       __fsopen                   0045ee0a f   LIBC:fopen.obj
 0001:0005de2a       _fopen                     0045ee2a f   LIBC:fopen.obj
 0001:0005de3d       _atol                      0045ee3d f   LIBC:atox.obj
 0001:0005dec8       _atoi                      0045eec8 f   LIBC:atox.obj
 0001:0005ded3       __filbuf                   0045eed3 f   LIBC:_filbuf.obj
 0001:0005dfac       __ftol                     0045efac f   LIBC:ftol.obj
 0001:0005dfe0       __chkstk                   0045efe0 f   LIBC:chkstk.obj
 0001:0005dfe0       __alloca_probe             0045efe0 f   LIBC:chkstk.obj
 0001:0005e00f       _srand                     0045f00f f   LIBC:rand.obj
 0001:0005e019       _rand                      0045f019 f   LIBC:rand.obj
 0001:0005e040       _strncpy                   0045f040 f   LIBC:strncpy.obj
 0001:0005e140       _strncmp                   0045f140 f   LIBC:strncmp.obj
 0001:0005e178       _sscanf                    0045f178 f   LIBC:sscanf.obj
 0001:0005e1c0       _strchr                    0045f1c0 f   LIBC:strchr.obj
 0001:0005e1c6       ___from_strstr_to_strchr   0045f1c6 f   LIBC:strchr.obj
 0001:0005e27c       _ceil                      0045f27c f   LIBC:ceil.obj
 0001:0005e34b       __vsnprintf                0045f34b f   LIBC:vsnprint.obj
 0001:0005e3a0       _strrchr                   0045f3a0 f   LIBC:strrchr.obj
 0001:0005e3d0       _strncat                   0045f3d0 f   LIBC:strncat.obj
 0001:0005e4f3       _vsprintf                  0045f4f3 f   LIBC:vsprintf.obj
 0001:0005e544       _fseek                     0045f544 f   LIBC:fseek.obj
 0001:0005e5d0       __isctype                  0045f5d0 f   LIBC:isctype.obj
 0001:0005e645       _toupper                   0045f645 f   LIBC:toupper.obj
 0001:0005e711       _strftime                  0045f711 f   LIBC:strftime.obj
 0001:0005e72c       __Strftime                 0045f72c f   LIBC:strftime.obj
 0001:0005ef78       _localtime                 0045ff78 f   LIBC:localtim.obj
 0001:0005f0d8       _time                      004600d8 f   LIBC:time.obj
 0001:0005f1b4       _ctime                     004601b4 f   LIBC:ctime.obj
 0001:0005f1cd       _atof                      004601cd f   LIBC:atof.obj
 0001:0005f21a       _printf                    0046021a f   LIBC:printf.obj
 0001:0005f24c       _longjmp                   0046024c f   LIBC:longjmp.obj
 0001:0005f2c8       __setjmp3                  004602c8 f   LIBC:setjmp3.obj
 0001:0005f343       _malloc                    00460343 f   LIBC:malloc.obj
 0001:0005f355       __nh_malloc                00460355 f   LIBC:malloc.obj
 0001:0005f381       __heap_alloc               00460381 f   LIBC:malloc.obj
 0001:0005f3b7       __getpid                   004603b7 f   LIBC:getpid.obj
 0001:0005f3bd       _fgetc                     004603bd f   LIBC:fgetc.obj
 0001:0005f3d7       _fscanf                    004603d7 f   LIBC:fscanf.obj
 0001:0005f3ed       _fgets                     004603ed f   LIBC:fgets.obj
 0001:0005f450       __CIpow                    00460450 f   LIBC:pow.obj
 0001:0005f469       _pow                       00460469 f   LIBC:pow.obj
 0001:0005f66d       _tolower                   0046066d f   LIBC:tolower.obj
 0001:0005f740       __CIsin                    00460740 f   LIBC:sin.obj
 0001:0005f754       _sin                       00460754 f   LIBC:sin.obj
 0001:0005f7f0       __CIcos                    004607f0 f   LIBC:cos.obj
 0001:0005f804       _cos                       00460804 f   LIBC:cos.obj
 0001:0005f89e       _floor                     0046089e f   LIBC:floor.obj
 0001:0005f96d       __open                     0046096d f   LIBC:open.obj
 0001:0005f96d       _open                      0046096d f   LIBC:open.obj
 0001:0005f984       __sopen                    00460984 f   LIBC:open.obj
 0001:0005fc3d       __close                    00460c3d f   LIBC:close.obj
 0001:0005fc3d       _close                     00460c3d f   LIBC:close.obj
 0001:0005fcf0       _ftell                     00460cf0 f   LIBC:ftell.obj
 0001:0005fe48       _strerror                  00460e48 f   LIBC:strerror.obj
 0001:0005fe74       __cinit                    00460e74 f   LIBC:crt0dat.obj
 0001:0005fea1       _exit                      00460ea1 f   LIBC:crt0dat.obj
 0001:0005feb2       __exit                     00460eb2 f   LIBC:crt0dat.obj
 0001:0005ff76       __mkdir                    00460f76 f   LIBC:mkdir.obj
 0001:0005ffa2       _free                      00460fa2 f   LIBC:free.obj
 0001:0005ffd1       _WinMainCRTStartup         00460fd1 f   LIBC:wincrt0.obj
 0001:000600c7       __amsg_exit                004610c7 f   LIBC:wincrt0.obj
 0001:00060110       __control87                00461110 f   LIBC:ieee87.obj
 0001:00060145       __controlfp                00461145 f   LIBC:ieee87.obj
 0001:00060280       _strcpy                    00461280 f   LIBC:strcat.obj
 0001:00060290       _strcat                    00461290 f   LIBC:strcat.obj
 0001:00060370       _strlen                    00461370 f   LIBC:strlen.obj
 0001:000603f0       _strcmp                    004613f0 f   LIBC:strcmp.obj
 0001:00060474       _getenv                    00461474 f   LIBC:getenv.obj
 0001:00060500       _memcpy                    00461500 f   LIBC:memcpy.obj
 0001:00060840       _memset                    00461840 f   LIBC:memset.obj
 0001:00060898       _calloc                    00461898 f   LIBC:calloc.obj
 0001:00060915       _tmpnam                    00461915 f   LIBC:tmpfile.obj
 0001:00060a0b       __setdefaultprecision      00461a0b f   LIBC:fp8.obj
 0001:00060a1d       __ms_p5_test_fdiv          00461a1d f   LIBC:testfdiv.obj
 0001:00060a5b       __ms_p5_mp_test_fdiv       00461a5b f   LIBC:testfdiv.obj
 0001:00060a84       __forcdecpt                00461a84 f   LIBC:cvt.obj
 0001:00060ade       __cropzeros                00461ade f   LIBC:cvt.obj
 0001:00060b2c       __positive                 00461b2c f   LIBC:cvt.obj
 0001:00060b44       __fassign                  00461b44 f   LIBC:cvt.obj
 0001:00060b82       __cftoe                    00461b82 f   LIBC:cvt.obj
 0001:00060c86       __cftof                    00461c86 f   LIBC:cvt.obj
 0001:00060d64       __cftog                    00461d64 f   LIBC:cvt.obj
 0001:00060e49       __cfltcvt                  00461e49 f   LIBC:cvt.obj
 0001:00060ebf       __freebuf                  00461ebf f   LIBC:_freebuf.obj
 0001:00060eea       __commit                   00461eea f   LIBC:commit.obj
 0001:00060f41       _write                     00461f41 f   LIBC:write.obj
 0001:00060f41       __write                    00461f41 f   LIBC:write.obj
 0001:000610ee       ___initstdio               004620ee f   LIBC:_file.obj
 0001:00061193       ___endstdio                00462193 f   LIBC:_file.obj
 0001:000611a7       __flsbuf                   004621a7 f   LIBC:_flsbuf.obj
 0001:000612bc       __output                   004622bc f   LIBC:output.obj
 0001:00061ac6       __read                     00462ac6 f   LIBC:read.obj
 0001:00061cbc       __stbuf                    00462cbc f   LIBC:_sftbuf.obj
 0001:00061d49       __ftbuf                    00462d49 f   LIBC:_sftbuf.obj
 0001:00061d86       __openfile                 00462d86 f   LIBC:_open.obj
 0001:00061ef6       __getstream                00462ef6 f   LIBC:stream.obj
 0001:00061f70       __allmul                   00462f70 f   LIBC:llmul.obj
 0001:00061fa4       __ioinit                   00462fa4 f   LIBC:ioinit.obj
 0001:0006214f       __getbuf                   0046314f f   LIBC:_getbuf.obj
 0001:00062193       __input                    00463193 f   LIBC:input.obj
 0001:00062c44       __handle_qnan1             00463c44 f   LIBC:fpexcept.obj
 0001:00062c97       __except1                  00463c97 f   LIBC:fpexcept.obj
 0001:00062d2f       __raise_exc                00463d2f f   LIBC:fpexcept.obj
 0001:00062fe2       __handle_exc               00463fe2 f   LIBC:fpexcept.obj
 0001:000631f9       __umatherr                 004641f9 f   LIBC:fpexcept.obj
 0001:00063281       __set_errno                00464281 f   LIBC:fpexcept.obj
 0001:000632cc       __errcode                  004642cc f   LIBC:fpexcept.obj
 0001:000632f9       __frnd                     004642f9 f   LIBC:frnd.obj
 0001:0006330b       __set_exp                  0046430b f   LIBC:util.obj
 0001:00063334       __sptype                   00464334 f   LIBC:util.obj
 0001:0006338e       __decomp                   0046438e f   LIBC:util.obj
 0001:0006344f       __statfp                   0046444f f   LIBC:fpctrl.obj
 0001:0006345d       __clrfp                    0046445d f   LIBC:fpctrl.obj
 0001:0006346c       __ctrlfp                   0046446c f   LIBC:fpctrl.obj
 0001:0006348f       __set_statfp               0046448f f   LIBC:fpctrl.obj
 0001:000634e5       __lseek                    004644e5 f   LIBC:lseek.obj
 0001:0006357f       ___crtGetStringTypeA       0046457f f   LIBC:a_str.obj
 0001:000636c8       ___crtLCMapStringA         004646c8 f   LIBC:a_map.obj
 0001:00063917       ___tzset                   00464917 f   LIBC:tzset.obj
 0001:0006392c       __tzset                    0046492c f   LIBC:tzset.obj
 0001:00063b8a       __isindst                  00464b8a f   LIBC:tzset.obj
 0001:00063e80       __strcmpi                  00464e80 f   LIBC:stricmp.obj
 0001:00063e80       __stricmp                  00464e80 f   LIBC:stricmp.obj
 0001:00063f0c       _gmtime                    00464f0c f   LIBC:gmtime.obj
 0001:00064005       ___loctotime_t             00465005 f   LIBC:dtoxtime.obj
 0001:000640c7       _asctime                   004650c7 f   LIBC:asctime.obj
 0001:0006419d       __fltin                    0046519d f   LIBC:cfin.obj
 0001:00064230       __global_unwind2           00465230 f   LIBC:exsup.obj
 0001:00064272       __local_unwind2            00465272 f   LIBC:exsup.obj
 0001:000642ca       __NLG_Return2              004652ca f   LIBC:exsup.obj
 0001:000642da       __abnormal_termination     004652da f   LIBC:exsup.obj
 0001:000642fd       __NLG_Notify1              004652fd f   LIBC:exsup.obj
 0001:00064306       __NLG_Notify               00465306 f   LIBC:exsup.obj
 0001:00064319       __NLG_Dispatch             00465319 f   LIBC:exsup.obj
 0001:0006431e       __rt_probe_read4@4         0046531e f   LIBC:sehsupp.obj
 0001:00064383       __callnewh                 00465383 f   LIBC:handler.obj
 0001:0006439e       __heap_init                0046539e f   LIBC:heapinit.obj
 0001:000643da       ___sbh_heap_init           004653da f   LIBC:sbheap.obj
 0001:00064418       ___sbh_find_block          00465418 f   LIBC:sbheap.obj
 0001:00064443       ___sbh_free_block          00465443 f   LIBC:sbheap.obj
 0001:0006476e       ___sbh_alloc_block         0046576e f   LIBC:sbheap.obj
 0001:00064a77       ___sbh_alloc_new_region    00465a77 f   LIBC:sbheap.obj
 0001:00064b28       ___sbh_alloc_new_group     00465b28 f   LIBC:sbheap.obj
 0001:00064c23       ___sbh_resize_block        00465c23 f   LIBC:sbheap.obj
 0001:00064f31       __fFEXP                    00465f31 f   LIBC:87tran.obj
 0001:00064f98       __rtinfpopse               00465f98 f   LIBC:87tran.obj
 0001:00064f9a       __rtinfnpopse              00465f9a f   LIBC:87tran.obj
 0001:00064faa       __fFLN                     00465faa f   LIBC:87tran.obj
 0001:0006505f       __rtinfpop                 0046605f f   LIBC:87tran.obj
 0001:00065061       __rtinfnpop                00466061 f   LIBC:87tran.obj
 0001:0006507e       __ffexpm1                  0046607e f   LIBC:87tran.obj
 0001:00065130       __trandisp1                00466130 f   LIBC:87disp.obj
 0001:00065197       __trandisp2                00466197 f   LIBC:87disp.obj
 0001:00065223       __rttospopde               00466223 f   LIBC:87disp.obj
 0001:00065228       __rttospop                 00466228 f   LIBC:87disp.obj
 0001:0006522a       __rtnospop                 0046622a f   LIBC:87disp.obj
 0001:0006522c       __rttosnpop                0046622c f   LIBC:87disp.obj
 0001:0006522d       __rtnospopde               0046622d f   LIBC:87disp.obj
 0001:00065234       __rtzeropop                00466234 f   LIBC:87disp.obj
 0001:00065236       __rtzeronpop               00466236 f   LIBC:87disp.obj
 0001:0006523b       __rtonepop                 0046623b f   LIBC:87disp.obj
 0001:0006523d       __rtonenpop                0046623d f   LIBC:87disp.obj
 0001:00065242       __tosnan1                  00466242 f   LIBC:87disp.obj
 0001:0006526d       __nosnan2                  0046626d f   LIBC:87disp.obj
 0001:0006526f       __tosnan2                  0046626f f   LIBC:87disp.obj
 0001:00065297       __nan2                     00466297 f   LIBC:87disp.obj
 0001:000652d6       __rtindfpop                004662d6 f   LIBC:87disp.obj
 0001:000652d8       __rtindfnpop               004662d8 f   LIBC:87disp.obj
 0001:000652e9       __rttosnpopde              004662e9 f   LIBC:87disp.obj
 0001:000652f3       __rtchsifneg               004662f3 f   LIBC:87disp.obj
 0001:00065300       __startTwoArgErrorHandling 00466300 f   LIBC:genexcep.obj
 0001:00065317       __startOneArgErrorHandling 00466317 f   LIBC:genexcep.obj
 0001:00065360       __twoToTOS                 00466360 f   LIBC:common.obj
 0001:00065375       __load_CW                  00466375 f   LIBC:common.obj
 0001:0006538c       __convertTOStoQNaN         0046638c f   LIBC:common.obj
 0001:000653a5       __fload_withFB             004663a5 f   LIBC:common.obj
 0001:000653e8       __checkTOS_withFB          004663e8 f   LIBC:common.obj
 0001:000653fe       __fast_exit                004663fe f   LIBC:common.obj
 0001:0006540b       __math_exit                0046640b f   LIBC:common.obj
 0001:00065435       __check_overflow_exit      00466435 f   LIBC:common.obj
 0001:00065449       __check_range_exit         00466449 f   LIBC:common.obj
 0001:000654ec       __powhlp                   004664ec f   LIBC:powhlp.obj
 0001:0006561c       __d_inttype                0046661c f   LIBC:powhlp.obj
 0001:00065681       __chsize                   00466681 f   LIBC:chsize.obj
 0001:000657c7       __alloc_osfhnd             004667c7 f   LIBC:osfinfo.obj
 0001:0006585c       __set_osfhnd               0046685c f   LIBC:osfinfo.obj
 0001:000658d3       __free_osfhnd              004668d3 f   LIBC:osfinfo.obj
 0001:0006594d       __get_osfhandle            0046694d f   LIBC:osfinfo.obj
 0001:0006598a       __dosmaperr                0046698a f   LIBC:dosmap.obj
 0001:000659f1       __XcptFilter               004669f1 f   LIBC:winxfltr.obj
 0001:00065b75       __wincmdln                 00466b75 f   LIBC:wincmdln.obj
 0001:00065bcd       __setenvp                  00466bcd f   LIBC:stdenvp.obj
 0001:00065c86       __setargv                  00466c86 f   LIBC:stdargv.obj
 0001:00065ed3       ___crtGetEnvironmentStringsA 00466ed3 f   LIBC:a_env.obj
 0001:00066010       __except_handler3          00467010 f   LIBC:exsup3.obj
 0001:000660cd       __seh_longjmp_unwind@4     004670cd f   LIBC:exsup3.obj
 0001:000660e8       __FF_MSGBANNER             004670e8 f   LIBC:crt0msg.obj
 0001:00066121       __NMSG_WRITE               00467121 f   LIBC:crt0msg.obj
 0001:00066274       __mbsnbicoll               00467274 f   LIBC:mbsnbico.obj
 0001:000662b3       ___wtomb_environ           004672b3 f   LIBC:wtombenv.obj
 0001:00066321       __access                   00467321 f   LIBC:access.obj
 0001:00066365       __strdup                   00467365 f   LIBC:strdup.obj
 0001:000663ec       __ultoa                    004673ec f   LIBC:xtoa.obj
 0001:0006660f       _strtoul                   0046760f f   LIBC:strtol.obj
 0001:00066626       __mbsrchr                  00467626 f   LIBC:mbsrchr.obj
 0001:00066686       __rmtmp                    00467686 f   LIBC:rmtmp.obj
 0001:000666c2       __ZeroTail                 004676c2 f   LIBC:intrncvt.obj
 0001:0006670b       __IncMan                   0046770b f   LIBC:intrncvt.obj
 0001:00066761       __RoundMan                 00467761 f   LIBC:intrncvt.obj
 0001:000667ed       __CopyMan                  004677ed f   LIBC:intrncvt.obj
 0001:00066808       __FillZeroMan              00467808 f   LIBC:intrncvt.obj
 0001:00066814       __IsZeroMan                00467814 f   LIBC:intrncvt.obj
 0001:0006682f       __ShrMan                   0046782f f   LIBC:intrncvt.obj
 0001:000668bc       __ld12cvt                  004678bc f   LIBC:intrncvt.obj
 0001:00066a28       __ld12tod                  00467a28 f   LIBC:intrncvt.obj
 0001:00066a3e       __ld12tof                  00467a3e f   LIBC:intrncvt.obj
 0001:00066a54       __atodbl                   00467a54 f   LIBC:intrncvt.obj
 0001:00066a81       __atoflt                   00467a81 f   LIBC:intrncvt.obj
 0001:00066aae       __fptostr                  00467aae f   LIBC:_fptostr.obj
 0001:00066b25       __fltout                   00467b25 f   LIBC:cfout.obj
 0001:00066b89       ___dtold                   00467b89 f   LIBC:cfout.obj
 0001:00066c40       _memmove                   00467c40 f   LIBC:memmove.obj
 0001:00066f75       __fptrap                   00467f75 f   LIBC:crt0fp.obj
 0001:00066f7e       __fcloseall                00467f7e f   LIBC:closeall.obj
 0001:00066fd6       __isatty                   00467fd6 f   LIBC:isatty.obj
 0001:00066ffc       _wctomb                    00467ffc f   LIBC:wctomb.obj
 0001:00067070       __aulldiv                  00468070 f   LIBC:ulldiv.obj
 0001:000670e0       __aullrem                  004680e0 f   LIBC:ullrem.obj
 0001:00067155       _mbtowc                    00468155 f   LIBC:mbtowc.obj
 0001:0006721d       _isspace                   0046821d f   LIBC:_ctype.obj
 0001:00067250       __allshl                   00468250 f   LIBC:llshl.obj
 0001:0006726f       _ungetc                    0046826f f   LIBC:ungetc.obj
 0001:000672dd       __matherr                  004682dd f   LIBC:matherr.obj
 0001:000672e0       ___strgtold12              004682e0 f   LIBC:strgtold.obj
 0001:000677c0       _fdiv_main_routine         004687c0 f   LIBC:adj_fdiv.obj
 0001:000678d7       __adj_fdiv_r               004688d7 f   LIBC:adj_fdiv.obj
 0001:00067d76       __fdivp_sti_st             00468d76 f   LIBC:adj_fdiv.obj
 0001:00067d89       __fdivrp_sti_st            00468d89 f   LIBC:adj_fdiv.obj
 0001:00067d9c       __adj_fdiv_m32             00468d9c f   LIBC:adj_fdiv.obj
 0001:00067de8       __adj_fdiv_m64             00468de8 f   LIBC:adj_fdiv.obj
 0001:00067e34       __adj_fdiv_m16i            00468e34 f   LIBC:adj_fdiv.obj
 0001:00067e68       __adj_fdiv_m32i            00468e68 f   LIBC:adj_fdiv.obj
 0001:00067e9c       __adj_fdivr_m32            00468e9c f   LIBC:adj_fdiv.obj
 0001:00067ee8       __adj_fdivr_m64            00468ee8 f   LIBC:adj_fdiv.obj
 0001:00067f34       __adj_fdivr_m16i           00468f34 f   LIBC:adj_fdiv.obj
 0001:00067f68       __adj_fdivr_m32i           00468f68 f   LIBC:adj_fdiv.obj
 0001:00067f9c       __safe_fdiv                00468f9c f   LIBC:adj_fdiv.obj
 0001:00067fb1       __safe_fdivr               00468fb1 f   LIBC:adj_fdiv.obj
 0001:00067fc6       __fprem_common             00468fc6 f   LIBC:adj_fdiv.obj
 0001:000681cc       __adj_fprem                004691cc f   LIBC:adj_fdiv.obj
 0001:0006827e       __fprem1_common            0046927e f   LIBC:adj_fdiv.obj
 0001:00068484       __adj_fprem1               00469484 f   LIBC:adj_fdiv.obj
 0001:00068539       __safe_fprem               00469539 f   LIBC:adj_fdiv.obj
 0001:0006853f       __safe_fprem1              0046953f f   LIBC:adj_fdiv.obj
 0001:00068545       __adj_fpatan               00469545 f   LIBC:adj_fdiv.obj
 0001:00068548       __adj_fptan                00469548 f   LIBC:adj_fdiv.obj
 0001:0006854b       __87except                 0046954b f   LIBC:87except.obj
 0001:0006861b       __fpclass                  0046961b f   LIBC:ieeemisc.obj
 0001:000686ad       __setmode                  004696ad f   LIBC:setmode.obj
 0001:00068723       __ismbblead                00469723 f   LIBC:ismbbyte.obj
 0001:00068765       __setmbcp                  00469765 f   LIBC:mbctype.obj
 0001:00068b29       ___initmbctable            00469b29 f   LIBC:mbctype.obj
 0001:00068b45       ___crtMessageBoxA          00469b45 f   LIBC:crtmbox.obj
 0001:00068bce       ___crtCompareStringA       00469bce f   LIBC:a_cmp.obj
 0001:00068e4b       ___crtsetenv               00469e4b f   LIBC:setenv.obj
 0001:00069091       ___addl                    0046a091 f   LIBC:mantold.obj
 0001:000690b2       ___add_12                  0046a0b2 f   LIBC:mantold.obj
 0001:00069110       ___shl_12                  0046a110 f   LIBC:mantold.obj
 0001:0006913e       ___shr_12                  0046a13e f   LIBC:mantold.obj
 0001:0006916b       ___mtold12                 0046a16b f   LIBC:mantold.obj
 0001:00069232       _$I10_OUTPUT               0046a232 f   LIBC:x10fout.obj
 0001:000694c5       ___ld12mul                 0046a4c5 f   LIBC:tenpow.obj
 0001:000696e5       ___multtenpow12            0046a6e5 f   LIBC:tenpow.obj
 0001:00069761       _realloc                   0046a761 f   LIBC:realloc.obj
 0001:00069881       __mbschr                   0046a881 f   LIBC:mbschr.obj
 0001:00069900       _RtlUnwind@16              0046a900 f   kernel32:KERNEL32.dll
 0001:00069906       _remove                    0046a906 f   LIBC:unlink.obj
 0001:00069930       _unlink                    0046a930 f   LIBC:unlink.obj
 0001:00069930       __unlink                   0046a930 f   LIBC:unlink.obj
 0002:00000000       __real@8@00000000000000000000 0046b000     cd_win.obj
 0002:00000008       __real@4@00000000000000000000 0046b008     cd_win.obj
 0002:00000010       __real@8@c004e52ee0d31e0fc000 0046b010     chase.obj
 0002:00000018       __real@4@3fff8000000000000000 0046b018     chase.obj
 0002:0000001c       __real@4@3ffd8000000000000000 0046b01c     cl_input.obj
 0002:00000020       __real@4@3ffec000000000000000 0046b020     cl_input.obj
 0002:00000024       __real@4@3ffe8000000000000000 0046b024     cl_input.obj
 0002:00000028       __real@4@c004c800000000000000 0046b028     cl_input.obj
 0002:0000002c       __real@4@4004c800000000000000 0046b02c     cl_input.obj
 0002:00000030       __real@4@c0058c00000000000000 0046b030     cl_input.obj
 0002:00000034       __real@4@4005a000000000000000 0046b034     cl_input.obj
 0002:00000038       __real@4@c005b400000000000000 0046b038     cl_input.obj
 0002:0000003c       __real@4@4005b400000000000000 0046b03c     cl_input.obj
 0002:00000040       __real@8@3ff583126e978d4fe000 0046b040     cl_input.obj
 0002:00000048       __real@8@3fff8147ae147ae14800 0046b048     cl_main.obj
 0002:00000050       __real@8@bff8a3d70a3d70a3d800 0046b050     cl_main.obj
 0002:00000058       __real@8@3ffbccccccccccccd000 0046b058     cl_main.obj
 0002:00000060       __real@8@3ff8a3d70a3d70a3d800 0046b060     cl_main.obj
 0002:00000068       __real@4@40038000000000000000 0046b068     cl_main.obj
 0002:0000006c       __real@4@c005c800000000000000 0046b06c     cl_main.obj
 0002:00000070       __real@4@4005c800000000000000 0046b070     cl_main.obj
 0002:00000078       __real@8@4005c800000000000000 0046b078     cl_main.obj
 0002:00000080       __real@4@c006b400000000000000 0046b080     cl_main.obj
 0002:00000084       __real@4@4007b400000000000000 0046b084     cl_main.obj
 0002:00000088       __real@4@4006b400000000000000 0046b088     cl_main.obj
 0002:00000090       __real@8@3ff78080808080808000 0046b090     cl_parse.obj
 0002:00000098       __real@8@3ff98000000000000000 0046b098     cl_parse.obj
 0002:000000a0       __real@4@4001a000000000000000 0046b0a0     cl_parse.obj
 0002:000000a4       __real@4@3ff08001000200040000 0046b0a4     cl_parse.obj
 0002:000000a8       __real@8@3ffe9999999999999800 0046b0a8     cl_parse.obj
 0002:000000b0       __real@8@3ffd9999999999999800 0046b0b0     cl_parse.obj
 0002:000000b8       __real@4@40008000000000000000 0046b0b8     cl_parse.obj
 0002:000000c0       __real@8@3ffcccccccccccccd000 0046b0c0     cl_tent.obj
 0002:000000c8       __real@8@3ffe8000000000000000 0046b0c8     cl_tent.obj
 0002:000000d0       __real@4@4003f000000000000000 0046b0d0     cl_tent.obj
 0002:000000d8       __real@8@4004e52ee0d31e0fc000 0046b0d8     cl_tent.obj
 0002:000000e0       __real@8@4008fa00000000000000 0046b0e0     cl_tent.obj
 0002:000000e8       __real@8@3ff98888888888888800 0046b0e8     cmd.obj
 0002:000000f0       __real@8@4004f000000000000000 0046b0f0     cmd.obj
 0002:000000f8       __real@8@40058200000000000000 0046b0f8     common.obj
 0002:00000100       __real@8@4002a000000000000000 0046b100     common.obj
 0002:00000108       __real@8@4005c200000000000000 0046b108     common.obj
 0002:00000110       __real@8@4004c000000000000000 0046b110     common.obj
 0002:00000118       __real@8@40038000000000000000 0046b118     common.obj
 0002:00000120       __real@4@40028000000000000000 0046b120     common.obj
 0002:00000128       __real@8@3ffc8000000000000000 0046b128     common.obj
 0002:00000130       __real@8@3fffb400000000000000 0046b130     common.obj
 0002:00000138       __real@8@3ff7b400000000000000 0046b138     common.obj
 0002:00000140       __real@4@40018000000000000000 0046b140     console.obj
 0002:00000144       __real@4@4007c800000000000000 0046b144     cvar.obj
 0002:00000148       __real@4@400f8000000000000000 0046b148     d_edge.obj
 0002:00000150       __real@8@3fff8000000000000000 0046b150     d_edge.obj
 0002:00000158       __real@8@3fffb333333333333000 0046b158     d_modech.obj
 0002:00000160       __real@8@3ff6ccccccccccccd000 0046b160     d_modech.obj
 0002:00000168       __real@8@3ff8ccccccccccccd000 0046b168     d_modech.obj
 0002:00000170       __real@8@4003a000000000000000 0046b170     d_scan.obj
 0002:00000178       __real@4@4007bd00000000000000 0046b178     d_sky.obj
 0002:0000017c       __real@4@4000c000000000000000 0046b17c     d_sky.obj
 0002:00000180       __real@4@400b8000000000000000 0046b180     d_sky.obj
 0002:00000188       __real@8@400c8000000000000000 0046b188     d_sky.obj
 0002:00000190       __real@4@c00f8000000000000000 0046b190     d_sprite.obj
 0002:00000194       __real@4@4012f423fe6666666800 0046b194     d_sprite.obj
 0002:00000198       __real@4@400e8000000000000000 0046b198     d_zpoint.obj
 0002:000001a0       __real@8@4000c000000000000000 0046b1a0     host.obj
 0002:000001a8       __real@8@3feb8000000000000000 0046b1a8     host.obj
 0002:000001b0       __real@4@3feb8000000000000000 0046b1b0     host.obj
 0002:000001b4       __real@4@4008fa00000000000000 0046b1b4     host_cmd.obj
 0002:000001b8       __real@4@3ffb8000000000000000 0046b1b8     host_cmd.obj
 0002:000001bc       __real@4@400d8000000000000000 0046b1bc     host_cmd.obj
 0002:000001c0       __real@4@400c8000000000000000 0046b1c0     host_cmd.obj
 0002:000001c4       __real@4@40058000000000000000 0046b1c4     host_cmd.obj
 0002:000001c8       __real@8@3ffeb333333333333000 0046b1c8     in_win.obj
 0002:000001d0       __real@8@3fff9999999999999800 0046b1d0     in_win.obj
 0002:000001d8       __real@4@4002a000000000000000 0046b1d8     in_win.obj
 0002:000001e0       __real@8@c0058c00000000000000 0046b1e0     in_win.obj
 0002:000001e8       __real@8@4005a000000000000000 0046b1e8     in_win.obj
 0002:000001f0       __real@8@c005b400000000000000 0046b1f0     in_win.obj
 0002:000001f8       __real@8@4005b400000000000000 0046b1f8     in_win.obj
 0002:00000200       __real@8@4006b400000000000000 0046b200     in_win.obj
 0002:00000208       __real@8@3ff08000000000000000 0046b208     in_win.obj
 0002:00000210       __real@4@400cdac0000000000000 0046b210     in_win.obj
 0002:00000218       __real@8@400cdac0000000000000 0046b218     in_win.obj
 0002:00000220       __real@8@40079600000000000000 0046b220     in_win.obj
 0002:00000228       __real@8@3fffa666666666666800 0046b228     in_win.obj
 0002:00000230       __real@8@3ff5a3d70a3d70a3d800 0046b230     in_win.obj
 0002:00000238       __real@8@400e8000000000000000 0046b238     in_win.obj
 0002:00000240       __real@8@40048000000000000000 0046b240     location.obj
 0002:00000248       __real@8@4000c90fdaa22168c000 0046b248     mathlib.obj
 0002:00000250       __real@8@4006b60b60b60b60b800 0046b250     mathlib.obj
 0002:00000258       __real@4@bfff8000000000000000 0046b258     mathlib.obj
 0002:00000260       __real@8@3ff98efa351294e9c800 0046b260     mathlib.obj
 0002:00000268       __real@8@40018000000000000000 0046b268     menu.obj
 0002:00000270       __real@4@4006c800000000000000 0046b270     menu.obj
 0002:00000274       __real@4@4003a800000000000000 0046b274     menu.obj
 0002:00000278       __real@8@3ffaccccccccccccd000 0046b278     menu.obj
 0002:00000280       __real@4@4005dc00000000000000 0046b280     menu.obj
 0002:00000284       __real@4@4005f000000000000000 0046b284     menu.obj
 0002:00000288       __real@4@40059000000000000000 0046b288     menu.obj
 0002:0000028c       __real@4@3ffaccccccccccccd000 0046b28c     menu.obj
 0002:00000290       __real@4@3ff8b60b60b60b60b800 0046b290     menu.obj
 0002:00000294       __real@4@400b9c40000000000000 0046b294     menu.obj
 0002:00000298       __real@8@40028000000000000000 0046b298     menu.obj
 0002:000002a0       __real@8@4001a000000000000000 0046b2a0     menu.obj
 0002:000002a8       __real@4@4004f000000000000000 0046b2a8     menu.obj
 0002:000002b0       __real@8@3ffefd70a3d70a3d7000 0046b2b0     model.obj
 0002:000002b8       __real@8@3ffdfae147ae147ae000 0046b2b8     model.obj
 0002:000002c0       __real@8@3ffda3d70a3d70a3d800 0046b2c0     model.obj
 0002:000002c8       __real@8@3ffbba2e8ba2e8ba3000 0046b2c8     model.obj
 0002:000002d0       __real@8@40008000000000000000 0046b2d0     net_dgrm.obj
 0002:000002d8       __real@8@4000a000000000000000 0046b2d8     net_dgrm.obj
 0002:000002e0       __real@8@3fffc000000000000000 0046b2e0     net_main.obj
 0002:000002e8       __real@4@40078700000000000000 0046b2e8     pr_cmds.obj
 0002:000002ec       __real@4@4006ff00000000000000 0046b2ec     pr_cmds.obj
 0002:000002f0       __real@4@40078000000000000000 0046b2f0     pr_cmds.obj
 0002:000002f4       __real@4@4003a000000000000000 0046b2f4     pr_cmds.obj
 0002:000002f8       __real@8@3fe08000000000000000 0046b2f8     r_alias.obj
 0002:00000300       __real@4@400a8000000000000000 0046b300     r_light.obj
 0002:00000308       __real@8@4005c000000000000000 0046b308     r_main.obj
 0002:00000310       __real@4@3ff8a3d70a3d70a3d800 0046b310     r_main.obj
 0002:00000318       __real@8@3fefac7691840ac76800 0046b318     r_main.obj
 0002:00000320       __real@8@bfff8000000000000000 0046b320     r_main.obj
 0002:00000328       __real@4@3ff6b60b60b60b60b800 0046b328     r_main.obj
 0002:00000330       __real@8@40128000000000000000 0046b330     r_main.obj
 0002:00000338       __real@8@3ffac90fcf80dc337000 0046b338     r_main.obj
 0002:00000340       __real@4@40068000000000000000 0046b340     r_misc.obj
 0002:00000348       __real@8@4000b400000000000000 0046b348     r_misc.obj
 0002:00000350       __real@8@3ffb8000000000000000 0046b350     r_part.obj
 0002:00000358       __real@4@4002f000000000000000 0046b358     r_part.obj
 0002:00000360       __real@8@3ff9a3d70a3d70a3d800 0046b360     r_part.obj
 0002:00000368       __real@4@c003f000000000000000 0046b368     r_part.obj
 0002:0000036c       __real@4@4001c000000000000000 0046b36c     r_part.obj
 0002:00000370       __real@8@bffefff609dcf893f800 0046b370     r_sprite.obj
 0002:00000378       __real@8@3ffefff609dcf893f800 0046b378     r_sprite.obj
 0002:00000380       __real@4@4001e000000000000000 0046b380     sbar.obj
 0002:00000388       __real@8@3ffdb333333333333000 0046b388     screen.obj
 0002:00000390       __real@8@3ffda2f9836e4e441800 0046b390     screen.obj
 0002:00000398       __real@4@4006b300000000000000 0046b398     screen.obj
 0002:0000039c       __real@4@4006aa00000000000000 0046b39c     screen.obj
 0002:000003a0       __real@4@3ff98000000000000000 0046b3a0     snd_dma.obj
 0002:000003a4       __real@4@c0028000000000000000 0046b3a4     sv_main.obj
 0002:000003a8       __real@8@bffbccccccccccccd000 0046b3a8     sv_main.obj
 0002:000003b0       __real@4@40039000000000000000 0046b3b0     sv_move.obj
 0002:000003b4       __real@4@40049000000000000000 0046b3b4     sv_move.obj
 0002:000003b8       __real@4@4004a000000000000000 0046b3b8     sv_move.obj
 0002:000003bc       __real@4@40079d80000000000000 0046b3bc     sv_move.obj
 0002:000003c0       __real@4@4004b400000000000000 0046b3c0     sv_move.obj
 0002:000003c4       __real@4@c002a000000000000000 0046b3c4     sv_move.obj
 0002:000003c8       __real@4@3ff9b60b60b60b60b800 0046b3c8     sv_move.obj
 0002:000003d0       __real@8@3ffa8000000000000000 0046b3d0     sv_phys.obj
 0002:000003d8       __real@8@40039000000000000000 0046b3d8     sv_phys.obj
 0002:000003e0       __real@4@4006a000000000000000 0046b3e0     sv_user.obj
 0002:000003e4       __real@4@4002c000000000000000 0046b3e4     sv_user.obj
 0002:000003e8       __real@4@40048800000000000000 0046b3e8     sv_user.obj
 0002:000003ec       __real@4@bffdaaaaaaaaaaaaa800 0046b3ec     sv_user.obj
 0002:000003f0       __real@8@4013f424000000000000 0046b3f0     sys_win.obj
 0002:000003f8       __real@8@3fffaaaaaaaaaaaaa800 0046b3f8     vid_win.obj
 0002:00000400       __real@4@c001e000000000000000 0046b400     view.obj
 0002:00000408       __real@8@4006ff00000000000000 0046b408     view.obj
 0002:00000410       __real@8@3ff78040201008040000 0046b410     view.obj
 0002:00000418       __real@8@40069600000000000000 0046b418     view.obj
 0002:00000420       __real@8@3ffdccccccccccccd000 0046b420     view.obj
 0002:00000428       __real@4@4003b000000000000000 0046b428     view.obj
 0002:0000042c       __real@4@4002e000000000000000 0046b42c     view.obj
 0002:00000430       __real@4@3ffbccccccccccccd000 0046b430     view.obj
 0002:00000434       __real@4@40048000000000000000 0046b434     world.obj
 0002:00000438       _GUID_SysMouse             0046b438     dxguid:dxguid.obj
 0002:00000448       _GUID_ZAxis                0046b448     dxguid:dxguid.obj
 0002:00000458       _GUID_YAxis                0046b458     dxguid:dxguid.obj
 0002:00000468       _GUID_XAxis                0046b468     dxguid:dxguid.obj
 0002:00000480       ??_C@_07CJME@H?3mm?3ss?$AA@ 0046b480     LIBC:strftime.obj
 0002:00000488       ??_C@_0BE@MHI@dddd?0?5MMMM?5dd?0?5yyyy?$AA@ 0046b488     LIBC:strftime.obj
 0002:0000049c       ??_C@_06HCAD@M?1d?1yy?$AA@ 0046b49c     LIBC:strftime.obj
 0002:000004a4       ??_C@_02DBLP@PM?$AA@       0046b4a4     LIBC:strftime.obj
 0002:000004a8       ??_C@_02ENLM@AM?$AA@       0046b4a8     LIBC:strftime.obj
 0002:000004ac       ??_C@_08LIDF@December?$AA@ 0046b4ac     LIBC:strftime.obj
 0002:000004b8       ??_C@_08NJLI@November?$AA@ 0046b4b8     LIBC:strftime.obj
 0002:000004c4       ??_C@_07IAMM@October?$AA@  0046b4c4     LIBC:strftime.obj
 0002:000004cc       ??_C@_09MKGD@September?$AA@ 0046b4cc     LIBC:strftime.obj
 0002:000004d8       ??_C@_06PADP@August?$AA@   0046b4d8     LIBC:strftime.obj
 0002:000004e0       ??_C@_04PIJO@July?$AA@     0046b4e0     LIBC:strftime.obj
 0002:000004e8       ??_C@_04ICFP@June?$AA@     0046b4e8     LIBC:strftime.obj
 0002:000004f0       ??_C@_05JFGC@April?$AA@    0046b4f0     LIBC:strftime.obj
 0002:000004f8       ??_C@_05FGPD@March?$AA@    0046b4f8     LIBC:strftime.obj
 0002:00000500       ??_C@_08PGBA@February?$AA@ 0046b500     LIBC:strftime.obj
 0002:0000050c       ??_C@_07BPKJ@January?$AA@  0046b50c     LIBC:strftime.obj
 0002:00000514       ??_C@_03PGJO@Dec?$AA@      0046b514     LIBC:strftime.obj
 0002:00000518       ??_C@_03PDLM@Nov?$AA@      0046b518     LIBC:strftime.obj
 0002:0000051c       ??_C@_03BLHK@Oct?$AA@      0046b51c     LIBC:strftime.obj
 0002:00000520       ??_C@_03DPFM@Sep?$AA@      0046b520     LIBC:strftime.obj
 0002:00000524       ??_C@_03CMCH@Aug?$AA@      0046b524     LIBC:strftime.obj
 0002:00000528       ??_C@_03OBKI@Jul?$AA@      0046b528     LIBC:strftime.obj
 0002:0000052c       ??_C@_03LEIG@Jun?$AA@      0046b52c     LIBC:strftime.obj
 0002:00000530       ??_C@_03MGHB@May?$AA@      0046b530     LIBC:strftime.obj
 0002:00000534       ??_C@_03MJJM@Apr?$AA@      0046b534     LIBC:strftime.obj
 0002:00000538       ??_C@_03GNHA@Mar?$AA@      0046b538     LIBC:strftime.obj
 0002:0000053c       ??_C@_03PICE@Feb?$AA@      0046b53c     LIBC:strftime.obj
 0002:00000540       ??_C@_03IEIF@Jan?$AA@      0046b540     LIBC:strftime.obj
 0002:00000544       ??_C@_08FAKH@Saturday?$AA@ 0046b544     LIBC:strftime.obj
 0002:00000550       ??_C@_06ONCK@Friday?$AA@   0046b550     LIBC:strftime.obj
 0002:00000558       ??_C@_08CCFO@Thursday?$AA@ 0046b558     LIBC:strftime.obj
 0002:00000564       ??_C@_09PBIN@Wednesday?$AA@ 0046b564     LIBC:strftime.obj
 0002:00000570       ??_C@_07BMBC@Tuesday?$AA@  0046b570     LIBC:strftime.obj
 0002:00000578       ??_C@_06CHLK@Monday?$AA@   0046b578     LIBC:strftime.obj
 0002:00000580       ??_C@_06OOEM@Sunday?$AA@   0046b580     LIBC:strftime.obj
 0002:00000588       ??_C@_03MPKK@Sat?$AA@      0046b588     LIBC:strftime.obj
 0002:0000058c       ??_C@_03FINJ@Fri?$AA@      0046b58c     LIBC:strftime.obj
 0002:00000590       ??_C@_03HIKC@Thu?$AA@      0046b590     LIBC:strftime.obj
 0002:00000594       ??_C@_03HECK@Wed?$AA@      0046b594     LIBC:strftime.obj
 0002:00000598       ??_C@_03ECCP@Tue?$AA@      0046b598     LIBC:strftime.obj
 0002:0000059c       ??_C@_03PIEP@Mon?$AA@      0046b59c     LIBC:strftime.obj
 0002:000005a0       ??_C@_03FHEP@Sun?$AA@      0046b5a0     LIBC:strftime.obj
 0002:000005a4       ??_C@_03MKGK@a?1p?$AA@     0046b5a4     LIBC:strftime.obj
 0002:000005a8       ??_C@_05BDJK@am?1pm?$AA@   0046b5a8     LIBC:strftime.obj
 0002:000005bc       ??_C@_01PJCK@?4?$AA@       0046b5bc     LIBC:tmpfile.obj
 0002:000005c0       ??_C@_01PCFE@?2?$AA@       0046b5c0     LIBC:tmpfile.obj
 0002:000005c8       __real@8@4015800bf60000000000 0046b5c8     LIBC:testfdiv.obj
 0002:000005d0       __real@8@4014bffffc0000000000 0046b5d0     LIBC:testfdiv.obj
 0002:000005d8       ??_C@_0BK@JEGK@IsProcessorFeaturePresent?$AA@ 0046b5d8     LIBC:testfdiv.obj
 0002:000005f4       ??_C@_08OBID@KERNEL32?$AA@ 0046b5f4     LIBC:testfdiv.obj
 0002:00000600       ??_C@_05OFLO@e?$CL000?$AA@ 0046b600     LIBC:cvt.obj
 0002:00000608       ___lookuptable             0046b608     LIBC:output.obj
 0002:00000664       ??_C@_1O@POHA@?$AA?$CI?$AAn?$AAu?$AAl?$AAl?$AA?$CJ?$AA?$AA@ 0046b664     LIBC:output.obj
 0002:00000674       ??_C@_06ONKE@?$CInull?$CJ?$AA@ 0046b674     LIBC:output.obj
 0002:0000067c       ??_C@_03GAFO@_yn?$AA@      0046b67c     LIBC:fpexcept.obj
 0002:00000680       ??_C@_03GNLD@_y1?$AA@      0046b680     LIBC:fpexcept.obj
 0002:00000684       ??_C@_03MHCE@_y0?$AA@      0046b684     LIBC:fpexcept.obj
 0002:00000688       ??_C@_05PAK@frexp?$AA@     0046b688     LIBC:fpexcept.obj
 0002:00000690       ??_C@_04JKCH@fmod?$AA@     0046b690     LIBC:fpexcept.obj
 0002:00000698       ??_C@_06GGHF@_hypot?$AA@   0046b698     LIBC:fpexcept.obj
 0002:000006a0       ??_C@_05JNMC@_cabs?$AA@    0046b6a0     LIBC:fpexcept.obj
 0002:000006a8       ??_C@_05MEKH@ldexp?$AA@    0046b6a8     LIBC:fpexcept.obj
 0002:000006b0       ??_C@_04KAOJ@modf?$AA@     0046b6b0     LIBC:fpexcept.obj
 0002:000006b8       ??_C@_04EHAJ@fabs?$AA@     0046b6b8     LIBC:fpexcept.obj
 0002:000006c0       ??_C@_05MFBN@floor?$AA@    0046b6c0     LIBC:fpexcept.obj
 0002:000006c8       ??_C@_04JJMP@ceil?$AA@     0046b6c8     LIBC:fpexcept.obj
 0002:000006d0       ??_C@_03JLPI@tan?$AA@      0046b6d0     LIBC:fpexcept.obj
 0002:000006d4       ??_C@_03DLFL@cos?$AA@      0046b6d4     LIBC:fpexcept.obj
 0002:000006d8       ??_C@_03JAMN@sin?$AA@      0046b6d8     LIBC:fpexcept.obj
 0002:000006dc       ??_C@_04LMBE@sqrt?$AA@     0046b6dc     LIBC:fpexcept.obj
 0002:000006e4       ??_C@_05BFPO@atan2?$AA@    0046b6e4     LIBC:fpexcept.obj
 0002:000006ec       ??_C@_04EAGN@atan?$AA@     0046b6ec     LIBC:fpexcept.obj
 0002:000006f4       ??_C@_04OAMO@acos?$AA@     0046b6f4     LIBC:fpexcept.obj
 0002:000006fc       ??_C@_04ELFI@asin?$AA@     0046b6fc     LIBC:fpexcept.obj
 0002:00000704       ??_C@_04LFAD@tanh?$AA@     0046b704     LIBC:fpexcept.obj
 0002:0000070c       ??_C@_04PFKD@cosh?$AA@     0046b70c     LIBC:fpexcept.obj
 0002:00000714       ??_C@_04NPAI@sinh?$AA@     0046b714     LIBC:fpexcept.obj
 0002:0000071c       ??_C@_05IJHH@log10?$AA@    0046b71c     LIBC:fpexcept.obj
 0002:00000724       ??_C@_03BGKD@log?$AA@      0046b724     LIBC:fpexcept.obj
 0002:00000728       ??_C@_03EGFG@pow?$AA@      0046b728     LIBC:fpexcept.obj
 0002:0000072c       ??_C@_03CDGJ@exp?$AA@      0046b72c     LIBC:fpexcept.obj
 0002:00000730       ??_C@_01A@?$AA?$AA@        0046b730     LIBC:a_str.obj
 0002:00000734       ??_C@_13A@?$AA?$AA?$AA?$AA@ 0046b734     LIBC:a_str.obj
 0002:00000760       ___dnames                  0046b760     LIBC:timeset.obj
 0002:00000778       ___mnames                  0046b778     LIBC:timeset.obj
 0002:000007a0       ??_C@_02JHIA@TZ?$AA@       0046b7a0     LIBC:tzset.obj
 0002:000007c8       __DEFAULT_CW_in_mem        0046b7c8     LIBC:common.obj
 0002:000007ca       __pi_by_2_to_61            0046b7ca     LIBC:common.obj
 0002:00000804       ??_C@_0BG@JPLP@Illegal?5byte?5sequence?$AA@ 0046b804     LIBC:syserr.obj
 0002:0000081c       ??_C@_0BE@FLBN@Directory?5not?5empty?$AA@ 0046b81c     LIBC:syserr.obj
 0002:00000830       ??_C@_0BJ@KAFL@Function?5not?5implemented?$AA@ 0046b830     LIBC:syserr.obj
 0002:0000084c       ??_C@_0BD@CEML@No?5locks?5available?$AA@ 0046b84c     LIBC:syserr.obj
 0002:00000860       ??_C@_0BC@GADJ@Filename?5too?5long?$AA@ 0046b860     LIBC:syserr.obj
 0002:00000874       ??_C@_0BK@FNFN@Resource?5deadlock?5avoided?$AA@ 0046b874     LIBC:syserr.obj
 0002:00000890       ??_C@_0BB@EALI@Result?5too?5large?$AA@ 0046b890     LIBC:syserr.obj
 0002:000008a4       ??_C@_0N@FIAN@Domain?5error?$AA@ 0046b8a4     LIBC:syserr.obj
 0002:000008b4       ??_C@_0M@CLKF@Broken?5pipe?$AA@ 0046b8b4     LIBC:syserr.obj
 0002:000008c0       ??_C@_0P@OFDM@Too?5many?5links?$AA@ 0046b8c0     LIBC:syserr.obj
 0002:000008d0       ??_C@_0BG@OHDM@Read?9only?5file?5system?$AA@ 0046b8d0     LIBC:syserr.obj
 0002:000008e8       ??_C@_0N@NGPA@Invalid?5seek?$AA@ 0046b8e8     LIBC:syserr.obj
 0002:000008f8       ??_C@_0BI@DMFE@No?5space?5left?5on?5device?$AA@ 0046b8f8     LIBC:syserr.obj
 0002:00000910       ??_C@_0P@OPNK@File?5too?5large?$AA@ 0046b910     LIBC:syserr.obj
 0002:00000920       ??_C@_0CE@BADJ@Inappropriate?5I?1O?5control?5operat@ 0046b920     LIBC:syserr.obj
 0002:00000944       ??_C@_0BE@COOK@Too?5many?5open?5files?$AA@ 0046b944     LIBC:syserr.obj
 0002:00000958       ??_C@_0BO@ELHF@Too?5many?5open?5files?5in?5system?$AA@ 0046b958     LIBC:syserr.obj
 0002:00000978       ??_C@_0BB@IHAB@Invalid?5argument?$AA@ 0046b978     LIBC:syserr.obj
 0002:0000098c       ??_C@_0P@NDNC@Is?5a?5directory?$AA@ 0046b98c     LIBC:syserr.obj
 0002:0000099c       ??_C@_0BA@JMMO@Not?5a?5directory?$AA@ 0046b99c     LIBC:syserr.obj
 0002:000009ac       ??_C@_0P@GFAI@No?5such?5device?$AA@ 0046b9ac     LIBC:syserr.obj
 0002:000009bc       ??_C@_0O@KHHM@Improper?5link?$AA@ 0046b9bc     LIBC:syserr.obj
 0002:000009cc       ??_C@_0M@EPHJ@File?5exists?$AA@ 0046b9cc     LIBC:syserr.obj
 0002:000009d8       ??_C@_0BA@LPOH@Resource?5device?$AA@ 0046b9d8     LIBC:syserr.obj
 0002:000009e8       ??_C@_0O@NOFB@Unknown?5error?$AA@ 0046b9e8     LIBC:syserr.obj
 0002:000009f8       ??_C@_0M@MLJM@Bad?5address?$AA@ 0046b9f8     LIBC:syserr.obj
 0002:00000a04       ??_C@_0BC@DJON@Permission?5denied?$AA@ 0046ba04     LIBC:syserr.obj
 0002:00000a18       ??_C@_0BB@KDDC@Not?5enough?5space?$AA@ 0046ba18     LIBC:syserr.obj
 0002:00000a2c       ??_C@_0CB@BBBH@Resource?5temporarily?5unavailable@ 0046ba2c     LIBC:syserr.obj
 0002:00000a50       ??_C@_0BD@ODIH@No?5child?5processes?$AA@ 0046ba50     LIBC:syserr.obj
 0002:00000a64       ??_C@_0BE@CDDH@Bad?5file?5descriptor?$AA@ 0046ba64     LIBC:syserr.obj
 0002:00000a78       ??_C@_0BC@BICL@Exec?5format?5error?$AA@ 0046ba78     LIBC:syserr.obj
 0002:00000a8c       ??_C@_0BC@IGMC@Arg?5list?5too?5long?$AA@ 0046ba8c     LIBC:syserr.obj
 0002:00000aa0       ??_C@_0BK@HLB@No?5such?5device?5or?5address?$AA@ 0046baa0     LIBC:syserr.obj
 0002:00000abc       ??_C@_0BD@MPKK@Input?1output?5error?$AA@ 0046babc     LIBC:syserr.obj
 0002:00000ad0       ??_C@_0BK@ODCM@Interrupted?5function?5call?$AA@ 0046bad0     LIBC:syserr.obj
 0002:00000aec       ??_C@_0BA@BPKN@No?5such?5process?$AA@ 0046baec     LIBC:syserr.obj
 0002:00000afc       ??_C@_0BK@IEMO@No?5such?5file?5or?5directory?$AA@ 0046bafc     LIBC:syserr.obj
 0002:00000b18       ??_C@_0BI@IIAE@Operation?5not?5permitted?$AA@ 0046bb18     LIBC:syserr.obj
 0002:00000b30       ??_C@_08KKBH@No?5error?$AA@ 0046bb30     LIBC:syserr.obj
 0002:00000b3c       ??_C@_0P@GGKG@runtime?5error?5?$AA@ 0046bb3c     LIBC:crt0msg.obj
 0002:00000b4c       ??_C@_0O@DELO@TLOSS?5error?$AN?6?$AA@ 0046bb4c     LIBC:crt0msg.obj
 0002:00000b5c       ??_C@_0N@OMLL@SING?5error?$AN?6?$AA@ 0046bb5c     LIBC:crt0msg.obj
 0002:00000b6c       ??_C@_0P@OJAK@DOMAIN?5error?$AN?6?$AA@ 0046bb6c     LIBC:crt0msg.obj
 0002:00000b7c       ??_C@_0CF@EANP@R6028?$AN?6?9?5unable?5to?5initialize?5he@ 0046bb7c     LIBC:crt0msg.obj
 0002:00000ba4       ??_C@_0DF@ECGN@R6027?$AN?6?9?5not?5enough?5space?5for?5lo@ 0046bba4     LIBC:crt0msg.obj
 0002:00000bdc       ??_C@_0DF@FKAC@R6026?$AN?6?9?5not?5enough?5space?5for?5st@ 0046bbdc     LIBC:crt0msg.obj
 0002:00000c14       ??_C@_0CG@DPMN@R6025?$AN?6?9?5pure?5virtual?5function?5c@ 0046bc14     LIBC:crt0msg.obj
 0002:00000c3c       ??_C@_0DF@CKIP@R6024?$AN?6?9?5not?5enough?5space?5for?5_o@ 0046bc3c     LIBC:crt0msg.obj
 0002:00000c74       ??_C@_0CJ@GGOE@R6019?$AN?6?9?5unable?5to?5open?5console?5@ 0046bc74     LIBC:crt0msg.obj
 0002:00000ca0       ??_C@_0CB@LBOB@R6018?$AN?6?9?5unexpected?5heap?5error?$AN?6@ 0046bca0     LIBC:crt0msg.obj
 0002:00000cc4       ??_C@_0CN@FPEG@R6017?$AN?6?9?5unexpected?5multithread?5@ 0046bcc4     LIBC:crt0msg.obj
 0002:00000cf4       ??_C@_0CM@OBIC@R6016?$AN?6?9?5not?5enough?5space?5for?5th@ 0046bcf4     LIBC:crt0msg.obj
 0002:00000d20       ??_C@_0CB@HPAL@?$AN?6abnormal?5program?5termination?$AN?6@ 0046bd20     LIBC:crt0msg.obj
 0002:00000d44       ??_C@_0CM@JOOB@R6009?$AN?6?9?5not?5enough?5space?5for?5en@ 0046bd44     LIBC:crt0msg.obj
 0002:00000d70       ??_C@_0CK@OIBL@R6008?$AN?6?9?5not?5enough?5space?5for?5ar@ 0046bd70     LIBC:crt0msg.obj
 0002:00000d9c       ??_C@_0CF@LKPB@R6002?$AN?6?9?5floating?5point?5not?5load@ 0046bd9c     LIBC:crt0msg.obj
 0002:00000dc4       ??_C@_0CF@JPDF@Microsoft?5Visual?5C?$CL?$CL?5Runtime?5Lib@ 0046bdc4     LIBC:crt0msg.obj
 0002:00000dec       ??_C@_0BK@DEOK@Runtime?5Error?$CB?6?6Program?3?5?$AA@ 0046bdec     LIBC:crt0msg.obj
 0002:00000e08       ??_C@_03NAME@?4?4?4?$AA@   0046be08     LIBC:crt0msg.obj
 0002:00000e0c       ??_C@_0BH@NNCD@?$DMprogram?5name?5unknown?$DO?$AA@ 0046be0c     LIBC:crt0msg.obj
 0002:00000e24       ??_C@_0BD@NJFP@GetLastActivePopup?$AA@ 0046be24     LIBC:crtmbox.obj
 0002:00000e38       ??_C@_0BA@GILI@GetActiveWindow?$AA@ 0046be38     LIBC:crtmbox.obj
 0002:00000e48       ??_C@_0M@PKCK@MessageBoxA?$AA@ 0046be48     LIBC:crtmbox.obj
 0002:00000e54       ??_C@_0L@HKL@user32?4dll?$AA@ 0046be54     LIBC:crtmbox.obj
 0002:00000e78       ??_C@_06PAPI@1?$CDQNAN?$AA@ 0046be78     LIBC:x10fout.obj
 0002:00000e80       ??_C@_05BGNL@1?$CDINF?$AA@ 0046be80     LIBC:x10fout.obj
 0002:00000e88       ??_C@_05EDPF@1?$CDIND?$AA@ 0046be88     LIBC:x10fout.obj
 0002:00000e90       ??_C@_06LKFM@1?$CDSNAN?$AA@ 0046be90     LIBC:x10fout.obj
 0003:00000000       ___xc_a                    0046c000     LIBC:crt0init.obj
 0003:00000004       ___xc_z                    0046c004     LIBC:crt0init.obj
 0003:00000008       ___xi_a                    0046c008     LIBC:crt0init.obj
 0003:00000014       ___xi_z                    0046c014     LIBC:crt0init.obj
 0003:00000018       ___xp_a                    0046c018     LIBC:crt0init.obj
 0003:00000024       ___xp_z                    0046c024     LIBC:crt0init.obj
 0003:00000028       ___xt_a                    0046c028     LIBC:crt0init.obj
 0003:0000002c       ___xt_z                    0046c02c     LIBC:crt0init.obj
 0003:00000030       ??_C@_0BP@BLGA@CDAudio?3?5Bad?5track?5number?5?$CFu?4?6?$AA@ 0046c030     cd_win.obj
 0003:00000050       ??_C@_0BP@IAAN@CDAudio?3?5MCI_PLAY?5failed?5?$CI?$CFi?$CJ?6?$AA@ 0046c050     cd_win.obj
 0003:00000070       ??_C@_0CA@JLLD@CDAudio?3?5track?5?$CFi?5is?5not?5audio?6?$AA@ 0046c070     cd_win.obj
 0003:00000090       ??_C@_0BI@DDPM@MCI_STATUS?5failed?5?$CI?$CFi?$CJ?6?$AA@ 0046c090     cd_win.obj
 0003:000000a8       ??_C@_0BK@FODH@CDAudio?3?5no?5music?5tracks?6?$AA@ 0046c0a8     cd_win.obj
 0003:000000c4       ??_C@_0CF@NJAE@CDAudio?3?5get?5tracks?5?9?5status?5fai@ 0046c0c4     cd_win.obj
 0003:000000ec       ??_C@_0BK@EBGL@CDAudio?3?5drive?5not?5ready?6?$AA@ 0046c0ec     cd_win.obj
 0003:00000108       ??_C@_0CP@CDKN@CDAudio?3?5drive?5ready?5test?5?9?5get?5@ 0046c108     cd_win.obj
 0003:00000138       ??_C@_0BF@GBBG@MCI_STOP?5failed?5?$CI?$CFi?$CJ?$AA@ 0046c138     cd_win.obj
 0003:00000150       ??_C@_0BG@OOII@MCI_PAUSE?5failed?5?$CI?$CFi?$CJ?$AA@ 0046c150     cd_win.obj
 0003:00000168       ??_C@_0CD@KMGL@Unexpected?5MM_MCINOTIFY?5type?5?$CI?$CFi@ 0046c168     cd_win.obj
 0003:0000018c       ??_C@_0BE@KLKE@MCI_NOTIFY_FAILURE?6?$AA@ 0046c18c     cd_win.obj
 0003:000001a0       ??_C@_09GFHN@bgmvolume?$AA@ 0046c1a0     cd_win.obj
 0003:000001ac       ??_C@_0BG@ONJF@CD?5Audio?5Initialized?6?$AA@ 0046c1ac     cd_win.obj
 0003:000001c4       ??_C@_02BJHE@cd?$AA@       0046c1c4     cd_win.obj
 0003:000001c8       ??_C@_0CA@BCAL@CDAudio_Init?3?5No?5CD?5in?5player?4?6?$AA@ 0046c1c8     cd_win.obj
 0003:000001e8       ??_C@_0CB@HHAK@MCI_SET_TIME_FORMAT?5failed?5?$CI?$CFi?$CJ?6@ 0046c1e8     cd_win.obj
 0003:0000020c       ??_C@_0CE@KOHC@CDAudio_Init?3?5MCI_OPEN?5failed?5?$CI?$CF@ 0046c20c     cd_win.obj
 0003:00000230       ??_C@_07JNJJ@cdaudio?$AA@  0046c230     cd_win.obj
 0003:00000238       ??_C@_0L@FIDM@?9nocdaudio?$AA@ 0046c238     cd_win.obj
 0003:00000244       ??_C@_0O@NNL@Volume?5is?5?$CFf?6?$AA@ 0046c244     cd_win.obj
 0003:00000254       ??_C@_0BE@IFNH@Paused?5?$CFs?5track?5?$CFu?6?$AA@ 0046c254     cd_win.obj
 0003:00000268       ??_C@_0BH@DJIN@Currently?5?$CFs?5track?5?$CFu?6?$AA@ 0046c268     cd_win.obj
 0003:00000280       ??_C@_07KKLA@playing?$AA@  0046c280     cd_win.obj
 0003:00000288       ??_C@_07PNMG@looping?$AA@  0046c288     cd_win.obj
 0003:00000290       ??_C@_0L@ECAH@?$CFu?5tracks?6?$AA@ 0046c290     cd_win.obj
 0003:0000029c       ??_C@_04LEMN@info?$AA@     0046c29c     cd_win.obj
 0003:000002a4       ??_C@_05NOIK@eject?$AA@    0046c2a4     cd_win.obj
 0003:000002ac       ??_C@_06MJAA@resume?$AA@   0046c2ac     cd_win.obj
 0003:000002b4       ??_C@_05PBCN@pause?$AA@    0046c2b4     cd_win.obj
 0003:000002bc       ??_C@_04JPPJ@stop?$AA@     0046c2bc     cd_win.obj
 0003:000002c4       ??_C@_04FNBC@loop?$AA@     0046c2c4     cd_win.obj
 0003:000002cc       ??_C@_04HNFE@play?$AA@     0046c2cc     cd_win.obj
 0003:000002d4       ??_C@_0BC@KKKC@No?5CD?5in?5player?4?6?$AA@ 0046c2d4     cd_win.obj
 0003:000002e8       ??_C@_05JMGP@close?$AA@    0046c2e8     cd_win.obj
 0003:000002f0       ??_C@_0M@KKFO@?5?5?$CFu?5?9?$DO?5?$CFu?6?$AA@ 0046c2f0     cd_win.obj
 0003:000002fc       ??_C@_05HLLH@remap?$AA@    0046c2fc     cd_win.obj
 0003:00000304       ??_C@_05NGOJ@reset?$AA@    0046c304     cd_win.obj
 0003:0000030c       ??_C@_03OJPB@off?$AA@      0046c30c     cd_win.obj
 0003:00000310       ??_C@_02PHBM@on?$AA@       0046c310     cd_win.obj
 0003:00000314       ??_C@_0BP@KBID@MCI_SET_DOOR_OPEN?5failed?5?$CI?$CFi?$CJ?6?$AA@ 0046c314     cd_win.obj
 0003:00000334       ??_C@_0CB@HHPB@MCI_SET_DOOR_CLOSED?5failed?5?$CI?$CFi?$CJ?6@ 0046c334     cd_win.obj
 0003:00000358       ??_C@_0CE@HFAL@CDAudio_Shutdown?3?5MCI_CLOSE?5fail@ 0046c358     cd_win.obj
 0003:00000380       _chase_back                0046c380     chase.obj
 0003:000003a0       _chase_up                  0046c3a0     chase.obj
 0003:000003c0       _chase_right               0046c3c0     chase.obj
 0003:000003e0       _chase_active              0046c3e0     chase.obj
 0003:00000400       _chase_yaw                 0046c400     chase.obj
 0003:0000041c       ??_C@_09JOJ@chase_yaw?$AA@ 0046c41c     chase.obj
 0003:00000428       ??_C@_0N@HEGG@chase_active?$AA@ 0046c428     chase.obj
 0003:00000438       ??_C@_01PLJA@0?$AA@        0046c438     chase.obj
 0003:0000043c       ??_C@_0M@JLNK@chase_right?$AA@ 0046c43c     chase.obj
 0003:00000448       ??_C@_02KNLD@16?$AA@       0046c448     chase.obj
 0003:0000044c       ??_C@_08LANL@chase_up?$AA@ 0046c44c     chase.obj
 0003:00000458       ??_C@_03HFMC@100?$AA@      0046c458     chase.obj
 0003:0000045c       ??_C@_0L@LGGM@chase_back?$AA@ 0046c45c     chase.obj
 0003:00000468       ??_C@_06GGDA@cmd?5xs?$AA@  0046c468     cl_demo.obj
 0003:00000470       ??_C@_06OIPN@coop?50?$AA@  0046c470     cl_demo.obj
 0003:00000478       ??_C@_0HA@GGAF@?$AC?6?5?5?5?$AEProQuake?5?$IPDemo?$IP?5Version?5?$CF4@ 0046c478     cl_demo.obj
 0003:000004e8       ??_C@_0EK@EEOO@?6?$BN?$BO?$BO?$BO?$BO?$BO?$BO?$BO?$BO?$BO?$BO?$BO?$BO?$BO?$BO?$BO?$BO?$BO?$BO?$BO?$BO?$BO?$BO?$BO?$BO?$BO?$BO?$BO?$BO?$BO?$BO@ 0046c4e8     cl_demo.obj
 0003:00000534       ??_C@_0BO@GELA@ProQuake?5?$IPDemo?$IP?5Version?5?$CF4?42f?$AA@ 0046c534     cl_demo.obj
 0003:00000554       ??_C@_0BI@ELDG@ProQuake?5Server?5Version?$AA@ 0046c554     cl_demo.obj
 0003:0000056c       ??_C@_0CA@MFDL@?$DM?9?9?5server?5to?5client?5keepalive?6?$AA@ 0046c56c     cl_demo.obj
 0003:0000058c       ??_C@_0BK@ILCE@Demo?5message?5?$DO?5MAX_MSGLEN?$AA@ 0046c58c     cl_demo.obj
 0003:000005a8       ??_C@_0BA@BLFP@Completed?5demo?6?$AA@ 0046c5a8     cl_demo.obj
 0003:000005b8       ??_C@_0BG@LJOC@Not?5recording?5a?5demo?6?$AA@ 0046c5b8     cl_demo.obj
 0003:000005d0       ??_C@_03IFAG@?$CFi?6?$AA@  0046c5d0     cl_demo.obj
 0003:000005d4       ??_C@_0BH@PIJG@ERROR?3?5couldn?8t?5open?4?6?$AA@ 0046c5d4     cl_demo.obj
 0003:000005ec       ??_C@_02NGAF@wb?$AA@       0046c5ec     cl_demo.obj
 0003:000005f0       ??_C@_0BC@JCJK@recording?5to?5?$CFs?4?6?$AA@ 0046c5f0     cl_demo.obj
 0003:00000604       ??_C@_04EALP@?4dem?$AA@    0046c604     cl_demo.obj
 0003:0000060c       ??_C@_06MOHP@map?5?$CFs?$AA@ 0046c60c     cl_demo.obj
 0003:00000614       ??_C@_05LELA@?$CFs?1?$CFs?$AA@ 0046c614     cl_demo.obj
 0003:0000061c       ??_C@_0BI@HKFK@Forcing?5CD?5track?5to?5?$CFi?6?$AA@ 0046c61c     cl_demo.obj
 0003:00000634       ??_C@_0CJ@LBDD@Can?8t?5record?5?9?5try?5again?5when?5co@ 0046c634     cl_demo.obj
 0003:00000660       ??_C@_0CF@NIEH@Relative?5pathnames?5are?5not?5allow@ 0046c660     cl_demo.obj
 0003:00000688       ??_C@_02OOND@?4?4?$AA@     0046c688     cl_demo.obj
 0003:0000068c       ??_C@_0CG@ODCL@record?5?$DMdemoname?$DO?5?$FL?$DMmap?$DO?5?$FLcd?5tra@ 0046c68c     cl_demo.obj
 0003:000006b4       ??_C@_0BH@EGNI@Playing?5demo?5from?5?$CFs?4?6?$AA@ 0046c6b4     cl_demo.obj
 0003:000006cc       ??_C@_0CA@MCOC@play?5?$DMdemoname?$DO?5?3?5plays?5a?5demo?6?$AA@ 0046c6cc     cl_demo.obj
 0003:000006ec       ??_C@_0CD@FIMI@?$CFi?5frames?5?$CF5?41f?5seconds?5?$CF5?41f?5fp@ 0046c6ec     cl_demo.obj
 0003:00000710       ??_C@_0CI@IELE@timedemo?5?$DMdemoname?$DO?5?3?5gets?5demo?5@ 0046c710     cl_demo.obj
 0003:00000738       _weaponstat                0046c738     cl_input.obj
 0003:00000758       _cl_upspeed                0046c758     cl_input.obj
 0003:00000778       _cl_forwardspeed           0046c778     cl_input.obj
 0003:00000798       _cl_backspeed              0046c798     cl_input.obj
 0003:000007b8       _cl_sidespeed              0046c7b8     cl_input.obj
 0003:000007d8       _cl_movespeedkey           0046c7d8     cl_input.obj
 0003:000007f8       _cl_yawspeed               0046c7f8     cl_input.obj
 0003:00000818       _cl_pitchspeed             0046c818     cl_input.obj
 0003:00000838       _cl_anglespeedkey          0046c838     cl_input.obj
 0003:00000858       _m_accel                   0046c858     cl_input.obj
 0003:00000878       _freelook                  0046c878     cl_input.obj
 0003:00000898       _pq_lag                    0046c898     cl_input.obj
 0003:000008b8       _cl_fullpitch              0046c8b8     cl_input.obj
 0003:000008d4       ??_C@_0N@DLAB@cl_fullpitch?$AA@ 0046c8d4     cl_input.obj
 0003:000008e4       ??_C@_06CMAD@pq_lag?$AA@   0046c8e4     cl_input.obj
 0003:000008ec       ??_C@_01FBAH@1?$AA@        0046c8ec     cl_input.obj
 0003:000008f0       ??_C@_08BADN@freelook?$AA@ 0046c8f0     cl_input.obj
 0003:000008fc       ??_C@_07NHEF@m_accel?$AA@  0046c8fc     cl_input.obj
 0003:00000904       ??_C@_03NNAL@1?45?$AA@     0046c904     cl_input.obj
 0003:00000908       ??_C@_0BB@MHNK@cl_anglespeedkey?$AA@ 0046c908     cl_input.obj
 0003:0000091c       ??_C@_03DJMC@150?$AA@      0046c91c     cl_input.obj
 0003:00000920       ??_C@_0O@IBII@cl_pitchspeed?$AA@ 0046c920     cl_input.obj
 0003:00000930       ??_C@_03CPGI@140?$AA@      0046c930     cl_input.obj
 0003:00000934       ??_C@_0M@CKBA@cl_yawspeed?$AA@ 0046c934     cl_input.obj
 0003:00000940       ??_C@_03CLPL@2?40?$AA@     0046c940     cl_input.obj
 0003:00000944       ??_C@_0BA@HCFJ@cl_movespeedkey?$AA@ 0046c944     cl_input.obj
 0003:00000954       ??_C@_03JNOP@350?$AA@      0046c954     cl_input.obj
 0003:00000958       ??_C@_0N@DLCL@cl_sidespeed?$AA@ 0046c958     cl_input.obj
 0003:00000968       ??_C@_0N@IFLM@cl_backspeed?$AA@ 0046c968     cl_input.obj
 0003:00000978       ??_C@_0BA@GNDE@cl_forwardspeed?$AA@ 0046c978     cl_input.obj
 0003:00000988       ??_C@_03IDPJ@200?$AA@      0046c988     cl_input.obj
 0003:0000098c       ??_C@_0L@BDND@cl_upspeed?$AA@ 0046c98c     cl_input.obj
 0003:00000998       ??_C@_0BP@GHEI@Three?5keys?5down?5for?5a?5button?$CB?6?$AA@ 0046c998     cl_input.obj
 0003:000009b8       ??_C@_0CF@CFAP@CL_SendMove?3?5lost?5server?5connect@ 0046c9b8     cl_input.obj
 0003:000009e0       ??_C@_0L@POLJ@bestweapon?$AA@ 0046c9e0     cl_input.obj
 0003:000009ec       ??_C@_06KJCC@?9mlook?$AA@  0046c9ec     cl_input.obj
 0003:000009f4       ??_C@_06NEOC@?$CLmlook?$AA@ 0046c9f4     cl_input.obj
 0003:000009fc       ??_C@_06GJPN@?9klook?$AA@  0046c9fc     cl_input.obj
 0003:00000a04       ??_C@_06BEDN@?$CLklook?$AA@ 0046ca04     cl_input.obj
 0003:00000a0c       ??_C@_07ENEF@impulse?$AA@  0046ca0c     cl_input.obj
 0003:00000a14       ??_C@_05JPGJ@?9jump?$AA@   0046ca14     cl_input.obj
 0003:00000a1c       ??_C@_05FPLG@?$CLjump?$AA@ 0046ca1c     cl_input.obj
 0003:00000a24       ??_C@_04BFNL@?9use?$AA@    0046ca24     cl_input.obj
 0003:00000a2c       ??_C@_04MKDH@?$CLuse?$AA@  0046ca2c     cl_input.obj
 0003:00000a34       ??_C@_07EHKH@?9attack?$AA@ 0046ca34     cl_input.obj
 0003:00000a3c       ??_C@_07KANK@?$CLattack?$AA@ 0046ca3c     cl_input.obj
 0003:00000a44       ??_C@_06CNLP@?9speed?$AA@  0046ca44     cl_input.obj
 0003:00000a4c       ??_C@_06FAHP@?$CLspeed?$AA@ 0046ca4c     cl_input.obj
 0003:00000a54       ??_C@_0L@BMPO@?9moveright?$AA@ 0046ca54     cl_input.obj
 0003:00000a60       ??_C@_0L@DMHD@?$CLmoveright?$AA@ 0046ca60     cl_input.obj
 0003:00000a6c       ??_C@_09MLIL@?9moveleft?$AA@ 0046ca6c     cl_input.obj
 0003:00000a78       ??_C@_09EGDL@?$CLmoveleft?$AA@ 0046ca78     cl_input.obj
 0003:00000a84       ??_C@_07OMD@?9strafe?$AA@  0046ca84     cl_input.obj
 0003:00000a8c       ??_C@_07OJLO@?$CLstrafe?$AA@ 0046ca8c     cl_input.obj
 0003:00000a94       ??_C@_09OKBO@?9lookdown?$AA@ 0046ca94     cl_input.obj
 0003:00000aa0       ??_C@_09GHKO@?$CLlookdown?$AA@ 0046caa0     cl_input.obj
 0003:00000aac       ??_C@_07PBGO@?9lookup?$AA@ 0046caac     cl_input.obj
 0003:00000ab4       ??_C@_07BGBD@?$CLlookup?$AA@ 0046cab4     cl_input.obj
 0003:00000abc       ??_C@_05BMBD@?9back?$AA@   0046cabc     cl_input.obj
 0003:00000ac4       ??_C@_05NMMM@?$CLback?$AA@ 0046cac4     cl_input.obj
 0003:00000acc       ??_C@_08MLFI@?9forward?$AA@ 0046cacc     cl_input.obj
 0003:00000ad8       ??_C@_08HLLP@?$CLforward?$AA@ 0046cad8     cl_input.obj
 0003:00000ae4       ??_C@_06CDHA@?9right?$AA@  0046cae4     cl_input.obj
 0003:00000aec       ??_C@_06FOLA@?$CLright?$AA@ 0046caec     cl_input.obj
 0003:00000af4       ??_C@_05EFBI@?9left?$AA@   0046caf4     cl_input.obj
 0003:00000afc       ??_C@_05IFMH@?$CLleft?$AA@ 0046cafc     cl_input.obj
 0003:00000b04       ??_C@_09BGG@?9movedown?$AA@ 0046cb04     cl_input.obj
 0003:00000b10       ??_C@_09IMNG@?$CLmovedown?$AA@ 0046cb10     cl_input.obj
 0003:00000b1c       ??_C@_07ECOP@?9moveup?$AA@ 0046cb1c     cl_input.obj
 0003:00000b24       ??_C@_07KFJC@?$CLmoveup?$AA@ 0046cb24     cl_input.obj
 0003:00000b30       _cl_name                   0046cb30     cl_main.obj
 0003:00000b50       _cl_color                  0046cb50     cl_main.obj
 0003:00000b70       _cl_shownet                0046cb70     cl_main.obj
 0003:00000b90       _cl_nolerp                 0046cb90     cl_main.obj
 0003:00000bb0       _lookspring                0046cbb0     cl_main.obj
 0003:00000bd0       _lookstrafe                0046cbd0     cl_main.obj
 0003:00000bf0       _sensitivity               0046cbf0     cl_main.obj
 0003:00000c10       _m_pitch                   0046cc10     cl_main.obj
 0003:00000c30       _m_yaw                     0046cc30     cl_main.obj
 0003:00000c50       _m_forward                 0046cc50     cl_main.obj
 0003:00000c70       _m_side                    0046cc70     cl_main.obj
 0003:00000c90       _pq_needrl                 0046cc90     cl_main.obj
 0003:00000cb0       _pq_haverl                 0046ccb0     cl_main.obj
 0003:00000cd0       _pq_needrox                0046ccd0     cl_main.obj
 0003:00000cf0       _pq_quad                   0046ccf0     cl_main.obj
 0003:00000d10       _pq_pent                   0046cd10     cl_main.obj
 0003:00000d30       _pq_ring                   0046cd30     cl_main.obj
 0003:00000d50       _pq_weapons                0046cd50     cl_main.obj
 0003:00000d70       _pq_noweapons              0046cd70     cl_main.obj
 0003:00000d90       _pq_moveup                 0046cd90     cl_main.obj
 0003:00000db0       _pq_smoothcam              0046cdb0     cl_main.obj
 0003:00000dcc       _source_key1               0046cdcc     cl_main.obj
 0003:00000dd0       _source_key2               0046cdd0     cl_main.obj
 0003:00000dd4       ??_C@_0N@BJNP@pq_smoothcam?$AA@ 0046cdd4     cl_main.obj
 0003:00000de4       ??_C@_09LKHO@pq_moveup?$AA@ 0046cde4     cl_main.obj
 0003:00000df0       ??_C@_0L@GOEB@no?5weapons?$AA@ 0046cdf0     cl_main.obj
 0003:00000dfc       ??_C@_0N@DMJP@pq_noweapons?$AA@ 0046cdfc     cl_main.obj
 0003:00000e0c       ??_C@_0BE@ODK@SSG?3NG?3SNG?3GL?3RL?3LG?$AA@ 0046ce0c     cl_main.obj
 0003:00000e20       ??_C@_0L@ECKK@pq_weapons?$AA@ 0046ce20     cl_main.obj
 0003:00000e2c       ??_C@_04PIHF@eyes?$AA@     0046ce2c     cl_main.obj
 0003:00000e34       ??_C@_07BMPP@pq_ring?$AA@  0046ce34     cl_main.obj
 0003:00000e3c       ??_C@_04DPIF@pent?$AA@     0046ce3c     cl_main.obj
 0003:00000e44       ??_C@_07NIHN@pq_pent?$AA@  0046ce44     cl_main.obj
 0003:00000e4c       ??_C@_04EGMM@quad?$AA@     0046ce4c     cl_main.obj
 0003:00000e54       ??_C@_07KBDE@pq_quad?$AA@  0046ce54     cl_main.obj
 0003:00000e5c       ??_C@_0P@LNGO@I?5need?5rockets?$AA@ 0046ce5c     cl_main.obj
 0003:00000e6c       ??_C@_0L@KHAM@pq_needrox?$AA@ 0046ce6c     cl_main.obj
 0003:00000e78       ??_C@_09HIAN@I?5have?5RL?$AA@ 0046ce78     cl_main.obj
 0003:00000e84       ??_C@_09IOGK@pq_haverl?$AA@ 0046ce84     cl_main.obj
 0003:00000e90       ??_C@_09OJI@I?5need?5RL?$AA@ 0046ce90     cl_main.obj
 0003:00000e9c       ??_C@_09BLPO@pq_needrl?$AA@ 0046ce9c     cl_main.obj
 0003:00000ea8       ??_C@_03NLGO@0?48?$AA@     0046cea8     cl_main.obj
 0003:00000eac       ??_C@_06MLIH@m_side?$AA@   0046ceac     cl_main.obj
 0003:00000eb4       ??_C@_09NFLM@m_forward?$AA@ 0046ceb4     cl_main.obj
 0003:00000ec0       ??_C@_05LLLA@m_yaw?$AA@    0046cec0     cl_main.obj
 0003:00000ec8       ??_C@_05GGO@0?4022?$AA@    0046cec8     cl_main.obj
 0003:00000ed0       ??_C@_07FHKJ@m_pitch?$AA@  0046ced0     cl_main.obj
 0003:00000ed8       ??_C@_01ECJ@3?$AA@         0046ced8     cl_main.obj
 0003:00000edc       ??_C@_0M@CKB@sensitivity?$AA@ 0046cedc     cl_main.obj
 0003:00000ee8       ??_C@_0L@DEGL@lookstrafe?$AA@ 0046cee8     cl_main.obj
 0003:00000ef4       ??_C@_0L@MEDB@lookspring?$AA@ 0046cef4     cl_main.obj
 0003:00000f00       ??_C@_09JJIN@cl_nolerp?$AA@ 0046cf00     cl_main.obj
 0003:00000f0c       ??_C@_0L@LFAH@cl_shownet?$AA@ 0046cf0c     cl_main.obj
 0003:00000f18       ??_C@_09IPBJ@_cl_color?$AA@ 0046cf18     cl_main.obj
 0003:00000f24       ??_C@_06MNOE@player?$AA@   0046cf24     cl_main.obj
 0003:00000f2c       ??_C@_08JGFE@_cl_name?$AA@ 0046cf2c     cl_main.obj
 0003:00000f38       ??_C@_0BI@GAKC@Sending?5clc_disconnect?6?$AA@ 0046cf38     cl_main.obj
 0003:00000f50       ??_C@_0CE@NKMP@?$CFc?$CFcConnected?5to?5ProQuake?5server@ 0046cf50     cl_main.obj
 0003:00000f74       ??_C@_0CG@PHG@?$CFc?$CFcConnected?5to?5Cheat?9Free?5serv@ 0046cf74     cl_main.obj
 0003:00000f9c       ??_C@_0CJ@IJNL@CL_EstablishConnection?3?5connecte@ 0046cf9c     cl_main.obj
 0003:00000fc8       ??_C@_0P@HPPN@connect?5failed?$AA@ 0046cfc8     cl_main.obj
 0003:00000fd8       ??_C@_0BH@OKOO@?6Try?5using?5port?526000?6?$AA@ 0046cfd8     cl_main.obj
 0003:00000ff0       ??_C@_0DB@BBMJ@?6syntax?3?5connect?5server?3port?5?$CIpo@ 0046cff0     cl_main.obj
 0003:00001024       ??_C@_05PKJE@begin?$AA@    0046d024     cl_main.obj
 0003:0000102c       ??_C@_0BC@NFMK@Could?5not?5load?5?$CFs?$AA@ 0046d02c     cl_main.obj
 0003:00001040       ??_C@_0BC@FJLG@Could?5not?5open?5?$CFs?$AA@ 0046d040     cl_main.obj
 0003:00001054       ??_C@_02JKAF@rb?$AA@       0046d054     cl_main.obj
 0003:00001058       ??_C@_04BAIL@?4EXE?$AA@    0046d058     cl_main.obj
 0003:00001060       ??_C@_04NFOM@?4exe?$AA@    0046d060     cl_main.obj
 0003:00001068       ??_C@_08JNEC@spawn?5?$CFs?$AA@ 0046d068     cl_main.obj
 0003:00001074       ??_C@_0N@LHIF@color?5?$CFi?5?$CFi?6?$AA@ 0046d074     cl_main.obj
 0003:00001084       ??_C@_0L@IIIJ@name?5?$CC?$CFs?$CC?6?$AA@ 0046d084     cl_main.obj
 0003:00001090       ??_C@_08KJLE@prespawn?$AA@ 0046d090     cl_main.obj
 0003:0000109c       ??_C@_0BE@PFDN@CL_SignonReply?3?5?$CFi?6?$AA@ 0046d09c     cl_main.obj
 0003:000010b0       ??_C@_0N@HDLD@playdemo?5?$CFs?6?$AA@ 0046d0b0     cl_main.obj
 0003:000010c0       ??_C@_0CB@JGPI@No?5demos?5listed?5with?5startdemos?6@ 0046d0c0     cl_main.obj
 0003:000010e4       ??_C@_0DB@GDFB@?$CFs?3?$CF2i?5?5?$CI?$CF5?41f?0?$CF5?41f?0?$CF5?41f?$CJ?5?$FL?$CF5?4@ 0046d0e4     cl_main.obj
 0003:00001118       ??_C@_06MLN@EMPTY?6?$AA@   0046d118     cl_main.obj
 0003:00001120       ??_C@_04KJND@?$CF3i?3?$AA@ 0046d120     cl_main.obj
 0003:00001128       ??_C@_01BJG@?6?$AA@        0046d128     cl_main.obj
 0003:0000112c       ??_C@_0CK@BJLN@CL_ReadFromServer?3?5lost?5server?5c@ 0046d12c     cl_main.obj
 0003:00001158       ??_C@_0CJ@OLLL@CL_WriteToServer?3?5lost?5server?5co@ 0046d158     cl_main.obj
 0003:00001184       ??_C@_0BO@MOJM@CL_WriteToServer?3?5can?8t?5send?6?$AA@ 0046d184     cl_main.obj
 0003:000011a4       ??_C@_03CBNM@fov?$AA@      0046d1a4     cl_main.obj
 0003:000011a8       ??_C@_0CF@PPMG@RestoreFOV?3?5No?5saved?5FOV?5to?5rest@ 0046d1a8     cl_main.obj
 0003:000011d0       ??_C@_0DF@HHNM@RestoreSensitivity?3?5No?5saved?5SEN@ 0046d1d0     cl_main.obj
 0003:00001208       ??_C@_0CO@MEHK@You?5are?5at?5xyz?5?$DN?5?$CFi?5?$CFi?5?$CFi?5?5?5angl@ 0046d208     cl_main.obj
 0003:00001238       ??_C@_07NEL@viewpos?$AA@   0046d238     cl_main.obj
 0003:00001240       ??_C@_0BD@FFFJ@restoresensitivity?$AA@ 0046d240     cl_main.obj
 0003:00001254       ??_C@_0L@DCKM@restorefov?$AA@ 0046d254     cl_main.obj
 0003:00001260       ??_C@_0BA@LHLK@savesensitivity?$AA@ 0046d260     cl_main.obj
 0003:00001270       ??_C@_07EOA@savefov?$AA@   0046d270     cl_main.obj
 0003:00001278       ??_C@_08NIMA@timedemo?$AA@ 0046d278     cl_main.obj
 0003:00001284       ??_C@_08BENC@playdemo?$AA@ 0046d284     cl_main.obj
 0003:00001290       ??_C@_06JNOM@record?$AA@   0046d290     cl_main.obj
 0003:00001298       ??_C@_0L@FPLB@disconnect?$AA@ 0046d298     cl_main.obj
 0003:000012a4       ??_C@_08FHPN@entities?$AA@ 0046d2a4     cl_main.obj
 0003:000012b0       _svc_strings               0046d2b0     cl_parse.obj
 0003:00001344       ??_C@_0N@BMKD@svc_cutscene?$AA@ 0046d344     cl_parse.obj
 0003:00001354       ??_C@_0P@ODKF@svc_sellscreen?$AA@ 0046d354     cl_parse.obj
 0003:00001364       ??_C@_0M@HBOC@svc_cdtrack?$AA@ 0046d364     cl_parse.obj
 0003:00001370       ??_C@_0L@MFPK@svc_finale?$AA@ 0046d370     cl_parse.obj
 0003:0000137c       ??_C@_0BB@JAEH@svc_intermission?$AA@ 0046d37c     cl_parse.obj
 0003:00001390       ??_C@_0BF@MGJC@svc_spawnstaticsound?$AA@ 0046d390     cl_parse.obj
 0003:000013a8       ??_C@_0BA@FHLA@svc_foundsecret?$AA@ 0046d3a8     cl_parse.obj
 0003:000013b8       ??_C@_0BC@KLJC@svc_killedmonster?$AA@ 0046d3b8     cl_parse.obj
 0003:000013cc       ??_C@_0BA@HFKB@svc_centerprint?$AA@ 0046d3cc     cl_parse.obj
 0003:000013dc       ??_C@_0O@NMFN@svc_signonnum?$AA@ 0046d3dc     cl_parse.obj
 0003:000013ec       ??_C@_0N@GPEM@svc_setpause?$AA@ 0046d3ec     cl_parse.obj
 0003:000013fc       ??_C@_0BA@DEAN@svc_temp_entity?$AA@ 0046d3fc     cl_parse.obj
 0003:0000140c       ??_C@_0BC@NKGK@svc_spawnbaseline?$AA@ 0046d40c     cl_parse.obj
 0003:00001420       ??_C@_0BJ@KPCM@OBSOLETE?5svc_spawnbinary?$AA@ 0046d420     cl_parse.obj
 0003:0000143c       ??_C@_0BA@KNK@svc_spawnstatic?$AA@ 0046d43c     cl_parse.obj
 0003:0000144c       ??_C@_0L@OMN@svc_damage?$AA@ 0046d44c     cl_parse.obj
 0003:00001458       ??_C@_0N@KJBJ@svc_particle?$AA@ 0046d458     cl_parse.obj
 0003:00001468       ??_C@_0BB@CGNA@svc_updatecolors?$AA@ 0046d468     cl_parse.obj
 0003:0000147c       ??_C@_0O@HCEL@svc_stopsound?$AA@ 0046d47c     cl_parse.obj
 0003:0000148c       ??_C@_0P@BEGB@svc_clientdata?$AA@ 0046d48c     cl_parse.obj
 0003:0000149c       ??_C@_0BA@EDLH@svc_updatefrags?$AA@ 0046d49c     cl_parse.obj
 0003:000014ac       ??_C@_0P@BJJB@svc_updatename?$AA@ 0046d4ac     cl_parse.obj
 0003:000014bc       ??_C@_0P@DCEP@svc_lightstyle?$AA@ 0046d4bc     cl_parse.obj
 0003:000014cc       ??_C@_0P@DCBA@svc_serverinfo?$AA@ 0046d4cc     cl_parse.obj
 0003:000014dc       ??_C@_0N@CGPN@svc_setangle?$AA@ 0046d4dc     cl_parse.obj
 0003:000014ec       ??_C@_0O@DCLL@svc_stufftext?$AA@ 0046d4ec     cl_parse.obj
 0003:000014fc       ??_C@_09FEEA@svc_print?$AA@ 0046d4fc     cl_parse.obj
 0003:00001508       ??_C@_08GPBA@svc_time?$AA@ 0046d508     cl_parse.obj
 0003:00001514       ??_C@_09CLHB@svc_sound?$AA@ 0046d514     cl_parse.obj
 0003:00001520       ??_C@_0M@CIIO@svc_setview?$AA@ 0046d520     cl_parse.obj
 0003:0000152c       ??_C@_0M@DNG@svc_version?$AA@ 0046d52c     cl_parse.obj
 0003:00001538       ??_C@_0P@BAF@svc_updatestat?$AA@ 0046d538     cl_parse.obj
 0003:00001548       ??_C@_0P@JIEH@svc_disconnect?$AA@ 0046d548     cl_parse.obj
 0003:00001558       ??_C@_07GEPH@svc_nop?$AA@  0046d558     cl_parse.obj
 0003:00001560       ??_C@_07HNJP@svc_bad?$AA@  0046d560     cl_parse.obj
 0003:00001568       ??_C@_0CG@LAGH@CL_EntityNum?3?5?$CFi?5is?5an?5invalid?5n@ 0046d568     cl_parse.obj
 0003:00001590       ??_C@_0CD@PKNK@CL_ParseStartSoundPacket?3?5ent?5?$DN?5@ 0046d590     cl_parse.obj
 0003:000015b4       ??_C@_0CI@CCIO@CL_KeepaliveMessage?3?5received?5a?5@ 0046d5b4     cl_parse.obj
 0003:000015dc       ??_C@_0CL@GNHA@CL_KeepaliveMessage?3?5datagram?5wa@ 0046d5dc     cl_parse.obj
 0003:00001608       ??_C@_0CA@IMOP@?9?9?$DO?5client?5to?5server?5keepalive?6?$AA@ 0046d608     cl_parse.obj
 0003:00001628       ??_C@_0CK@LCCK@CL_KeepaliveMessage?3?5CL_GetMessa@ 0046d628     cl_parse.obj
 0003:00001654       ??_C@_0CB@CBON@Bad?5maxclients?5?$CI?$CFu?$CJ?5from?5server?6@ 0046d654     cl_parse.obj
 0003:00001678       ??_C@_0CG@JMAP@Server?5sent?5too?5many?5model?5preca@ 0046d678     cl_parse.obj
 0003:000016a0       ??_C@_0CG@PIHF@Server?5sent?5too?5many?5sound?5preca@ 0046d6a0     cl_parse.obj
 0003:000016c8       ??_C@_0BE@NMK@Model?5?$CFs?5not?5found?6?$AA@ 0046d6c8     cl_parse.obj
 0003:000016dc       ??_C@_05MCIF@?$CFc?$CFs?6?$AA@ 0046d6dc     cl_parse.obj
 0003:000016e4       ??_C@_0CK@BGKO@?6?6?$BN?$BO?$BO?$BO?$BO?$BO?$BO?$BO?$BO?$BO?$BO?$BO?$BO?$BO?$BO?$BO?$BO?$BO?$BO?$BO?$BO?$BO?$BO?$BO?$BO?$BO?$BO?$BO?$BO?$BO@ 0046d6e4     cl_parse.obj
 0003:00001710       ??_C@_08HPCO@teamscor?$AA@ 0046d710     cl_parse.obj
 0003:0000171c       ??_C@_06CLLB@scores?$AA@   0046d71c     cl_parse.obj
 0003:00001724       ??_C@_0CD@OFII@Server?5returned?5version?5?$CFi?0?5not?5@ 0046d724     cl_parse.obj
 0003:00001748       ??_C@_0BN@FKKD@Serverinfo?5packet?5received?4?6?$AA@ 0046d748     cl_parse.obj
 0003:00001768       ??_C@_0BD@NMBD@i?5?$DO?$DN?5cl?4maxclients?$AA@ 0046d768     cl_parse.obj
 0003:0000177c       ??_C@_0BK@BKHA@CL_ParseModel?3?5bad?5modnum?$AA@ 0046d77c     cl_parse.obj
 0003:00001798       ??_C@_0CI@CGO@CL_NewTranslation?3?5slot?5?$DO?5cl?4max@ 0046d798     cl_parse.obj
 0003:000017c0       ??_C@_0BJ@FLDC@Too?5many?5static?5entities?$AA@ 0046d7c0     cl_parse.obj
 0003:000017dc       ??_C@_0DJ@LIC@CL_ParseProQuakeMessage?3?5pqc_pin@ 0046d7dc     cl_parse.obj
 0003:00001818       ??_C@_0DF@BAJI@CL_ParseProQuakeMessage?3?5pqc_tea@ 0046d818     cl_parse.obj
 0003:00001850       ??_C@_0DF@EIII@CL_ParseProQuakeMessage?3?5pqc_era@ 0046d850     cl_parse.obj
 0003:00001888       ??_C@_0DD@BDJF@CL_ParseProQuakeMessage?3?5pqc_new@ 0046d888     cl_parse.obj
 0003:000018bc       ??_C@_0M@BMIC@wqpro?5?$CF2?42f?$AA@ 0046d8bc     cl_parse.obj
 0003:000018c8       ??_C@_0BJ@JDAO@say?5ProQuake?5version?5?$CFs?6?$AA@ 0046d8c8     cl_parse.obj
 0003:000018e4       ??_C@_09BCNC@q_version?$AA@ 0046d8e4     cl_parse.obj
 0003:000018f0       ??_C@_0M@JBBB@?5?5?5?$CFd?4?$CFd?4?$CFd?$AA@ 0046d8f0     cl_parse.obj
 0003:000018fc       ??_C@_03HAMA@?$CD?$CFd?$AA@ 0046d8fc     cl_parse.obj
 0003:00001900       ??_C@_09NOOK@players?3?5?$AA@ 0046d900     cl_parse.obj
 0003:0000190c       ??_C@_09GLII@host?3?5?5?5?5?$AA@ 0046d90c     cl_parse.obj
 0003:00001918       ??_C@_0BE@FHMB@?5minutes?5remaining?6?$AA@ 0046d918     cl_parse.obj
 0003:0000192c       ??_C@_0BA@GIIE@Match?5begins?5in?$AA@ 0046d92c     cl_parse.obj
 0003:0000193c       ??_C@_0BD@GJO@The?5match?5is?5over?6?$AA@ 0046d93c     cl_parse.obj
 0003:00001950       ??_C@_0BA@MPJE@Match?5unpaused?6?$AA@ 0046d950     cl_parse.obj
 0003:00001960       ??_C@_0O@PME@Match?5paused?6?$AA@ 0046d960     cl_parse.obj
 0003:00001970       ??_C@_02MECO@?$CFd?$AA@    0046d970     cl_parse.obj
 0003:00001974       ??_C@_0P@OLEO@Match?5ends?5in?5?$AA@ 0046d974     cl_parse.obj
 0003:00001984       ??_C@_0BE@FMOM@Client?5ping?5times?3?6?$AA@ 0046d984     cl_parse.obj
 0003:00001998       ??_C@_0P@HHDF@END?5OF?5MESSAGE?$AA@ 0046d998     cl_parse.obj
 0003:000019a8       ??_C@_0DB@OJCG@CL_ParseServerMessage?3?5Illegible@ 0046d9a8     cl_parse.obj
 0003:000019dc       ??_C@_04MHDN@help?$AA@     0046d9dc     cl_parse.obj
 0003:000019e4       ??_C@_0BO@JEEG@svc_updatestat?3?5?$CFi?5is?5invalid?$AA@ 0046d9e4     cl_parse.obj
 0003:00001a04       ??_C@_0BO@IFDJ@Received?5signon?5?$CFi?5when?5at?5?$CFi?$AA@ 0046da04     cl_parse.obj
 0003:00001a24       ??_C@_0DJ@MLAO@CL_ParseServerMessage?3?5svc_updat@ 0046da24     cl_parse.obj
 0003:00001a60       ??_C@_0DI@HHLM@CL_ParseServerMessage?3?5svc_updat@ 0046da60     cl_parse.obj
 0003:00001a98       ??_C@_0DH@MOFA@CL_ParseServerMessage?3?5svc_updat@ 0046da98     cl_parse.obj
 0003:00001ad0       ??_C@_0CB@BPCP@svc_lightstyle?5?$DO?5MAX_LIGHTSTYLES@ 0046dad0     cl_parse.obj
 0003:00001af4       ??_C@_02DILL@?$CFs?$AA@    0046daf4     cl_parse.obj
 0003:00001af8       ??_C@_0BF@BAGD@Server?5disconnected?6?$AA@ 0046daf8     cl_parse.obj
 0003:00001b10       ??_C@_0DM@LKKG@CL_ParseServerMessage?3?5Server?5is@ 0046db10     cl_parse.obj
 0003:00001b4c       ??_C@_07FCJJ@?$CF3i?3?$CFs?6?$AA@ 0046db4c     cl_parse.obj
 0003:00001b54       ??_C@_0M@MBII@fast?5update?$AA@ 0046db54     cl_parse.obj
 0003:00001b60       ??_C@_0CK@FPGD@CL_ParseServerMessage?3?5Bad?5serve@ 0046db60     cl_parse.obj
 0003:00001b8c       ??_C@_0BE@DLJO@?9?9?9?9?9?9?9?9?9?9?9?9?9?9?9?9?9?9?6?$AA@ 0046db8c     cl_parse.obj
 0003:00001ba0       ??_C@_03NGHA@?$CFi?5?$AA@  0046dba0     cl_parse.obj
 0003:00001ba4       ??_C@_0BD@JJCD@weapons?1r_exp3?4wav?$AA@ 0046dba4     cl_tent.obj
 0003:00001bb8       ??_C@_0BB@CBJF@weapons?1ric3?4wav?$AA@ 0046dbb8     cl_tent.obj
 0003:00001bcc       ??_C@_0BB@IBLA@weapons?1ric2?4wav?$AA@ 0046dbcc     cl_tent.obj
 0003:00001be0       ??_C@_0BB@GBNP@weapons?1ric1?4wav?$AA@ 0046dbe0     cl_tent.obj
 0003:00001bf4       ??_C@_0BC@LJNF@weapons?1tink1?4wav?$AA@ 0046dbf4     cl_tent.obj
 0003:00001c08       ??_C@_0BA@DGOB@hknight?1hit?4wav?$AA@ 0046dc08     cl_tent.obj
 0003:00001c18       ??_C@_0P@EBKD@wizard?1hit?4wav?$AA@ 0046dc18     cl_tent.obj
 0003:00001c28       ??_C@_0BF@FOL@beam?5list?5overflow?$CB?6?$AA@ 0046dc28     cl_tent.obj
 0003:00001c40       ??_C@_0BH@OMGP@CL_ParseTEnt?3?5bad?5type?$AA@ 0046dc40     cl_tent.obj
 0003:00001c58       ??_C@_0P@EBOO@progs?1beam?4mdl?$AA@ 0046dc58     cl_tent.obj
 0003:00001c68       ??_C@_0BA@BFCK@progs?1bolt3?4mdl?$AA@ 0046dc68     cl_tent.obj
 0003:00001c78       ??_C@_0BA@LFAP@progs?1bolt2?4mdl?$AA@ 0046dc78     cl_tent.obj
 0003:00001c88       ??_C@_0P@KFBD@progs?1bolt?4mdl?$AA@ 0046dc88     cl_tent.obj
 0003:00001c9c       ??_C@_0BI@FHKM@Cbuf_AddText?3?5overflow?6?$AA@ 0046dc9c     cmd.obj
 0003:00001cb4       ??_C@_04KLAK@cmd?5?$AA@    0046dcb4     cmd.obj
 0003:00001cbc       ??_C@_01FCOA@?5?$AA@       0046dcbc     cmd.obj
 0003:00001cc0       ??_C@_0BM@LEJG@Automatic?5aliases?5disabled?6?$AA@ 0046dcc0     cmd.obj
 0003:00001cdc       ??_C@_0BO@OKCP@Extended?5aliases?5initialized?6?$AA@ 0046dcdc     cmd.obj
 0003:00001cfc       ??_C@_0KD@DMKF@alias?5?9zoom?5?$CCfov?532?$DL?5sensitivity@ 0046dcfc     cmd.obj
 0003:00001da0       ??_C@_0LP@EJHJ@alias?5?$CLzoom?5?$CCsavefov?$DL?5savesensit@ 0046dda0     cmd.obj
 0003:00001e60       ??_C@_0BP@PPJ@Automatic?5sound?5keys?5disabled?6?$AA@ 0046de60     cmd.obj
 0003:00001e80       ??_C@_0BF@NNFB@bind?5?$CC?$DN?$CC?5?$CCvolumeup?$CC?6?$AA@ 0046de80     cmd.obj
 0003:00001e98       ??_C@_0BH@PNDD@bind?5?$CC?9?$CC?5?$CCvolumedown?$CC?6?$AA@ 0046de98     cmd.obj
 0003:00001eb0       ??_C@_0N@PMDC@?9nosoundkeys?$AA@ 0046deb0     cmd.obj
 0003:00001ec0       ??_C@_0DN@JBPI@alias?5teamloc?5?$CCsay_team?5I?5am?5at?5@ 0046dec0     cmd.obj
 0003:00001f00       ??_C@_0CI@PECA@alias?5bestsafe?5?$CCbestweapon?58?55?53@ 0046df00     cmd.obj
 0003:00001f28       ??_C@_0DK@IGLH@alias?5?9quickshot?5?$CC?9attack?$DLwait?$DLb@ 0046df28     cmd.obj
 0003:00001f64       ??_C@_0DI@LOPN@alias?5?$CLquickshot?5?$CC?9attack?$DLwait?$DLi@ 0046df64     cmd.obj
 0003:00001f9c       ??_C@_0DL@DNLB@alias?5?9quickshaft?5?$CC?9attack?$DLwait?$DL@ 0046df9c     cmd.obj
 0003:00001fd8       ??_C@_0DJ@NNEM@alias?5?$CLquickshaft?5?$CC?9attack?$DLwait?$DL@ 0046dfd8     cmd.obj
 0003:00002014       ??_C@_0DM@HHAB@alias?5?9quickrocket?5?$CC?9attack?$DLwait@ 0046e014     cmd.obj
 0003:00002050       ??_C@_0DK@ILCF@alias?5?$CLquickrocket?5?$CC?9attack?$DLwait@ 0046e050     cmd.obj
 0003:0000208c       ??_C@_0DN@MCAJ@alias?5?9quickgrenade?5?$CC?9attack?$DLwai@ 0046e08c     cmd.obj
 0003:000020cc       ??_C@_0DL@JIJA@alias?5?$CLquickgrenade?5?$CC?9attack?$DLwai@ 0046e0cc     cmd.obj
 0003:00002108       ??_C@_0BB@JCBJ@?9noinjectaliases?$AA@ 0046e108     cmd.obj
 0003:0000211c       ??_C@_0CN@JPG@stuffcmds?5?3?5execute?5command?5line@ 0046e11c     cmd.obj
 0003:0000214c       ??_C@_0M@GPPH@execing?5?$CFs?6?$AA@ 0046e14c     cmd.obj
 0003:00002158       ??_C@_0BC@KCJJ@couldn?8t?5exec?5?$CFs?6?$AA@ 0046e158     cmd.obj
 0003:0000216c       ??_C@_0CJ@PCFP@exec?5?$DMfilename?$DO?5?3?5execute?5a?5scri@ 0046e16c     cmd.obj
 0003:00002198       ??_C@_03CENI@?$CFs?5?$AA@  0046e198     cmd.obj
 0003:0000219c       ??_C@_0BI@KAAD@Alias?5name?5is?5too?5long?6?$AA@ 0046e19c     cmd.obj
 0003:000021b4       ??_C@_08KOAJ@?$CFs?5?3?5?$CFs?6?$AA@ 0046e1b4     cmd.obj
 0003:000021c0       ??_C@_0BJ@KMBC@Current?5alias?5commands?3?6?$AA@ 0046e1c0     cmd.obj
 0003:000021dc       ??_C@_02JJJH@?6?6?$AA@     0046e1dc     cmd.obj
 0003:000021e0       ??_C@_0BF@FJAO@?5beginning?5with?5?$CC?$CFs?$CC?$AA@ 0046e1e0     cmd.obj
 0003:000021f8       ??_C@_0P@PPNC@?6?$CFi?5command?$CIs?$CJ?$AA@ 0046e1f8     cmd.obj
 0003:00002208       ??_C@_03HHKO@?$CFs?6?$AA@  0046e208     cmd.obj
 0003:0000220c       ??_C@_0CE@BKIP@Cmd_AddCommand?3?5?$CFs?5already?5defin@ 0046e20c     cmd.obj
 0003:00002230       ??_C@_0CN@NAFC@Cmd_AddCommand?3?5?$CFs?5already?5defin@ 0046e230     cmd.obj
 0003:00002260       ??_C@_0CG@MEBK@Cmd_AddCommand?5after?5host_initia@ 0046e260     cmd.obj
 0003:00002288       ??_C@_01PFJK@?$HO?$AA@     0046e288     cmd.obj
 0003:0000228c       ??_C@_0BG@GPBN@Unknown?5command?5?$CC?$CFs?$CC?6?$AA@ 0046e28c     cmd.obj
 0003:000022a4       ??_C@_03OKJL@cmd?$AA@      0046e2a4     cmd.obj
 0003:000022a8       ??_C@_07DNFA@?$CFd?3?$CF02d?$AA@ 0046e2a8     cmd.obj
 0003:000022b0       ??_C@_08PAEI@say_team?$AA@ 0046e2b0     cmd.obj
 0003:000022bc       ??_C@_03NJAM@say?$AA@      0046e2bc     cmd.obj
 0003:000022c0       ??_C@_0BL@GCG@Can?8t?5?$CC?$CFs?$CC?0?5not?5connected?6?$AA@ 0046e2c0     cmd.obj
 0003:000022dc       ??_C@_06LFIA@matrix?$AA@   0046e2dc     cmd.obj
 0003:000022e4       ??_C@_07KFEL@cmdlist?$AA@  0046e2e4     cmd.obj
 0003:000022ec       ??_C@_04OMDE@wait?$AA@     0046e2ec     cmd.obj
 0003:000022f4       ??_C@_05CBKM@alias?$AA@    0046e2f4     cmd.obj
 0003:000022fc       ??_C@_04EDEH@echo?$AA@     0046e2fc     cmd.obj
 0003:00002304       ??_C@_04DBD@exec?$AA@      0046e304     cmd.obj
 0003:0000230c       ??_C@_09CLNK@stuffcmds?$AA@ 0046e30c     cmd.obj
 0003:00002338       _registered                0046e338     common.obj
 0003:00002358       _cmdline                   0046e358     common.obj
 0003:00002374       _static_registered         0046e374     common.obj
 0003:00002378       _standard_quake            0046e378     common.obj
 0003:0000237c       _pop                       0046e37c     common.obj
 0003:0000247c       ??_C@_07DFFB@cmdline?$AA@  0046e47c     common.obj
 0003:00002484       ??_C@_0L@PFPI@registered?$AA@ 0046e484     common.obj
 0003:00002490       ??_C@_08ONIC@?9dibonly?$AA@ 0046e490     common.obj
 0003:0000249c       ??_C@_08HGMM@?9nomouse?$AA@ 0046e49c     common.obj
 0003:000024a8       ??_C@_06MAKJ@?9nojoy?$AA@  0046e4a8     common.obj
 0003:000024b0       ??_C@_08IMAG@?9nosound?$AA@ 0046e4b0     common.obj
 0003:000024bc       ??_C@_06BCOA@?9nolan?$AA@  0046e4bc     common.obj
 0003:000024c4       ??_C@_07GFJD@?9stdvid?$AA@ 0046e4c4     common.obj
 0003:000024cc       ??_C@_07DLNM@sizebuf?$AA@  0046e4cc     common.obj
 0003:000024d4       ??_C@_0BG@OLML@SZ_GetSpace?3?5overflow?$AA@ 0046e4d4     common.obj
 0003:000024ec       ??_C@_0CG@FFIF@SZ_GetSpace?3?5?$CFi?5is?5?$DO?5full?5buffer@ 0046e4ec     common.obj
 0003:00002514       ??_C@_0DA@KHCI@SZ_GetSpace?3?5overflow?5without?5al@ 0046e514     common.obj
 0003:00002544       ??_C@_07IENB@?$DPmodel?$DP?$AA@ 0046e544     common.obj
 0003:0000254c       ??_C@_0BN@HCFH@Playing?5registered?5version?4?6?$AA@ 0046e54c     common.obj
 0003:0000256c       ??_C@_0BF@JMLK@Corrupted?5data?5file?4?$AA@ 0046e56c     common.obj
 0003:00002584       ??_C@_0DL@FGGC@You?5must?5have?5the?5registered?5ver@ 0046e584     common.obj
 0003:000025c0       ??_C@_0BM@BNBE@Playing?5shareware?5version?4?6?$AA@ 0046e5c0     common.obj
 0003:000025dc       ??_C@_0M@IOEP@gfx?1pop?4lmp?$AA@ 0046e5dc     common.obj
 0003:000025e8       ??_C@_09OMPJ@?9hipnotic?$AA@ 0046e5e8     common.obj
 0003:000025f4       ??_C@_06GMIG@?9rogue?$AA@  0046e5f4     common.obj
 0003:000025fc       ??_C@_05ILKK@?9safe?$AA@   0046e5fc     common.obj
 0003:00002604       ??_C@_04NCOD@path?$AA@     0046e604     common.obj
 0003:0000260c       ??_C@_0P@JHJD@?$CFs?5?$CI?$CFi?5files?$CJ?6?$AA@ 0046e60c     common.obj
 0003:0000261c       ??_C@_0BG@FLGJ@Current?5search?5path?3?6?$AA@ 0046e61c     common.obj
 0003:00002634       ??_C@_0BD@DPMJ@COM_WriteFile?3?5?$CFs?6?$AA@ 0046e634     common.obj
 0003:00002648       ??_C@_0BN@FPIM@COM_WriteFile?3?5failed?5on?5?$CFs?6?$AA@ 0046e648     common.obj
 0003:00002668       ??_C@_0O@LDDB@FindFile?3?5?$CFs?6?$AA@ 0046e668     common.obj
 0003:00002678       ??_C@_04DCMN@?$CFs?$CFs?$AA@ 0046e678     common.obj
 0003:00002680       ??_C@_0BD@IIFO@PackFile?3?5?$CFs?5?3?5?$CFs?6?$AA@ 0046e680     common.obj
 0003:00002694       ??_C@_0BJ@GFA@FindFile?3?5can?8t?5find?5?$CFs?6?$AA@ 0046e694     common.obj
 0003:000026b0       ??_C@_09LPDF@progs?4dat?$AA@ 0046e6b0     common.obj
 0003:000026bc       ??_C@_0CJ@CFJB@COM_FindFile?3?5neither?5handle?5or?5@ 0046e6bc     common.obj
 0003:000026e8       ??_C@_0CH@JJIF@COM_FindFile?3?5both?5handle?5and?5fi@ 0046e6e8     common.obj
 0003:00002710       ??_C@_0BK@ODEA@COM_LoadFile?3?5bad?5usehunk?$AA@ 0046e710     common.obj
 0003:0000272c       ??_C@_0CG@OKJD@COM_LoadFile?3?5not?5enough?5space?5f@ 0046e72c     common.obj
 0003:00002754       ??_C@_0BO@MJKF@Added?5packfile?5?$CFs?5?$CI?$CFi?5files?$CJ?6?$AA@ 0046e754     common.obj
 0003:00002774       ??_C@_08BIJE@packfile?$AA@ 0046e774     common.obj
 0003:00002780       ??_C@_0BA@JCJE@?$CFs?5has?5?$CFi?5files?$AA@ 0046e780     common.obj
 0003:00002790       ??_C@_0BF@CNCN@?$CFs?5is?5not?5a?5packfile?$AA@ 0046e790     common.obj
 0003:000027a8       ??_C@_0N@LFPJ@?$CFs?1pak?$CFi?4pak?$AA@ 0046e7a8     common.obj
 0003:000027b8       ??_C@_09HCGA@?9proghack?$AA@ 0046e7b8     common.obj
 0003:000027c4       ??_C@_0BL@PGI@Couldn?8t?5load?5packfile?3?5?$CFs?$AA@ 0046e7c4     common.obj
 0003:000027e0       ??_C@_03NDGJ@pak?$AA@      0046e7e0     common.obj
 0003:000027e4       ??_C@_05PHND@?9path?$AA@   0046e7e4     common.obj
 0003:000027ec       ??_C@_05MFGI@?9game?$AA@   0046e7ec     common.obj
 0003:000027f4       ??_C@_0M@BNJI@?$CFs?1hipnotic?$AA@ 0046e7f4     common.obj
 0003:00002800       ??_C@_08MHLI@?$CFs?1rogue?$AA@ 0046e800     common.obj
 0003:0000280c       ??_C@_06JDAK@?$CFs?1id1?$AA@ 0046e80c     common.obj
 0003:00002814       ??_C@_09GHNH@?9cachedir?$AA@ 0046e814     common.obj
 0003:00002820       ??_C@_08LGCD@?9basedir?$AA@ 0046e820     common.obj
 0003:0000282c       ??_C@_0BO@GPEP@Couldn?8t?5create?5QHOST?5thread?6?$AA@ 0046e82c     conproc.obj
 0003:0000284c       ??_C@_0BM@CFBN@Couldn?8t?5create?5heventDone?6?$AA@ 0046e84c     conproc.obj
 0003:00002868       ??_C@_0BF@BPBE@Invalid?5hfileBuffer?6?$AA@ 0046e868     conproc.obj
 0003:00002880       _con_cursorspeed           0046e880     console.obj
 0003:00002888       _con_notifytime            0046e888     console.obj
 0003:000028a8       __con_notifylines          0046e8a8     console.obj
 0003:000028c8       _pq_confilter              0046e8c8     console.obj
 0003:000028e8       _pq_timestamp              0046e8e8     console.obj
 0003:00002908       _pq_removecr               0046e908     console.obj
 0003:00002924       ??_C@_0M@NGI@pq_removecr?$AA@ 0046e924     console.obj
 0003:00002930       ??_C@_0N@JBCE@pq_timestamp?$AA@ 0046e930     console.obj
 0003:00002940       ??_C@_0N@GADP@pq_confilter?$AA@ 0046e940     console.obj
 0003:00002950       ??_C@_01FBMM@4?$AA@        0046e950     console.obj
 0003:00002954       ??_C@_0BA@JNAC@con_notifylines?$AA@ 0046e954     console.obj
 0003:00002964       ??_C@_0P@KPEI@con_notifytime?$AA@ 0046e964     console.obj
 0003:00002974       ??_C@_04NOLC@?$CFs?5?6?$AA@ 0046e974     console.obj
 0003:0000297c       ??_C@_0BI@OEBF@?$CFB?5?$CFm?0?5?$CFY?5?9?5?$CFI?3?$CFM?3?$CFS?5?$CFp?$AA@ 0046e97c     console.obj
 0003:00002994       ??_C@_0BM@IEDC@Dumped?5console?5text?5to?5?$CFs?4?6?$AA@ 0046e994     console.obj
 0003:000029b0       ??_C@_0BM@OPDN@ERROR?3?5couldn?8t?5open?5file?4?6?$AA@ 0046e9b0     console.obj
 0003:000029cc       ??_C@_01LLF@w?$AA@         0046e9cc     console.obj
 0003:000029d0       ??_C@_0P@HJP@?$CFs?1condump?4txt?$AA@ 0046e9d0     console.obj
 0003:000029e0       ??_C@_0BF@BCMJ@Console?5initialized?6?$AA@ 0046e9e0     console.obj
 0003:000029f8       ??_C@_04EKDK@time?$AA@     0046e9f8     console.obj
 0003:00002a00       ??_C@_07BOCA@condump?$AA@  0046ea00     console.obj
 0003:00002a08       ??_C@_05BDJO@clear?$AA@    0046ea08     console.obj
 0003:00002a10       ??_C@_0N@OKBC@messagemode2?$AA@ 0046ea10     console.obj
 0003:00002a20       ??_C@_0M@KMFF@messagemode?$AA@ 0046ea20     console.obj
 0003:00002a2c       ??_C@_0O@PBHO@toggleconsole?$AA@ 0046ea2c     console.obj
 0003:00002a3c       ??_C@_0BG@JNHM@Console?5initialized?4?6?$AA@ 0046ea3c     console.obj
 0003:00002a54       ??_C@_07OGJO@context?$AA@  0046ea54     console.obj
 0003:00002a5c       ??_C@_06JFCC@?$CFs?1?$CFs?6?$AA@ 0046ea5c     console.obj
 0003:00002a64       ??_C@_0BH@HDM@Log?5file?5initialized?4?6?$AA@ 0046ea64     console.obj
 0003:00002a7c       ??_C@_0N@PJHK@qconsole?4log?$AA@ 0046ea7c     console.obj
 0003:00002a8c       ??_C@_06NBHN@?$CFs?4log?$AA@ 0046ea8c     console.obj
 0003:00002a94       ??_C@_04EJJN@?4log?$AA@    0046ea94     console.obj
 0003:00002a9c       ??_C@_09NLAC@?9condebug?$AA@ 0046ea9c     console.obj
 0003:00002aa8       ??_C@_04LGDF@?$CF02d?$AA@  0046eaa8     console.obj
 0003:00002ab0       ??_C@_08IMEM@?$CFd?$CFc?$CF02d?$AA@ 0046eab0     console.obj
 0003:00002abc       ??_C@_0O@DEBE@misc?1talk?4wav?$AA@ 0046eabc     console.obj
 0003:00002acc       ??_C@_0BC@EGLJ@not?5enough?5ammo?4?6?$AA@ 0046eacc     console.obj
 0003:00002ae0       ??_C@_0M@BLKA@no?5weapon?4?6?$AA@ 0046eae0     console.obj
 0003:00002aec       ??_C@_0N@HICM@You?5got?5the?5?$AA@ 0046eaec     console.obj
 0003:00002afc       ??_C@_0N@LCFC@You?5receive?5?$AA@ 0046eafc     console.obj
 0003:00002b0c       ??_C@_0P@IHFI@You?5got?5armor?6?$AA@ 0046eb0c     console.obj
 0003:00002b1c       ??_C@_04BNNP@say?3?$AA@    0046eb1c     console.obj
 0003:00002b24       ??_C@_06IFEI@?$CIsay?$CJ?3?$AA@ 0046eb24     console.obj
 0003:00002d2c       _cvar_null_string          0046ed2c     cvar.obj
 0003:00002d30       ??_C@_0M@CEAM@?6?$CFi?5cvar?$CIs?$CJ?$AA@ 0046ed30     cvar.obj
 0003:00002d3c       ??_C@_0M@LKBJ@?$CFs?5is?5?$FL?$CFs?$FN?6?$AA@ 0046ed3c     cvar.obj
 0003:00002d48       ??_C@_0BN@PKAF@toggle?5?$DMcvar?$DO?5?3?5toggle?5cvar?6?$AA@ 0046ed48     cvar.obj
 0003:00002d68       ??_C@_0CG@LLPK@reset?5?$DMcvar?$DO?5?3?5reset?5cvar?5to?5def@ 0046ed68     cvar.obj
 0003:00002d90       ??_C@_0P@DMBC@cvar_reset_all?$AA@ 0046ed90     cvar.obj
 0003:00002da0       ??_C@_0P@JDKK@cvar_reset_one?$AA@ 0046eda0     cvar.obj
 0003:00002db0       ??_C@_06KGCE@toggle?$AA@   0046edb0     cvar.obj
 0003:00002db8       ??_C@_08DHNN@cvarlist?$AA@ 0046edb8     cvar.obj
 0003:00002dc4       ??_C@_0BJ@EAII@variable?5?$CC?$CFs?$CC?5not?5found?6?$AA@ 0046edc4     cvar.obj
 0003:00002de0       ??_C@_0BE@MBFB@say?5?$CC?$CFcping?5?$CL?$CFd?$CFc?$CC?6?$AA@ 0046ede0     cvar.obj
 0003:00002df4       ??_C@_0CB@BPME@Cvar_Set?3?5variable?5?$CFs?5not?5found?6@ 0046edf4     cvar.obj
 0003:00002e18       ??_C@_03GPIO@400?$AA@      0046ee18     cvar.obj
 0003:00002e1c       ??_C@_0BC@POLO@?$CC?$CFs?$CC?5set?5to?5?$CC?$CFs?$CC?6?$AA@ 0046ee1c     cvar.obj
 0003:00002e30       ??_C@_0BG@KGDI@?$CC?$CFs?$CC?5changed?5to?5?$CC?$CFs?$CC?6?$AA@ 0046ee30     cvar.obj
 0003:00002e48       ??_C@_02JBAA@?$CFf?$AA@    0046ee48     cvar.obj
 0003:00002e4c       ??_C@_0CI@OBBM@Cvar_RegisterVariable?3?5?$CFs?5is?5a?5c@ 0046ee4c     cvar.obj
 0003:00002e74       ??_C@_0CN@GPEJ@Can?8t?5register?5variable?5?$CFs?0?5alre@ 0046ee74     cvar.obj
 0003:00002ea4       ??_C@_0O@MKMN@?$CC?$CFs?$CC?5is?5?$CC?$CFs?$CC?6?$AA@ 0046eea4     cvar.obj
 0003:00002eb4       ??_C@_08IDHN@?$CFs?5?$CC?$CFs?$CC?6?$AA@ 0046eeb4     cvar.obj
 0003:00002ec0       ??_C@_0BA@DOPF@?6?1?1?5Variables?6?6?$AA@ 0046eec0     cvar.obj
 0003:00002ed0       _d_subdiv16                0046eed0     d_init.obj
 0003:00002ef0       _d_mipcap                  0046eef0     d_init.obj
 0003:00002f10       _d_mipscale                0046ef10     d_init.obj
 0003:00002f38       ??_C@_0L@NMOA@d_mipscale?$AA@ 0046ef38     d_init.obj
 0003:00002f44       ??_C@_08GMMI@d_mipcap?$AA@ 0046ef44     d_init.obj
 0003:00002f50       ??_C@_0L@KOLI@d_subdiv16?$AA@ 0046ef50     d_init.obj
 0003:00002f60       _edgetables                0046ef60     d_polyse.obj
 0003:00005110       ??_C@_0P@OGGN@?9surfcachesize?$AA@ 00471110     d_surf.obj
 0003:00005120       ??_C@_0BK@CLKC@D_CheckCacheGuard?3?5failed?$AA@ 00471120     d_surf.obj
 0003:0000513c       ??_C@_0BD@KA@?$CFik?5surface?5cache?6?$AA@ 0047113c     d_surf.obj
 0003:00005150       ??_C@_0CB@BKBM@D_SCAlloc?3?5hit?5the?5end?5of?5memory@ 00471150     d_surf.obj
 0003:00005174       ??_C@_0BL@ILLB@D_SCAlloc?3?5?$CFi?5?$DO?5cache?5size?$AA@ 00471174     d_surf.obj
 0003:00005190       ??_C@_0BO@CAOH@D_SCAlloc?3?5bad?5cache?5size?5?$CFd?6?$AA@ 00471190     d_surf.obj
 0003:000051b0       ??_C@_0BP@BJDK@D_SCAlloc?3?5bad?5cache?5width?5?$CFd?6?$AA@ 004711b0     d_surf.obj
 0003:000051d0       ??_C@_0CB@PLLH@Draw_CachePic?3?5failed?5to?5load?5?$CFs@ 004711d0     draw.obj
 0003:000051f4       ??_C@_0CF@NNGN@menu_numcachepics?5?$DN?$DN?5MAX_CACHED_@ 004711f4     draw.obj
 0003:0000521c       ??_C@_08BFKF@backtile?$AA@ 0047121c     draw.obj
 0003:00005228       ??_C@_04EIGL@disc?$AA@     00471228     draw.obj
 0003:00005230       ??_C@_08CFBM@conchars?$AA@ 00471230     draw.obj
 0003:0000523c       ??_C@_0BK@GEDK@Draw_Pic?3?5bad?5coordinates?$AA@ 0047123c     draw.obj
 0003:00005258       ??_C@_0BP@NEKG@Draw_TransPic?3?5bad?5coordinates?$AA@ 00471258     draw.obj
 0003:00005278       ??_C@_0BB@MPKB@?$CIProQuake?$CJ?5?$CF4?42f?$AA@ 00471278     draw.obj
 0003:0000528c       ??_C@_0BA@NHIB@gfx?1conback?4lmp?$AA@ 0047128c     draw.obj
 0003:000052a0       _host_framerate            004712a0     host.obj
 0003:000052c0       _host_speeds               004712c0     host.obj
 0003:000052e0       _sys_ticrate               004712e0     host.obj
 0003:00005300       _serverprofile             00471300     host.obj
 0003:00005320       _fraglimit                 00471320     host.obj
 0003:00005340       _timelimit                 00471340     host.obj
 0003:00005360       _teamplay                  00471360     host.obj
 0003:00005380       _samelevel                 00471380     host.obj
 0003:000053a0       _noexit                    004713a0     host.obj
 0003:000053c0       _developer                 004713c0     host.obj
 0003:000053e0       _skill                     004713e0     host.obj
 0003:00005400       _deathmatch                00471400     host.obj
 0003:00005420       _coop                      00471420     host.obj
 0003:00005440       _pausable                  00471440     host.obj
 0003:00005460       _temp1                     00471460     host.obj
 0003:00005480       _proquake                  00471480     host.obj
 0003:000054a0       _pq_spam_rate              004714a0     host.obj
 0003:000054c0       _pq_spam_grace             004714c0     host.obj
 0003:000054e0       _pq_tempmute               004714e0     host.obj
 0003:00005500       _pq_logbinds               00471500     host.obj
 0003:00005520       _pq_showedict              00471520     host.obj
 0003:00005540       _pq_dequake                00471540     host.obj
 0003:00005560       _pq_maxfps                 00471560     host.obj
 0003:0000557c       ??_C@_04COCG@72?40?$AA@    0047157c     host.obj
 0003:00005584       ??_C@_09MLHF@pq_maxfps?$AA@ 00471584     host.obj
 0003:00005590       ??_C@_0L@MMB@pq_dequake?$AA@ 00471590     host.obj
 0003:0000559c       ??_C@_0N@NFHC@pq_showedict?$AA@ 0047159c     host.obj
 0003:000055ac       ??_C@_0M@NIAM@pq_logbinds?$AA@ 004715ac     host.obj
 0003:000055b8       ??_C@_0M@BIEO@pq_tempmute?$AA@ 004715b8     host.obj
 0003:000055c4       ??_C@_03LIKG@999?$AA@      004715c4     host.obj
 0003:000055c8       ??_C@_0O@EJAM@pq_spam_grace?$AA@ 004715c8     host.obj
 0003:000055d8       ??_C@_0N@MIA@pq_spam_rate?$AA@ 004715d8     host.obj
 0003:000055e8       ??_C@_04FMDB@L33T?$AA@     004715e8     host.obj
 0003:000055f0       ??_C@_08PBPD@proquake?$AA@ 004715f0     host.obj
 0003:000055fc       ??_C@_05MIDM@temp1?$AA@    004715fc     host.obj
 0003:00005604       ??_C@_08KABJ@pausable?$AA@ 00471604     host.obj
 0003:00005610       ??_C@_04INDM@coop?$AA@     00471610     host.obj
 0003:00005618       ??_C@_0L@IKBP@deathmatch?$AA@ 00471618     host.obj
 0003:00005624       ??_C@_05MIHE@skill?$AA@    00471624     host.obj
 0003:0000562c       ??_C@_09KOCP@developer?$AA@ 0047162c     host.obj
 0003:00005638       ??_C@_06HAJK@noexit?$AA@   00471638     host.obj
 0003:00005640       ??_C@_09IFFP@samelevel?$AA@ 00471640     host.obj
 0003:0000564c       ??_C@_08FHKG@teamplay?$AA@ 0047164c     host.obj
 0003:00005658       ??_C@_09GBNJ@timelimit?$AA@ 00471658     host.obj
 0003:00005664       ??_C@_09DPJO@fraglimit?$AA@ 00471664     host.obj
 0003:00005670       ??_C@_0O@MFND@serverprofile?$AA@ 00471670     host.obj
 0003:00005680       ??_C@_04IFNE@0?405?$AA@    00471680     host.obj
 0003:00005688       ??_C@_0M@IDH@sys_ticrate?$AA@ 00471688     host.obj
 0003:00005694       ??_C@_0M@LLOJ@host_speeds?$AA@ 00471694     host.obj
 0003:000056a0       ??_C@_0P@JFHD@host_framerate?$AA@ 004716a0     host.obj
 0003:000056b0       ??_C@_0BC@LGOP@Host_EndGame?3?5?$CFs?6?$AA@ 004716b0     host.obj
 0003:000056c4       ??_C@_0BA@ONPM@Host_Error?3?5?$CFs?6?$AA@ 004716c4     host.obj
 0003:000056d4       ??_C@_0CA@FDPI@Host_Error?3?5recursively?5entered?$AA@ 004716d4     host.obj
 0003:000056f4       ??_C@_07JEGC@clients?$AA@  004716f4     host.obj
 0003:000056fc       ??_C@_0DD@ELJN@Only?5one?5of?5?9dedicated?5or?5?9liste@ 004716fc     host.obj
 0003:00005730       ??_C@_07LMOF@?9listen?$AA@ 00471730     host.obj
 0003:00005738       ??_C@_0L@FNLL@?9dedicated?$AA@ 00471738     host.obj
 0003:00005744       ??_C@_0M@DAKA@writeconfig?$AA@ 00471744     host.obj
 0003:00005750       ??_C@_0CP@ONPE@?6?1?1?5?$CK?$CK?$CK?$CK?$CK?$CK?$CK?$CK?$CK?$CK?$CK?$CK?$CK?$CK?$CK?$CK?$CK?$CK?$CK?$CK?$CK?$CK?$CK?$CK?$CK?$CK?$CK?$CK@ 00471750     host.obj
 0003:00005780       ??_C@_0CB@FLDG@?1?1?5Your?5screenshots?5folder?3?5?5?$CFs?6@ 00471780     host.obj
 0003:000057a4       ??_C@_0BL@PLJ@?1?1?5Your?5demos?5folder?3?5?5?$CFs?6?$AA@ 004717a4     host.obj
 0003:000057c0       ??_C@_0BP@DJNH@?1?1?5Your?5maps?5folder?3?5?5?$CFs?2maps?6?$AA@ 004717c0     host.obj
 0003:000057e0       ??_C@_03GMME@?1?1?6?$AA@   004717e0     host.obj
 0003:000057e4       ??_C@_07EEIM@?1?1?5?$CFs?5?6?$AA@ 004717e4     host.obj
 0003:000057ec       ??_C@_0CB@JFIH@?1?1?5Your?5last?5commmand?5line?3?5?6?1?1?6@ 004717ec     host.obj
 0003:00005810       ??_C@_0CM@JLEK@?1?1?5Generated?5by?5Unofficial?5ProQu@ 00471810     host.obj
 0003:0000583c       ??_C@_0CO@OMFG@?1?1?5?$CK?$CK?$CK?$CK?$CK?$CK?$CK?$CK?$CK?$CK?$CK?$CK?$CK?$CK?$CK?$CK?$CK?$CK?$CK?$CK?$CK?$CK?$CK?$CK?$CK?$CK?$CK?$CK?$CK@ 0047183c     host.obj
 0003:0000586c       ??_C@_0BD@CDPL@Couldn?8t?5write?5?$CFs?6?$AA@ 0047186c     host.obj
 0003:00005880       ??_C@_0L@DMHA@config?4cfg?$AA@ 00471880     host.obj
 0003:0000588c       ??_C@_0M@EDDL@Writing?5?$CFs?6?$AA@ 0047188c     host.obj
 0003:00005898       ??_C@_04MELH@?4cfg?$AA@    00471898     host.obj
 0003:000058a0       ??_C@_0BP@JGGC@Usage?3?5writeconfig?5?$DMfilename?$DO?6?$AA@ 004718a0     host.obj
 0003:000058c0       ??_C@_0BD@DIPM@Client?5?$CFs?5removed?6?$AA@ 004718c0     host.obj
 0003:000058d4       ??_C@_0DK@HKPD@Host_ShutdownServer?3?5NET_SendToA@ 004718d4     host.obj
 0003:00005910       ??_C@_0BB@NPLA@Clearing?5memory?6?$AA@ 00471910     host.obj
 0003:00005924       ??_C@_08LCGG@port?5?$CFd?6?$AA@ 00471924     host.obj
 0003:00005930       ??_C@_0CE@LPBL@?$CF3i?5tot?5?$CF3i?5server?5?$CF3i?5gfx?5?$CF3i?5s@ 00471930     host.obj
 0003:00005954       ??_C@_0CF@GHNF@serverprofile?3?5?$CF2i?5clients?5?$CF2i?5m@ 00471954     host.obj
 0003:0000597c       ??_C@_07KPDG@?9record?$AA@ 0047197c     host.obj
 0003:00005984       ??_C@_0BP@GKIC@Invalid?5signature?5in?5vcr?5file?6?$AA@ 00471984     host.obj
 0003:000059a4       ??_C@_0BJ@GCDC@playback?5file?5not?5found?6?$AA@ 004719a4     host.obj
 0003:000059c0       ??_C@_09HIAP@quake?4vcr?$AA@ 004719c0     host.obj
 0003:000059cc       ??_C@_0CM@BIPA@No?5other?5parameters?5allowed?5with@ 004719cc     host.obj
 0003:000059f8       ??_C@_09HLLP@?9playback?$AA@ 004719f8     host.obj
 0003:00005a04       ??_C@_0CE@GFP@?$DN?$DN?$DN?$DN?$DN?$DN?$DN?$DNQuake?5Initialized?$DN?$DN?$DN?$DN?$DN?$DN?$DN@ 00471a04     host.obj
 0003:00005a28       ??_C@_0BB@COLB@?9HOST_HUNKLEVEL?9?$AA@ 00471a28     host.obj
 0003:00005a3c       ??_C@_0BB@KCCB@savesensitivity?6?$AA@ 00471a3c     host.obj
 0003:00005a50       ??_C@_08HAJC@savefov?6?$AA@ 00471a50     host.obj
 0003:00005a5c       ??_C@_0P@MGMK@exec?5quake?4rc?6?$AA@ 00471a5c     host.obj
 0003:00005a6c       ??_C@_0BP@GCLN@Couldn?8t?5load?5gfx?1colormap?4lmp?$AA@ 00471a6c     host.obj
 0003:00005a8c       ??_C@_0BB@PBP@gfx?1colormap?4lmp?$AA@ 00471a8c     host.obj
 0003:00005aa0       ??_C@_0BO@MOOI@Couldn?8t?5load?5gfx?1palette?4lmp?$AA@ 00471aa0     host.obj
 0003:00005ac0       ??_C@_0BA@GMCF@gfx?1palette?4lmp?$AA@ 00471ac0     host.obj
 0003:00005ad0       ??_C@_0BF@OOEK@?$CF4?41f?5megabyte?5heap?6?$AA@ 00471ad0     host.obj
 0003:00005ae8       ??_C@_0BL@PGAF@Exe?3?508?357?329?5Dec?5?55?52007?6?$AA@ 00471ae8     host.obj
 0003:00005b04       ??_C@_07CCBD@gfx?4wad?$AA@ 00471b04     host.obj
 0003:00005b0c       ??_C@_0DI@CPOI@Only?5?$CF4?41f?5megs?5of?5memory?5availa@ 00471b0c     host.obj
 0003:00005b44       ??_C@_0L@FNGG@?9minmemory?$AA@ 00471b44     host.obj
 0003:00005b50       ??_C@_0BE@OJFD@recursive?5shutdown?6?$AA@ 00471b50     host.obj
 0003:00005b68       _cl_confirmquit            00471b68     host_cmd.obj
 0003:00005b84       _unfun                     00471b84     host_cmd.obj
 0003:00005c08       _cmd_rand                  00471c08     host_cmd.obj
 0003:00005c6c       ??_C@_0P@JEAG@cl_confirmquit?$AA@ 00471c6c     host_cmd.obj
 0003:00005c7c       ??_C@_06GNEC@?5?5?5?$CFs?6?$AA@ 00471c7c     host_cmd.obj
 0003:00005c84       ??_C@_0BB@GEOI@?5?5?5?$CFd?4?$CFd?4?$CFd?4xxx?6?$AA@ 00471c84     host_cmd.obj
 0003:00005c98       ??_C@_09MNPC@?9noipmask?$AA@ 00471c98     host_cmd.obj
 0003:00005ca4       ??_C@_08HBKF@?$CFd?4?$CFd?4?$CFd?$AA@ 00471ca4     host_cmd.obj
 0003:00005cb0       ??_C@_0CE@FLHP@?$CD?$CF?92u?5?$CF?916?416s?5?5?$CF3i?5?5?$CF2i?3?$CF02i?3?$CF0@ 00471cb0     host_cmd.obj
 0003:00005cd4       ??_C@_0BO@NINF@players?3?5?$CFi?5active?5?$CI?$CFi?5max?$CJ?6?6?$AA@ 00471cd4     host_cmd.obj
 0003:00005cf4       ??_C@_0N@NPOM@map?3?5?5?5?5?5?$CFs?6?$AA@ 00471cf4     host_cmd.obj
 0003:00005d04       ??_C@_0N@FECH@ipx?3?5?5?5?5?5?$CFs?6?$AA@ 00471d04     host_cmd.obj
 0003:00005d14       ??_C@_0N@KLIB@tcp?1ip?3?5?5?$CFs?6?$AA@ 00471d14     host_cmd.obj
 0003:00005d24       ??_C@_0BM@JOGH@version?3?5ProQuake?5?$CF4?42f?5?$CFs?6?$AA@ 00471d24     host_cmd.obj
 0003:00005d40       ??_C@_0L@DMMI@cheat?9free?$AA@ 00471d40     host_cmd.obj
 0003:00005d4c       ??_C@_0N@OAIO@host?3?5?5?5?5?$CFs?6?$AA@ 00471d4c     host_cmd.obj
 0003:00005d5c       ??_C@_08NNNB@hostname?$AA@ 00471d5c     host_cmd.obj
 0003:00005d68       ??_C@_0CG@PBIJ@Not?5connected?5to?5a?5cheat?9free?5se@ 00471d68     host_cmd.obj
 0003:00005d90       ??_C@_0CC@ODMN@Connected?5to?5a?5cheat?9free?5server@ 00471d90     host_cmd.obj
 0003:00005db4       ??_C@_0CB@NGCL@This?5is?5not?5a?5cheat?9free?5server?6@ 00471db4     host_cmd.obj
 0003:00005dd8       ??_C@_0BN@DDIN@This?5is?5a?5cheat?9free?5server?6?$AA@ 00471dd8     host_cmd.obj
 0003:00005df8       ??_C@_0M@EOGG@godmode?5ON?6?$AA@ 00471df8     host_cmd.obj
 0003:00005e04       ??_C@_0N@JADG@godmode?5OFF?6?$AA@ 00471e04     host_cmd.obj
 0003:00005e14       ??_C@_0N@HPPA@notarget?5ON?6?$AA@ 00471e14     host_cmd.obj
 0003:00005e24       ??_C@_0O@EPAH@notarget?5OFF?6?$AA@ 00471e24     host_cmd.obj
 0003:00005e34       ??_C@_0M@GMEE@noclip?5OFF?6?$AA@ 00471e34     host_cmd.obj
 0003:00005e40       ??_C@_0L@DMHD@noclip?5ON?6?$AA@ 00471e40     host_cmd.obj
 0003:00005e4c       ??_C@_0N@PALB@flymode?5OFF?6?$AA@ 00471e4c     host_cmd.obj
 0003:00005e5c       ??_C@_0M@MJAE@flymode?5ON?6?$AA@ 00471e5c     host_cmd.obj
 0003:00005e68       ??_C@_07IPOM@?$CF4i?5?$CFs?6?$AA@ 00471e68     host_cmd.obj
 0003:00005e70       ??_C@_0O@GJD@connect?5local?$AA@ 00471e70     host_cmd.obj
 0003:00005e80       ??_C@_0BM@GJLH@Spawning?5cheat?9free?5server?6?$AA@ 00471e80     host_cmd.obj
 0003:00005e9c       ??_C@_0CB@NOHM@Only?5the?5server?5may?5changelevel?6@ 00471e9c     host_cmd.obj
 0003:00005ec0       ??_C@_0DI@NJEG@changelevel?5?$DMlevelname?$DO?5?3?5contin@ 00471ec0     host_cmd.obj
 0003:00005ef8       ??_C@_0O@HEAD@kills?3?$CF3i?1?$CF3i?$AA@ 00471ef8     host_cmd.obj
 0003:00005f08       ??_C@_06CGEE@done?4?6?$AA@ 00471f08     host_cmd.obj
 0003:00005f10       ??_C@_02IHDF@m?6?$AA@      00471f10     host_cmd.obj
 0003:00005f14       ??_C@_03HMFC@?$CFd?6?$AA@  00471f14     host_cmd.obj
 0003:00005f18       ??_C@_03FBAH@?$CFf?6?$AA@  00471f18     host_cmd.obj
 0003:00005f1c       ??_C@_0CD@OJJN@Can?8t?5savegame?5with?5a?5dead?5playe@ 00471f1c     host_cmd.obj
 0003:00005f40       ??_C@_0BG@EMLE@Saving?5game?5to?5?$CFs?4?4?4?6?$AA@ 00471f40     host_cmd.obj
 0003:00005f58       ??_C@_04IHGP@?4sav?$AA@    00471f58     host_cmd.obj
 0003:00005f60       ??_C@_0BP@FLNB@save?5?$DMsavename?$DO?5?3?5save?5a?5game?6?$AA@ 00471f60     host_cmd.obj
 0003:00005f80       ??_C@_0BP@PNCA@Can?8t?5save?5multiplayer?5games?4?6?$AA@ 00471f80     host_cmd.obj
 0003:00005fa0       ??_C@_0BN@BPOO@Can?8t?5save?5in?5intermission?4?6?$AA@ 00471fa0     host_cmd.obj
 0003:00005fc0       ??_C@_0BL@BMLI@Not?5playing?5a?5local?5game?4?6?$AA@ 00471fc0     host_cmd.obj
 0003:00005fdc       ??_C@_05PDHF@local?$AA@    00471fdc     host_cmd.obj
 0003:00005fe4       ??_C@_0BK@BGOH@First?5token?5isn?8t?5a?5brace?$AA@ 00471fe4     host_cmd.obj
 0003:00006000       ??_C@_01PFFB@?$HL?$AA@     00472000     host_cmd.obj
 0003:00006004       ??_C@_0BJ@MFA@Loadgame?5buffer?5overflow?$AA@ 00472004     host_cmd.obj
 0003:00006020       ??_C@_0BD@MHKC@Couldn?8t?5load?5map?6?$AA@ 00472020     host_cmd.obj
 0003:00006034       ??_C@_0CA@PDOO@Savegame?5is?5version?5?$CFi?0?5not?5?$CFi?6?$AA@ 00472034     host_cmd.obj
 0003:00006054       ??_C@_01LHO@r?$AA@         00472054     host_cmd.obj
 0003:00006058       ??_C@_0BJ@ODKN@Loading?5game?5from?5?$CFs?4?4?4?6?$AA@ 00472058     host_cmd.obj
 0003:00006074       ??_C@_0BP@MMMB@load?5?$DMsavename?$DO?5?3?5load?5a?5game?6?$AA@ 00472074     host_cmd.obj
 0003:00006094       ??_C@_0BC@GMNE@?$CFs?5renamed?5to?5?$CFs?6?$AA@ 00472094     host_cmd.obj
 0003:000060a8       ??_C@_0M@PCGH@unconnected?$AA@ 004720a8     host_cmd.obj
 0003:000060b4       ??_C@_0BA@KMHK@?$CCname?$CC?5is?5?$CC?$CFs?$CC?6?$AA@ 004720b4     host_cmd.obj
 0003:000060c4       ??_C@_0BI@BDIP@ProQuake?5Version?5?$CF4?42f?6?$AA@ 004720c4     host_cmd.obj
 0003:000060dc       ??_C@_07IGBM@?$CFc?$DM?$CFs?$DO?5?$AA@ 004720dc     host_cmd.obj
 0003:000060e4       ??_C@_06OFNJ@?$CFc?$CFs?3?5?$AA@ 004720e4     host_cmd.obj
 0003:000060ec       ??_C@_08GFEH@?$CFc?$CI?$CFs?$CJ?3?5?$AA@ 004720ec     host_cmd.obj
 0003:000060f8       ??_C@_04OKJA@?$CD?$CFd?5?$AA@ 004720f8     host_cmd.obj
 0003:00006100       ??_C@_02HFBK@?3?5?$AA@     00472100     host_cmd.obj
 0003:00006104       ??_C@_0CC@FKFO@?$CFcTell?5is?5diabled?5on?5this?5server@ 00472104     host_cmd.obj
 0003:00006128       ??_C@_0BF@KIPM@color?5?$DM0?913?$DO?5?$FL0?913?$FN?6?$AA@ 00472128     host_cmd.obj
 0003:00006140       ??_C@_0BE@JKGD@?$CCcolor?$CC?5is?5?$CC?$CFi?5?$CFi?$CC?6?$AA@ 00472140     host_cmd.obj
 0003:00006154       ??_C@_0CA@LFNL@Can?8t?5suicide?5?9?9?5already?5dead?$CB?6?$AA@ 00472154     host_cmd.obj
 0003:00006174       ??_C@_0BG@PCPM@?$CFs?5unpaused?5the?5game?6?$AA@ 00472174     host_cmd.obj
 0003:0000618c       ??_C@_0BE@LLKL@?$CFs?5paused?5the?5game?6?$AA@ 0047218c     host_cmd.obj
 0003:000061a0       ??_C@_0BE@FCM@Pause?5not?5allowed?4?6?$AA@ 004721a0     host_cmd.obj
 0003:000061b4       ??_C@_0CH@DOA@prespawn?5not?5valid?5?9?9?5already?5sp@ 004721b4     host_cmd.obj
 0003:000061dc       ??_C@_0CI@FOJM@prespawn?5is?5not?5valid?5from?5the?5c@ 004721dc     host_cmd.obj
 0003:00006204       ??_C@_0BF@LIFO@?$CFs?5entered?5the?5game?6?$AA@ 00472204     host_cmd.obj
 0003:0000621c       ??_C@_0CG@IMNK@?$CFs?5?$CI?$CFs?$CJ?5connected?5with?5an?5invali@ 0047221c     host_cmd.obj
 0003:00006244       ??_C@_0P@LBLP@?$CFs?5is?5invalid?6?$AA@ 00472244     host_cmd.obj
 0003:00006254       ??_C@_0BJ@MFLK@?$CFs?5does?5not?5have?5map?5?$CFs?6?$AA@ 00472254     host_cmd.obj
 0003:00006270       ??_C@_0CO@GNNL@?$CFs?5?$CI?$CFs?$CJ?5connected?5with?5an?5invali@ 00472270     host_cmd.obj
 0003:000062a0       ??_C@_0BE@MFNI@Invalid?5executable?6?$AA@ 004722a0     host_cmd.obj
 0003:000062b4       ??_C@_0CE@PLIL@Spawn?5not?5valid?5?9?9?5already?5spawn@ 004722b4     host_cmd.obj
 0003:000062d8       ??_C@_0CF@DKEA@spawn?5is?5not?5valid?5from?5the?5cons@ 004722d8     host_cmd.obj
 0003:00006300       ??_C@_0CF@DOOH@begin?5is?5not?5valid?5from?5the?5cons@ 00472300     host_cmd.obj
 0003:00006328       ??_C@_0O@KFOC@Kicked?5by?5?$CFs?6?$AA@ 00472328     host_cmd.obj
 0003:00006338       ??_C@_0BC@PJJ@Kicked?5by?5?$CFs?3?5?$CFs?6?$AA@ 00472338     host_cmd.obj
 0003:0000634c       ??_C@_07MJOI@Console?$AA@  0047234c     host_cmd.obj
 0003:00006354       ??_C@_01KNFJ@?$CD?$AA@     00472354     host_cmd.obj
 0003:00006358       ??_C@_0M@IAPO@ammo_plasma?$AA@ 00472358     host_cmd.obj
 0003:00006364       ??_C@_0M@PEJF@ammo_cells1?$AA@ 00472364     host_cmd.obj
 0003:00006370       ??_C@_0BD@EK@ammo_multi_rockets?$AA@ 00472370     host_cmd.obj
 0003:00006384       ??_C@_0O@EGAE@ammo_rockets1?$AA@ 00472384     host_cmd.obj
 0003:00006394       ??_C@_0BA@OILF@ammo_lava_nails?$AA@ 00472394     host_cmd.obj
 0003:000063a4       ??_C@_0M@KKDL@ammo_nails1?$AA@ 004723a4     host_cmd.obj
 0003:000063b0       ??_C@_0N@KMMJ@ammo_shells1?$AA@ 004723b0     host_cmd.obj
 0003:000063c0       ??_C@_0BF@GFCA@No?5viewthing?5on?5map?6?$AA@ 004723c0     host_cmd.obj
 0003:000063d8       ??_C@_09LJEN@viewthing?$AA@ 004723d8     host_cmd.obj
 0003:000063e4       ??_C@_0P@ONHF@Can?8t?5load?5?$CFs?6?$AA@ 004723e4     host_cmd.obj
 0003:000063f4       ??_C@_0O@KALN@frame?5?$CFi?3?5?$CFs?6?$AA@ 004723f4     host_cmd.obj
 0003:00006404       ??_C@_0BE@ELIH@?$CFi?5demo?$CIs?$CJ?5in?5loop?6?$AA@ 00472404     host_cmd.obj
 0003:00006418       ??_C@_0BK@JGJE@Max?5?$CFi?5demos?5in?5demoloop?6?$AA@ 00472418     host_cmd.obj
 0003:00006434       ??_C@_0L@OBHA@map?5start?6?$AA@ 00472434     host_cmd.obj
 0003:00006440       ??_C@_0BA@NHFL@No?5such?5player?6?$AA@ 00472440     host_cmd.obj
 0003:00006450       ??_C@_0CK@IAIM@No?5IP?5information?5for?5?$CF?415s?6Use?5@ 00472450     host_cmd.obj
 0003:0000647c       ??_C@_0BH@PKJK@known?5aliases?5for?5?$CFs?3?6?$AA@ 0047247c     host_cmd.obj
 0003:00006494       ??_C@_0CL@MJAO@Could?5not?5determine?5IP?5informati@ 00472494     host_cmd.obj
 0003:000064c0       ??_C@_0BN@LDOB@known?5aliases?5for?5?$CFd?4?$CFd?4?$CFd?3?6?$AA@ 004724c0     host_cmd.obj
 0003:000064e0       ??_C@_0CJ@POGK@usage?3?5identify?5?$DMplayer?5number?5o@ 004724e0     host_cmd.obj
 0003:0000650c       ??_C@_0DJ@OGIP@IP?5logging?5not?5available?6Use?5?9ip@ 0047250c     host_cmd.obj
 0003:00006548       ??_C@_04LFDJ@say?5?$AA@    00472548     host_cmd.obj
 0003:00006550       ??_C@_0L@EJGI@say_rand?$CFd?$AA@ 00472550     host_cmd.obj
 0003:0000655c       ??_C@_07GCCD@ipmerge?$AA@  0047255c     host_cmd.obj
 0003:00006564       ??_C@_06KECC@ipdump?$AA@   00472564     host_cmd.obj
 0003:0000656c       ??_C@_08IKIE@identify?$AA@ 0047256c     host_cmd.obj
 0003:00006578       ??_C@_06IICE@mcache?$AA@   00472578     host_cmd.obj
 0003:00006580       ??_C@_08BKOK@viewprev?$AA@ 00472580     host_cmd.obj
 0003:0000658c       ??_C@_08ODGP@viewnext?$AA@ 0047258c     host_cmd.obj
 0003:00006598       ??_C@_09DACD@viewframe?$AA@ 00472598     host_cmd.obj
 0003:000065a4       ??_C@_09EPPK@viewmodel?$AA@ 004725a4     host_cmd.obj
 0003:000065b0       ??_C@_08CAJI@stopdemo?$AA@ 004725b0     host_cmd.obj
 0003:000065bc       ??_C@_05IECP@demos?$AA@    004725bc     host_cmd.obj
 0003:000065c4       ??_C@_0L@EDEB@startdemos?$AA@ 004725c4     host_cmd.obj
 0003:000065d0       ??_C@_04JEOP@give?$AA@     004725d0     host_cmd.obj
 0003:000065d8       ??_C@_04MEDD@save?$AA@     004725d8     host_cmd.obj
 0003:000065e0       ??_C@_04JMJF@load?$AA@     004725e0     host_cmd.obj
 0003:000065e8       ??_C@_04LBKD@ping?$AA@     004725e8     host_cmd.obj
 0003:000065f0       ??_C@_04KGFE@kick?$AA@     004725f0     host_cmd.obj
 0003:000065f8       ??_C@_05PJKK@spawn?$AA@    004725f8     host_cmd.obj
 0003:00006600       ??_C@_04CHLA@kill?$AA@     00472600     host_cmd.obj
 0003:00006608       ??_C@_05HMGA@color?$AA@    00472608     host_cmd.obj
 0003:00006610       ??_C@_04HKFA@tell?$AA@     00472610     host_cmd.obj
 0003:00006618       ??_C@_07BPOH@version?$AA@  00472618     host_cmd.obj
 0003:00006620       ??_C@_06GMBK@noclip?$AA@   00472620     host_cmd.obj
 0003:00006628       ??_C@_04OPJK@name?$AA@     00472628     host_cmd.obj
 0003:00006630       ??_C@_09CKHG@reconnect?$AA@ 00472630     host_cmd.obj
 0003:0000663c       ??_C@_07DHIJ@connect?$AA@  0047263c     host_cmd.obj
 0003:00006644       ??_C@_0M@OCH@changelevel?$AA@ 00472644     host_cmd.obj
 0003:00006650       ??_C@_07FEIE@restart?$AA@  00472650     host_cmd.obj
 0003:00006658       ??_C@_03HKIL@map?$AA@      00472658     host_cmd.obj
 0003:0000665c       ??_C@_03BLHO@fly?$AA@      0047265c     host_cmd.obj
 0003:00006660       ??_C@_08BHIO@notarget?$AA@ 00472660     host_cmd.obj
 0003:0000666c       ??_C@_03IPJE@god?$AA@      0047266c     host_cmd.obj
 0003:00006670       ??_C@_04FKOI@quit?$AA@     00472670     host_cmd.obj
 0003:00006678       ??_C@_09FAFG@cheatfree?$AA@ 00472678     host_cmd.obj
 0003:00006684       ??_C@_06DKLM@status?$AA@   00472684     host_cmd.obj
 0003:0000668c       ??_C@_0BB@NIKM@?$CFs?1msgrand?$CFd?4txt?$AA@ 0047268c     host_cmd.obj
 0003:000066a0       _m_filter                  004726a0     in_win.obj
 0003:000066c0       _cl_keypad                 004726c0     in_win.obj
 0003:000066e0       _m_directinput             004726e0     in_win.obj
 0003:0000670c       _dwAxisFlags               0047270c     in_win.obj
 0003:00006728       _in_joystick               00472728     in_win.obj
 0003:00006748       _joy_name                  00472748     in_win.obj
 0003:00006768       _joy_advanced              00472768     in_win.obj
 0003:00006788       _joy_advaxisx              00472788     in_win.obj
 0003:000067a8       _joy_advaxisy              004727a8     in_win.obj
 0003:000067c8       _joy_advaxisz              004727c8     in_win.obj
 0003:000067e8       _joy_advaxisr              004727e8     in_win.obj
 0003:00006808       _joy_advaxisu              00472808     in_win.obj
 0003:00006828       _joy_advaxisv              00472828     in_win.obj
 0003:00006848       _joy_forwardthreshold      00472848     in_win.obj
 0003:00006868       _joy_sidethreshold         00472868     in_win.obj
 0003:00006888       _joy_flysensitivity        00472888     in_win.obj
 0003:000068a8       _joy_flythreshold          004728a8     in_win.obj
 0003:000068c8       _joy_pitchthreshold        004728c8     in_win.obj
 0003:000068e8       _joy_yawthreshold          004728e8     in_win.obj
 0003:00006908       _joy_forwardsensitivity    00472908     in_win.obj
 0003:00006928       _joy_sidesensitivity       00472928     in_win.obj
 0003:00006948       _joy_pitchsensitivity      00472948     in_win.obj
 0003:00006968       _joy_yawsensitivity        00472968     in_win.obj
 0003:00006988       _joy_wwhack1               00472988     in_win.obj
 0003:000069a8       _joy_wwhack2               004729a8     in_win.obj
 0003:00006a90       _m_forcewheel              00472a90     in_win.obj
 0003:00006ab0       _m_rate                    00472ab0     in_win.obj
 0003:00006ad0       _m_showrate                00472ad0     in_win.obj
 0003:00006bec       ??_C@_0L@EAKH@m_showrate?$AA@ 00472bec     in_win.obj
 0003:00006bf8       ??_C@_02DDJE@60?$AA@       00472bf8     in_win.obj
 0003:00006bfc       ??_C@_06BEMJ@m_rate?$AA@   00472bfc     in_win.obj
 0003:00006c04       ??_C@_0N@ENFA@m_forcewheel?$AA@ 00472c04     in_win.obj
 0003:00006c14       ??_C@_0L@OKNI@joywwhack2?$AA@ 00472c14     in_win.obj
 0003:00006c20       ??_C@_03IPNG@0?40?$AA@     00472c20     in_win.obj
 0003:00006c24       ??_C@_0L@BFGB@joywwhack1?$AA@ 00472c24     in_win.obj
 0003:00006c30       ??_C@_0BC@ODGG@joyyawsensitivity?$AA@ 00472c30     in_win.obj
 0003:00006c44       ??_C@_03NNMA@1?40?$AA@     00472c44     in_win.obj
 0003:00006c48       ??_C@_0BE@BPOE@joypitchsensitivity?$AA@ 00472c48     in_win.obj
 0003:00006c5c       ??_C@_0BD@NMFD@joysidesensitivity?$AA@ 00472c5c     in_win.obj
 0003:00006c70       ??_C@_0BG@JKFB@joyforwardsensitivity?$AA@ 00472c70     in_win.obj
 0003:00006c88       ??_C@_0BA@IJLN@joyyawthreshold?$AA@ 00472c88     in_win.obj
 0003:00006c98       ??_C@_0BC@LPHO@joypitchthreshold?$AA@ 00472c98     in_win.obj
 0003:00006cac       ??_C@_0BA@HDIF@joyflythreshold?$AA@ 00472cac     in_win.obj
 0003:00006cbc       ??_C@_04ONAI@?91?40?$AA@   00472cbc     in_win.obj
 0003:00006cc4       ??_C@_0BC@BJND@joyflysensitivity?$AA@ 00472cc4     in_win.obj
 0003:00006cd8       ??_C@_0BB@NEAN@joysidethreshold?$AA@ 00472cd8     in_win.obj
 0003:00006cec       ??_C@_04JDHO@0?415?$AA@    00472cec     in_win.obj
 0003:00006cf4       ??_C@_0BE@BIEK@joyforwardthreshold?$AA@ 00472cf4     in_win.obj
 0003:00006d08       ??_C@_0M@FDIE@joyadvaxisv?$AA@ 00472d08     in_win.obj
 0003:00006d14       ??_C@_0M@KMDN@joyadvaxisu?$AA@ 00472d14     in_win.obj
 0003:00006d20       ??_C@_0M@PJNI@joyadvaxisr?$AA@ 00472d20     in_win.obj
 0003:00006d2c       ??_C@_0M@KNGA@joyadvaxisz?$AA@ 00472d2c     in_win.obj
 0003:00006d38       ??_C@_0M@FCNJ@joyadvaxisy?$AA@ 00472d38     in_win.obj
 0003:00006d44       ??_C@_0M@PIEO@joyadvaxisx?$AA@ 00472d44     in_win.obj
 0003:00006d50       ??_C@_0M@MNJ@joyadvanced?$AA@ 00472d50     in_win.obj
 0003:00006d5c       ??_C@_07IGAI@joyname?$AA@  00472d5c     in_win.obj
 0003:00006d64       ??_C@_08GHPG@joystick?$AA@ 00472d64     in_win.obj
 0003:00006d70       ??_C@_0O@KHJL@m_directinput?$AA@ 00472d70     in_win.obj
 0003:00006d80       ??_C@_09JHKK@cl_keypad?$AA@ 00472d80     in_win.obj
 0003:00006d8c       ??_C@_08MAF@m_filter?$AA@  00472d8c     in_win.obj
 0003:00006d98       ??_C@_0BK@KOFC@Mouse?5DirectInput?5Change?6?$AA@ 00472d98     in_win.obj
 0003:00006db4       ??_C@_0N@ONFG@Serve?5wheel?6?$AA@ 00472db4     in_win.obj
 0003:00006dc4       ??_C@_0BB@NLDB@mouse?5rate?3?5?$CF3d?6?$AA@ 00472dc4     in_win.obj
 0003:00006dd8       ??_C@_09HJGJ@?9m_smooth?$AA@ 00472dd8     in_win.obj
 0003:00006de4       ??_C@_0BM@GEBK@Couldn?8t?5set?5DI?5buffersize?6?$AA@ 00472de4     in_win.obj
 0003:00006e00       ??_C@_0BM@KBIN@Couldn?8t?5set?5DI?5coop?5level?6?$AA@ 00472e00     in_win.obj
 0003:00006e1c       ??_C@_0BO@OIDM@Couldn?8t?5set?5DI?5mouse?5format?6?$AA@ 00472e1c     in_win.obj
 0003:00006e3c       ??_C@_0BP@MFB@Couldn?8t?5open?5DI?5mouse?5device?6?$AA@ 00472e3c     in_win.obj
 0003:00006e5c       ??_C@_0BL@MA@Couldn?8t?5get?5DI?5proc?5addr?6?$AA@ 00472e5c     in_win.obj
 0003:00006e78       ??_C@_0BD@NJCB@DirectInputCreateA?$AA@ 00472e78     in_win.obj
 0003:00006e8c       ??_C@_0BK@KDBO@Couldn?8t?5load?5dinput?4dll?6?$AA@ 00472e8c     in_win.obj
 0003:00006ea8       ??_C@_0L@NOHA@dinput?4dll?$AA@ 00472ea8     in_win.obj
 0003:00006eb4       ??_C@_0P@IDIM@?9noforcemparms?$AA@ 00472eb4     in_win.obj
 0003:00006ec4       ??_C@_0P@FFN@?9noforcemaccel?$AA@ 00472ec4     in_win.obj
 0003:00006ed4       ??_C@_0N@FJKO@?9noforcemspd?$AA@ 00472ed4     in_win.obj
 0003:00006ee4       ??_C@_0BN@DGML@DirectInput?5not?5initialized?6?$AA@ 00472ee4     in_win.obj
 0003:00006f04       ??_C@_0BN@BMIJ@Mouse?5smoothing?5initialized?6?$AA@ 00472f04     in_win.obj
 0003:00006f24       ??_C@_0BJ@GBNK@DirectInput?5initialized?6?$AA@ 00472f24     in_win.obj
 0003:00006f40       ??_C@_0BA@CLBL@MSWHEEL_ROLLMSG?$AA@ 00472f40     in_win.obj
 0003:00006f50       ??_C@_0BB@GLEF@force_centerview?$AA@ 00472f50     in_win.obj
 0003:00006f64       ??_C@_07FEFK@?9dinput?$AA@ 00472f64     in_win.obj
 0003:00006f6c       ??_C@_0BF@MFF@?6joystick?5detected?6?6?$AA@ 00472f6c     in_win.obj
 0003:00006f84       ??_C@_0DK@BDAB@joystick?5not?5found?5?9?9?5invalid?5jo@ 00472f84     in_win.obj
 0003:00006fc0       ??_C@_0CP@PJCK@joystick?5not?5found?5?9?9?5no?5valid?5j@ 00472fc0     in_win.obj
 0003:00006ff0       ??_C@_0CM@MNPO@?6joystick?5not?5found?5?9?9?5driver?5no@ 00472ff0     in_win.obj
 0003:0000701c       ??_C@_0BC@OLGL@joyadvancedupdate?$AA@ 0047301c     in_win.obj
 0003:00007030       ??_C@_0BB@KOMD@?6?$CFs?5configured?6?6?$AA@ 00473030     in_win.obj
 0003:00007044       ??_C@_0N@KMPN@?$CFs?1iplog?4dat?$AA@ 00473044     iplog.obj
 0003:00007054       ??_C@_05BBLE@iplog?$AA@    00473054     iplog.obj
 0003:0000705c       ??_C@_06MLJB@?9iplog?$AA@  0047305c     iplog.obj
 0003:00007064       ??_C@_0BD@FDMP@Could?5not?5open?5?$CFs?6?$AA@ 00473064     iplog.obj
 0003:00007078       ??_C@_0L@MDHA@Merged?5?$CFs?6?$AA@ 00473078     iplog.obj
 0003:00007084       ??_C@_0BL@HMPD@Usage?3?5ipmerge?5?$DMfilename?$DO?6?$AA@ 00473084     iplog.obj
 0003:000070a0       ??_C@_0BL@NAHD@Could?5not?5write?5iplog?4dat?6?$AA@ 004730a0     iplog.obj
 0003:000070bc       ??_C@_0N@IKDC@?$CFd?5?$CFs?5found?6?$AA@ 004730bc     iplog.obj
 0003:000070cc       ??_C@_07BGGN@entries?$AA@  004730cc     iplog.obj
 0003:000070d4       ??_C@_05BAMO@entry?$AA@    004730d4     iplog.obj
 0003:000070dc       ??_C@_0L@CKIB@?$CF?916s?5?5?$CFs?6?$AA@ 004730dc     iplog.obj
 0003:000070e8       ??_C@_0N@NAH@?$CFd?4?$CFd?4?$CFd?4xxx?$AA@ 004730e8     iplog.obj
 0003:000070f8       ??_C@_0BB@JKMC@Wrote?5iplog?4txt?6?$AA@ 004730f8     iplog.obj
 0003:0000710c       ??_C@_0BL@GPGI@Couldn?8t?5write?5iplog?4txt?4?6?$AA@ 0047310c     iplog.obj
 0003:00007128       ??_C@_0N@EEMA@?$CFs?1iplog?4txt?$AA@ 00473128     iplog.obj
 0003:00007138       _keynames                  00473138     keys.obj
 0003:00007538       ??_C@_0L@PBBM@APOSTROPHE?$AA@ 00473538     keys.obj
 0003:00007544       ??_C@_05IOEJ@QUOTE?$AA@    00473544     keys.obj
 0003:0000754c       ??_C@_09HGGH@BACKQUOTE?$AA@ 0047354c     keys.obj
 0003:00007558       ??_C@_05NIJC@TILDE?$AA@    00473558     keys.obj
 0003:00007560       ??_C@_09MGLF@SEMICOLON?$AA@ 00473560     keys.obj
 0003:0000756c       ??_C@_05GAA@AUX32?$AA@     0047356c     keys.obj
 0003:00007574       ??_C@_05PJLJ@AUX31?$AA@    00473574     keys.obj
 0003:0000757c       ??_C@_05FDCO@AUX30?$AA@    0047357c     keys.obj
 0003:00007584       ??_C@_05LLKL@AUX29?$AA@    00473584     keys.obj
 0003:0000758c       ??_C@_05BBDM@AUX28?$AA@    0047358c     keys.obj
 0003:00007594       ??_C@_05BAGB@AUX27?$AA@    00473594     keys.obj
 0003:0000759c       ??_C@_05LKPG@AUX26?$AA@    0047359c     keys.obj
 0003:000075a4       ??_C@_05EFEP@AUX25?$AA@    004735a4     keys.obj
 0003:000075ac       ??_C@_05OPNI@AUX24?$AA@    004735ac     keys.obj
 0003:000075b4       ??_C@_05LKDN@AUX23?$AA@    004735b4     keys.obj
 0003:000075bc       ??_C@_05BAKK@AUX22?$AA@    004735bc     keys.obj
 0003:000075c4       ??_C@_05OPBD@AUX21?$AA@    004735c4     keys.obj
 0003:000075cc       ??_C@_05EFIE@AUX20?$AA@    004735cc     keys.obj
 0003:000075d4       ??_C@_05IAFE@AUX19?$AA@    004735d4     keys.obj
 0003:000075dc       ??_C@_05CKMD@AUX18?$AA@    004735dc     keys.obj
 0003:000075e4       ??_C@_05CLJO@AUX17?$AA@    004735e4     keys.obj
 0003:000075ec       ??_C@_05IBAJ@AUX16?$AA@    004735ec     keys.obj
 0003:000075f4       ??_C@_05HOLA@AUX15?$AA@    004735f4     keys.obj
 0003:000075fc       ??_C@_05NECH@AUX14?$AA@    004735fc     keys.obj
 0003:00007604       ??_C@_05IBMC@AUX13?$AA@    00473604     keys.obj
 0003:0000760c       ??_C@_05CLFF@AUX12?$AA@    0047360c     keys.obj
 0003:00007614       ??_C@_05NEOM@AUX11?$AA@    00473614     keys.obj
 0003:0000761c       ??_C@_05HOHL@AUX10?$AA@    0047361c     keys.obj
 0003:00007624       ??_C@_04LPLM@AUX9?$AA@     00473624     keys.obj
 0003:0000762c       ??_C@_04BFCL@AUX8?$AA@     0047362c     keys.obj
 0003:00007634       ??_C@_04BEHG@AUX7?$AA@     00473634     keys.obj
 0003:0000763c       ??_C@_04LOOB@AUX6?$AA@     0047363c     keys.obj
 0003:00007644       ??_C@_04EBFI@AUX5?$AA@     00473644     keys.obj
 0003:0000764c       ??_C@_04OLMP@AUX4?$AA@     0047364c     keys.obj
 0003:00007654       ??_C@_04LOCK@AUX3?$AA@     00473654     keys.obj
 0003:0000765c       ??_C@_04BELN@AUX2?$AA@     0047365c     keys.obj
 0003:00007664       ??_C@_04OLAE@AUX1?$AA@     00473664     keys.obj
 0003:0000766c       ??_C@_04KNPB@JOY4?$AA@     0047366c     keys.obj
 0003:00007674       ??_C@_04PIBE@JOY3?$AA@     00473674     keys.obj
 0003:0000767c       ??_C@_04FCID@JOY2?$AA@     0047367c     keys.obj
 0003:00007684       ??_C@_04KNDK@JOY1?$AA@     00473684     keys.obj
 0003:0000768c       ??_C@_06MEGE@MOUSE8?$AA@   0047368c     keys.obj
 0003:00007694       ??_C@_06MFDJ@MOUSE7?$AA@   00473694     keys.obj
 0003:0000769c       ??_C@_06GPKO@MOUSE6?$AA@   0047369c     keys.obj
 0003:000076a4       ??_C@_06JABH@MOUSE5?$AA@   004736a4     keys.obj
 0003:000076ac       ??_C@_06DKIA@MOUSE4?$AA@   004736ac     keys.obj
 0003:000076b4       ??_C@_06GPGF@MOUSE3?$AA@   004736b4     keys.obj
 0003:000076bc       ??_C@_06MFPC@MOUSE2?$AA@   004736bc     keys.obj
 0003:000076c4       ??_C@_06DKEL@MOUSE1?$AA@   004736c4     keys.obj
 0003:000076cc       ??_C@_0L@FKGC@MWHEELDOWN?$AA@ 004736cc     keys.obj
 0003:000076d8       ??_C@_08HCBF@MWHEELUP?$AA@ 004736d8     keys.obj
 0003:000076e4       ??_C@_03PIHE@END?$AA@      004736e4     keys.obj
 0003:000076e8       ??_C@_04CDJB@HOME?$AA@     004736e8     keys.obj
 0003:000076f0       ??_C@_04LKND@PGUP?$AA@     004736f0     keys.obj
 0003:000076f8       ??_C@_04MEGK@PGDN?$AA@     004736f8     keys.obj
 0003:00007700       ??_C@_03HAHB@DEL?$AA@      00473700     keys.obj
 0003:00007704       ??_C@_03NMAO@INS?$AA@      00473704     keys.obj
 0003:00007708       ??_C@_03GODC@F12?$AA@      00473708     keys.obj
 0003:0000770c       ??_C@_03JBIL@F11?$AA@      0047370c     keys.obj
 0003:00007710       ??_C@_03DLBM@F10?$AA@      00473710     keys.obj
 0003:00007714       ??_C@_02NIOF@F9?$AA@       00473714     keys.obj
 0003:00007718       ??_C@_02HCHC@F8?$AA@       00473718     keys.obj
 0003:0000771c       ??_C@_02HDCP@F7?$AA@       0047371c     keys.obj
 0003:00007720       ??_C@_02NJLI@F6?$AA@       00473720     keys.obj
 0003:00007724       ??_C@_02CGAB@F5?$AA@       00473724     keys.obj
 0003:00007728       ??_C@_02IMJG@F4?$AA@       00473728     keys.obj
 0003:0000772c       ??_C@_02NJHD@F3?$AA@       0047372c     keys.obj
 0003:00007730       ??_C@_02HDOE@F2?$AA@       00473730     keys.obj
 0003:00007734       ??_C@_02IMFN@F1?$AA@       00473734     keys.obj
 0003:00007738       ??_C@_08HCEG@KP_ENTER?$AA@ 00473738     keys.obj
 0003:00007744       ??_C@_06NBBC@KP_DEL?$AA@   00473744     keys.obj
 0003:0000774c       ??_C@_04FKLO@KP_0?$AA@     0047374c     keys.obj
 0003:00007754       ??_C@_06HNGN@KP_INS?$AA@   00473754     keys.obj
 0003:0000775c       ??_C@_04KFAH@KP_3?$AA@     0047375c     keys.obj
 0003:00007764       ??_C@_07DOML@KP_PGDN?$AA@  00473764     keys.obj
 0003:0000776c       ??_C@_04PJA@KP_2?$AA@      0047376c     keys.obj
 0003:00007774       ??_C@_0N@KEGD@KP_DOWNARROW?$AA@ 00473774     keys.obj
 0003:00007784       ??_C@_04PACJ@KP_1?$AA@     00473784     keys.obj
 0003:0000778c       ??_C@_06FJBH@KP_END?$AA@   0047378c     keys.obj
 0003:00007794       ??_C@_04KFMM@KP_6?$AA@     00473794     keys.obj
 0003:0000779c       ??_C@_0O@JPAK@KP_RIGHTARROW?$AA@ 0047379c     keys.obj
 0003:000077ac       ??_C@_04FKHF@KP_5?$AA@     004737ac     keys.obj
 0003:000077b4       ??_C@_04PAOC@KP_4?$AA@     004737b4     keys.obj
 0003:000077bc       ??_C@_0N@HMIH@KP_LEFTARROW?$AA@ 004737bc     keys.obj
 0003:000077cc       ??_C@_07NJEF@KP_PLUS?$AA@  004737cc     keys.obj
 0003:000077d4       ??_C@_04KEJB@KP_9?$AA@     004737d4     keys.obj
 0003:000077dc       ??_C@_07EAHC@KP_PGUP?$AA@  004737dc     keys.obj
 0003:000077e4       ??_C@_04OAG@KP_8?$AA@      004737e4     keys.obj
 0003:000077ec       ??_C@_0L@LHCJ@KP_UPARROW?$AA@ 004737ec     keys.obj
 0003:000077f8       ??_C@_04PFL@KP_7?$AA@      004737f8     keys.obj
 0003:00007800       ??_C@_07NJDA@KP_HOME?$AA@  00473800     keys.obj
 0003:00007808       ??_C@_08FMBO@KP_MINUS?$AA@ 00473808     keys.obj
 0003:00007814       ??_C@_0M@IFHD@KP_MULTIPLY?$AA@ 00473814     keys.obj
 0003:00007820       ??_C@_07JNPI@KP_STAR?$AA@  00473820     keys.obj
 0003:00007828       ??_C@_09OEDO@KP_DIVIDE?$AA@ 00473828     keys.obj
 0003:00007834       ??_C@_08HEPO@KP_SLASH?$AA@ 00473834     keys.obj
 0003:00007840       ??_C@_0L@KIFL@KP_NUMLOCK?$AA@ 00473840     keys.obj
 0003:0000784c       ??_C@_09CBAB@KP_NUMLCK?$AA@ 0047384c     keys.obj
 0003:00007858       ??_C@_07DAOF@NUMLOCK?$AA@  00473858     keys.obj
 0003:00007860       ??_C@_09IHBF@POPUPMENU?$AA@ 00473860     keys.obj
 0003:0000786c       ??_C@_07DFMO@RWINKEY?$AA@  0047386c     keys.obj
 0003:00007874       ??_C@_07EPEE@LWINKEY?$AA@  00473874     keys.obj
 0003:0000787c       ??_C@_06CENH@WINKEY?$AA@   0047387c     keys.obj
 0003:00007884       ??_C@_06LAIP@RSHIFT?$AA@   00473884     keys.obj
 0003:0000788c       ??_C@_06DKEM@LSHIFT?$AA@   0047388c     keys.obj
 0003:00007894       ??_C@_05KJME@SHIFT?$AA@    00473894     keys.obj
 0003:0000789c       ??_C@_05CKNP@RCTRL?$AA@    0047389c     keys.obj
 0003:000078a4       ??_C@_05OJHP@LCTRL?$AA@    004738a4     keys.obj
 0003:000078ac       ??_C@_04GBJE@CTRL?$AA@     004738ac     keys.obj
 0003:000078b4       ??_C@_04HPAL@RALT?$AA@     004738b4     keys.obj
 0003:000078bc       ??_C@_04NPFG@LALT?$AA@     004738bc     keys.obj
 0003:000078c4       ??_C@_03DEAL@ALT?$AA@      004738c4     keys.obj
 0003:000078c8       ??_C@_0L@NCHP@RIGHTARROW?$AA@ 004738c8     keys.obj
 0003:000078d4       ??_C@_09JKI@LEFTARROW?$AA@ 004738d4     keys.obj
 0003:000078e0       ??_C@_09NBEM@DOWNARROW?$AA@ 004738e0     keys.obj
 0003:000078ec       ??_C@_07CPJH@UPARROW?$AA@  004738ec     keys.obj
 0003:000078f4       ??_C@_05JKKC@PAUSE?$AA@    004738f4     keys.obj
 0003:000078fc       ??_C@_09EIKF@SCROLLOCK?$AA@ 004738fc     keys.obj
 0003:00007908       ??_C@_06OMAO@SCRLCK?$AA@   00473908     keys.obj
 0003:00007910       ??_C@_08OIP@PRINTSCR?$AA@  00473910     keys.obj
 0003:0000791c       ??_C@_08FOPG@CAPSLOCK?$AA@ 0047391c     keys.obj
 0003:00007928       ??_C@_09PBAJ@BACKSPACE?$AA@ 00473928     keys.obj
 0003:00007934       ??_C@_05JCH@SPACE?$AA@     00473934     keys.obj
 0003:0000793c       ??_C@_06MJIP@ESCAPE?$AA@   0047393c     keys.obj
 0003:00007944       ??_C@_05NLLM@ENTER?$AA@    00473944     keys.obj
 0003:0000794c       ??_C@_03KAHL@TAB?$AA@      0047394c     keys.obj
 0003:00007950       ??_C@_04LPPG@?$FN?$CFs?5?$AA@ 00473950     keys.obj
 0003:00007958       ??_C@_02PJJB@?$CC?6?$AA@   00473958     keys.obj
 0003:0000795c       ??_C@_05MCHL@say?5?$CC?$AA@ 0047395c     keys.obj
 0003:00007964       ??_C@_0L@LAAC@say_team?5?$CC?$AA@ 00473964     keys.obj
 0003:00007970       ??_C@_0BB@BMDP@?$DMUNKNOWN?5KEYNUM?$DO?$AA@ 00473970     keys.obj
 0003:00007984       ??_C@_0BA@KAHB@?$DMKEY?5NOT?5FOUND?$DO?$AA@ 00473984     keys.obj
 0003:00007994       ??_C@_0BI@GELF@?$CC?$CFs?$CC?5isn?8t?5a?5valid?5key?6?$AA@ 00473994     keys.obj
 0003:000079ac       ??_C@_0CL@NHBD@unbind?5?$DMkey?$DO?5?3?5remove?5commands?5f@ 004739ac     keys.obj
 0003:000079d8       ??_C@_0N@BEPA@?$CFi?5bindings?6?$AA@ 004739d8     keys.obj
 0003:000079e8       ??_C@_0M@GDMJ@?5?5?5?$CFs?5?$CC?$CFs?$CC?6?$AA@ 004739e8     keys.obj
 0003:000079f4       ??_C@_0BD@DLNG@?$CC?$CFs?$CC?5is?5not?5bound?6?$AA@ 004739f4     keys.obj
 0003:00007a08       ??_C@_0N@DLB@?$CC?$CFs?$CC?5?$DN?5?$CC?$CFs?$CC?6?$AA@ 00473a08     keys.obj
 0003:00007a18       ??_C@_0DC@BOPP@bind?5?$DMkey?$DO?5?$FLcommand?$FN?5?3?5attach?5a?5@ 00473a18     keys.obj
 0003:00007a4c       ??_C@_0BA@EDEH@bind?5?$CC?$CFs?$CC?5?$CC?$CFs?$CC?6?$AA@ 00473a4c     keys.obj
 0003:00007a5c       ??_C@_0BD@LPOP@?6?1?1?5Key?5bindings?6?6?$AA@ 00473a5c     keys.obj
 0003:00007a70       ??_C@_09KOHL@unbindall?$AA@ 00473a70     keys.obj
 0003:00007a7c       ??_C@_06NILL@unbind?$AA@   00473a7c     keys.obj
 0003:00007a84       ??_C@_04FBJP@bind?$AA@     00473a84     keys.obj
 0003:00007a8c       ??_C@_08KMAH@bindlist?$AA@ 00473a8c     keys.obj
 0003:00007a98       ??_C@_0N@LCH@Bad?5key_dest?$AA@ 00473a98     keys.obj
 0003:00007aa8       ??_C@_06LHKE@?$CFs?5?$CFi?6?$AA@ 00473aa8     keys.obj
 0003:00007ab0       ??_C@_07IFHO@?9?$CFs?5?$CFi?6?$AA@ 00473ab0     keys.obj
 0003:00007ab8       ??_C@_0BP@CJOM@?$CFs?5is?5unbound?0?5hit?5F4?5to?5set?4?6?$AA@ 00473ab8     keys.obj
 0003:00007ad8       ??_C@_0BJ@KKJL@?$CFf?0?5?$CFf?0?5?$CFf?0?5?$CFf?0?5?$CFf?0?5?$CFf?0?5?$AA@ 00473ad8     location.obj
 0003:00007af4       ??_C@_04ODMB@?4loc?$AA@    00473af4     location.obj
 0003:00007afc       ??_C@_05GMPI@maps?1?$AA@   00473afc     location.obj
 0003:00007b04       ??_C@_05OOPA@locs?1?$AA@   00473b04     location.obj
 0003:00007b0c       ??_C@_09CPNE@somewhere?$AA@ 00473b0c     location.obj
 0003:00007b18       _nanmask                   00473b18     mathlib.obj
 0003:00007b1c       ??_C@_0BO@BOEK@BoxOnPlaneSide?3?5?5Bad?5signbits?$AA@ 00473b1c     mathlib.obj
 0003:00007b3c       ??_C@_0CB@EOEF@FloorDivMod?3?5bad?5denominator?5?$CFd?6@ 00473b3c     mathlib.obj
 0003:00007b60       _dat                       00473b60     matrix.obj
 0003:00007b80       _setup_cursor              00473b80     menu.obj
 0003:00007b84       _setup_cursor_table        00473b84     menu.obj
 0003:00007b98       _net_helpMessage           00473b98     menu.obj
 0003:00007bd8       _bindnames                 00473bd8     menu.obj
 0003:00007c68       _preferences_cursor        00473c68     menu.obj
 0003:00007c6c       _serialConfig_cursor_table 00473c6c     menu.obj
 0003:00007ca4       _serialConfig_baudrate     00473ca4     menu.obj
 0003:00007cbc       _modemConfig_cursor_table  00473cbc     menu.obj
 0003:00007cd0       _lanConfig_cursor          00473cd0     menu.obj
 0003:00007cd4       _lanConfig_cursor_table    00473cd4     menu.obj
 0003:00007ce0       _levels                    00473ce0     menu.obj
 0003:00007e10       _hipnoticlevels            00473e10     menu.obj
 0003:00007ea0       _roguelevels               00473ea0     menu.obj
 0003:00007f28       _episodes                  00473f28     menu.obj
 0003:00007f80       _hipnoticepisodes          00473f80     menu.obj
 0003:00007fc8       _rogueepisodes             00473fc8     menu.obj
 0003:00007ff8       _gameoptions_cursor_table  00473ff8     menu.obj
 0003:0000801c       ??_C@_0BC@IIBA@Corridors?5of?5Time?$AA@ 0047401c     menu.obj
 0003:00008030       ??_C@_0BA@CMBP@Hell?8s?5Fortress?$AA@ 00474030     menu.obj
 0003:00008040       ??_C@_0N@PDB@Introduction?$AA@ 00474040     menu.obj
 0003:00008050       ??_C@_08DNI@The?5Rift?$AA@ 00474050     menu.obj
 0003:0000805c       ??_C@_0BF@BPK@Dominion?5of?5Darkness?$AA@ 0047405c     menu.obj
 0003:00008074       ??_C@_0BF@KLPH@Fortress?5of?5the?5Dead?$AA@ 00474074     menu.obj
 0003:0000808c       ??_C@_0BD@DDAH@Scourge?5of?5Armagon?$AA@ 0047408c     menu.obj
 0003:000080a0       ??_C@_0BB@HDFL@Deathmatch?5Arena?$AA@ 004740a0     menu.obj
 0003:000080b4       ??_C@_0M@NMDJ@Final?5Level?$AA@ 004740b4     menu.obj
 0003:000080c0       ??_C@_0BA@OIJK@The?5Elder?5World?$AA@ 004740c0     menu.obj
 0003:000080d0       ??_C@_0M@JLE@Netherworld?$AA@ 004740d0     menu.obj
 0003:000080dc       ??_C@_0BF@KCEJ@Realm?5of?5Black?5Magic?$AA@ 004740dc     menu.obj
 0003:000080f4       ??_C@_0BB@JEGI@Doomed?5Dimension?$AA@ 004740f4     menu.obj
 0003:00008108       ??_C@_0BB@OKGG@Welcome?5to?5Quake?$AA@ 00474108     menu.obj
 0003:0000811c       ??_C@_0BD@COOP@Division?5of?5Change?$AA@ 0047411c     menu.obj
 0003:00008130       ??_C@_04GGHB@ctf1?$AA@     00474130     menu.obj
 0003:00008138       ??_C@_0P@CPAB@Source?5of?5Evil?$AA@ 00474138     menu.obj
 0003:00008148       ??_C@_04PFL@r2m8?$AA@      00474148     menu.obj
 0003:00008150       ??_C@_0N@LPFJ@Last?5Bastion?$AA@ 00474150     menu.obj
 0003:00008160       ??_C@_04OAG@r2m7?$AA@      00474160     menu.obj
 0003:00008168       ??_C@_0BA@NGMI@Blood?5Sacrifice?$AA@ 00474168     menu.obj
 0003:00008178       ??_C@_04KEJB@r2m6?$AA@     00474178     menu.obj
 0003:00008180       ??_C@_0O@LBNK@Wizard?8s?5Keep?$AA@ 00474180     menu.obj
 0003:00008190       ??_C@_04FLCI@r2m5?$AA@     00474190     menu.obj
 0003:00008198       ??_C@_0BA@BEDE@Curse?5of?5Osiris?$AA@ 00474198     menu.obj
 0003:000081a8       ??_C@_04PBLP@r2m4?$AA@     004741a8     menu.obj
 0003:000081b0       ??_C@_0BC@MNG@Elemental?5Fury?5II?$AA@ 004741b0     menu.obj
 0003:000081c4       ??_C@_04KEFK@r2m3?$AA@     004741c4     menu.obj
 0003:000081cc       ??_C@_0BB@DJCP@Elemental?5Fury?5I?$AA@ 004741cc     menu.obj
 0003:000081e0       ??_C@_04OMN@r2m2?$AA@      004741e0     menu.obj
 0003:000081e8       ??_C@_0N@KGMN@Tempus?5Fugit?$AA@ 004741e8     menu.obj
 0003:000081f8       ??_C@_04PBHE@r2m1?$AA@     004741f8     menu.obj
 0003:00008200       ??_C@_0BF@JOB@Tomb?5of?5the?5Overlord?$AA@ 00474200     menu.obj
 0003:00008218       ??_C@_04PIDN@r1m7?$AA@     00474218     menu.obj
 0003:00008220       ??_C@_0P@PNKD@Temple?5of?5Pain?$AA@ 00474220     menu.obj
 0003:00008230       ??_C@_04FCKK@r1m6?$AA@     00474230     menu.obj
 0003:00008238       ??_C@_0BA@PMPF@Towers?5of?5Wrath?$AA@ 00474238     menu.obj
 0003:00008248       ??_C@_04KNBD@r1m5?$AA@     00474248     menu.obj
 0003:00008250       ??_C@_0O@PLGD@Cave?5of?5Death?$AA@ 00474250     menu.obj
 0003:00008260       ??_C@_04HIE@r1m4?$AA@      00474260     menu.obj
 0003:00008268       ??_C@_0P@OOGE@Judgement?5Call?$AA@ 00474268     menu.obj
 0003:00008278       ??_C@_04FCGB@r1m3?$AA@     00474278     menu.obj
 0003:00008280       ??_C@_0N@GOHM@Dread?5Portal?$AA@ 00474280     menu.obj
 0003:00008290       ??_C@_04PIPG@r1m2?$AA@     00474290     menu.obj
 0003:00008298       ??_C@_0BB@KOKD@Deviant?8s?5Domain?$AA@ 00474298     menu.obj
 0003:000082ac       ??_C@_04HEP@r1m1?$AA@      004742ac     menu.obj
 0003:000082b4       ??_C@_0P@HAGN@Split?5Decision?$AA@ 004742b4     menu.obj
 0003:000082c4       ??_C@_0BF@DKMB@The?5Edge?5of?5Oblivion?$AA@ 004742c4     menu.obj
 0003:000082dc       ??_C@_06COJK@hipdm1?$AA@   004742dc     menu.obj
 0003:000082e4       ??_C@_0P@EMDE@Armagon?8s?5Lair?$AA@ 004742e4     menu.obj
 0003:000082f4       ??_C@_06ELAI@hipend?$AA@   004742f4     menu.obj
 0003:000082fc       ??_C@_0N@IBAG@The?5Gauntlet?$AA@ 004742fc     menu.obj
 0003:0000830c       ??_C@_06DEPA@hip3m4?$AA@   0047430c     menu.obj
 0003:00008314       ??_C@_05JALH@Limbo?$AA@    00474314     menu.obj
 0003:0000831c       ??_C@_06GBBF@hip3m3?$AA@   0047431c     menu.obj
 0003:00008324       ??_C@_0M@CPFA@Pandemonium?$AA@ 00474324     menu.obj
 0003:00008330       ??_C@_06MLIC@hip3m2?$AA@   00474330     menu.obj
 0003:00008338       ??_C@_0M@ELAO@Tur?5Torment?$AA@ 00474338     menu.obj
 0003:00008344       ??_C@_06DEDL@hip3m1?$AA@   00474344     menu.obj
 0003:0000834c       ??_C@_0BF@MLLL@The?5Gremlin?8s?5Domain?$AA@ 0047434c     menu.obj
 0003:00008364       ??_C@_06DDMI@hip2m6?$AA@   00474364     menu.obj
 0003:0000836c       ??_C@_0O@LMPM@Mortum?8s?5Keep?$AA@ 0047436c     menu.obj
 0003:0000837c       ??_C@_06MMHB@hip2m5?$AA@   0047437c     menu.obj
 0003:00008384       ??_C@_09GKCM@The?5Crypt?$AA@ 00474384     menu.obj
 0003:00008390       ??_C@_06GGOG@hip2m4?$AA@   00474390     menu.obj
 0003:00008398       ??_C@_0O@GIAG@The?5Catacombs?$AA@ 00474398     menu.obj
 0003:000083a8       ??_C@_06DDAD@hip2m3?$AA@   004743a8     menu.obj
 0003:000083b0       ??_C@_0BE@EEPA@The?5Black?5Cathedral?$AA@ 004743b0     menu.obj
 0003:000083c4       ??_C@_06JJJE@hip2m2?$AA@   004743c4     menu.obj
 0003:000083cc       ??_C@_0P@MGMP@Ancient?5Realms?$AA@ 004743cc     menu.obj
 0003:000083dc       ??_C@_06GGCN@hip2m1?$AA@   004743dc     menu.obj
 0003:000083e4       ??_C@_0BB@FLFI@Military?5Complex?$AA@ 004743e4     menu.obj
 0003:000083f8       ??_C@_06DKEK@hip1m5?$AA@   004743f8     menu.obj
 0003:00008400       ??_C@_0BC@HCKM@Research?5Facility?$AA@ 00474400     menu.obj
 0003:00008414       ??_C@_06JANN@hip1m4?$AA@   00474414     menu.obj
 0003:0000841c       ??_C@_0O@GMJN@The?5Lost?5Mine?$AA@ 0047441c     menu.obj
 0003:0000842c       ??_C@_06MFDI@hip1m3?$AA@   0047442c     menu.obj
 0003:00008434       ??_C@_0BB@NGCD@Storage?5Facility?$AA@ 00474434     menu.obj
 0003:00008448       ??_C@_06GPKP@hip1m2?$AA@   00474448     menu.obj
 0003:00008450       ??_C@_0BE@CNIA@The?5Pumping?5Station?$AA@ 00474450     menu.obj
 0003:00008464       ??_C@_06JABG@hip1m1?$AA@   00474464     menu.obj
 0003:0000846c       ??_C@_0L@EDGM@Command?5HQ?$AA@ 0047446c     menu.obj
 0003:00008478       ??_C@_0O@PNFB@The?5Dark?5Zone?$AA@ 00474478     menu.obj
 0003:00008488       ??_C@_03NGE@dm6?$AA@       00474488     menu.obj
 0003:0000848c       ??_C@_0M@JIIM@The?5Cistern?$AA@ 0047448c     menu.obj
 0003:00008498       ??_C@_03PCNN@dm5?$AA@      00474498     menu.obj
 0003:0000849c       ??_C@_0O@KPJM@The?5Bad?5Place?$AA@ 0047449c     menu.obj
 0003:000084ac       ??_C@_03FIEK@dm4?$AA@      004744ac     menu.obj
 0003:000084b0       ??_C@_0BD@IAAB@The?5Abandoned?5Base?$AA@ 004744b0     menu.obj
 0003:000084c4       ??_C@_03NKP@dm3?$AA@       004744c4     menu.obj
 0003:000084c8       ??_C@_0BD@JMGJ@Claustrophobopolis?$AA@ 004744c8     menu.obj
 0003:000084dc       ??_C@_03KHDI@dm2?$AA@      004744dc     menu.obj
 0003:000084e0       ??_C@_0BE@GJCB@Place?5of?5Two?5Deaths?$AA@ 004744e0     menu.obj
 0003:000084f4       ??_C@_03FIIB@dm1?$AA@      004744f4     menu.obj
 0003:000084f8       ??_C@_0BF@MDLD@Shub?9Niggurath?8s?5Pit?$AA@ 004744f8     menu.obj
 0003:00008510       ??_C@_03DNBD@end?$AA@      00474510     menu.obj
 0003:00008514       ??_C@_0BC@IHHC@The?5Nameless?5City?$AA@ 00474514     menu.obj
 0003:00008528       ??_C@_04EMLD@e4m8?$AA@     00474528     menu.obj
 0003:00008530       ??_C@_0M@PKKK@Azure?5Agony?$AA@ 00474530     menu.obj
 0003:0000853c       ??_C@_04ENOO@e4m7?$AA@     0047453c     menu.obj
 0003:00008544       ??_C@_0O@BOME@The?5Pain?5Maze?$AA@ 00474544     menu.obj
 0003:00008554       ??_C@_04OHHJ@e4m6?$AA@     00474554     menu.obj
 0003:0000855c       ??_C@_0O@GEIO@Hell?8s?5Atrium?$AA@ 0047455c     menu.obj
 0003:0000856c       ??_C@_04BIMA@e4m5?$AA@     0047456c     menu.obj
 0003:00008574       ??_C@_0BD@GCDK@The?5Palace?5of?5Hate?$AA@ 00474574     menu.obj
 0003:00008588       ??_C@_04LCFH@e4m4?$AA@     00474588     menu.obj
 0003:00008590       ??_C@_0BF@CNMB@The?5Elder?5God?5Shrine?$AA@ 00474590     menu.obj
 0003:000085a8       ??_C@_04OHLC@e4m3?$AA@     004745a8     menu.obj
 0003:000085b0       ??_C@_0BF@DFOM@The?5Tower?5of?5Despair?$AA@ 004745b0     menu.obj
 0003:000085c8       ??_C@_04ENCF@e4m2?$AA@     004745c8     menu.obj
 0003:000085d0       ??_C@_0BC@PBOH@The?5Sewage?5System?$AA@ 004745d0     menu.obj
 0003:000085e4       ??_C@_04LCJM@e4m1?$AA@     004745e4     menu.obj
 0003:000085ec       ??_C@_0BC@MAEH@The?5Haunted?5Halls?$AA@ 004745ec     menu.obj
 0003:00008600       ??_C@_04PDIP@e3m7?$AA@     00474600     menu.obj
 0003:00008608       ??_C@_0BE@FDGI@Chambers?5of?5Torment?$AA@ 00474608     menu.obj
 0003:0000861c       ??_C@_04FJBI@e3m6?$AA@     0047461c     menu.obj
 0003:00008624       ??_C@_0N@PAPH@Wind?5Tunnels?$AA@ 00474624     menu.obj
 0003:00008634       ??_C@_04KGKB@e3m5?$AA@     00474634     menu.obj
 0003:0000863c       ??_C@_0BF@MNLC@Satan?8s?5Dark?5Delight?$AA@ 0047463c     menu.obj
 0003:00008654       ??_C@_04MDG@e3m4?$AA@      00474654     menu.obj
 0003:0000865c       ??_C@_0BD@DEFP@The?5Tomb?5of?5Terror?$AA@ 0047465c     menu.obj
 0003:00008670       ??_C@_04FJND@e3m3?$AA@     00474670     menu.obj
 0003:00008678       ??_C@_0BC@CPAF@The?5Vaults?5of?5Zin?$AA@ 00474678     menu.obj
 0003:0000868c       ??_C@_04PDEE@e3m2?$AA@     0047468c     menu.obj
 0003:00008694       ??_C@_0BE@GJLK@Termination?5Central?$AA@ 00474694     menu.obj
 0003:000086a8       ??_C@_04MPN@e3m1?$AA@      004746a8     menu.obj
 0003:000086b0       ??_C@_0L@MAJA@Underearth?$AA@ 004746b0     menu.obj
 0003:000086bc       ??_C@_04KBJJ@e2m7?$AA@     004746bc     menu.obj
 0003:000086c4       ??_C@_0BF@DPDI@The?5Dismal?5Oubliette?$AA@ 004746c4     menu.obj
 0003:000086dc       ??_C@_04LAO@e2m6?$AA@      004746dc     menu.obj
 0003:000086e4       ??_C@_0BD@IHFO@The?5Wizard?8s?5Manse?$AA@ 004746e4     menu.obj
 0003:000086f8       ??_C@_04PELH@e2m5?$AA@     004746f8     menu.obj
 0003:00008700       ??_C@_0BC@HNJM@The?5Ebon?5Fortress?$AA@ 00474700     menu.obj
 0003:00008714       ??_C@_04FOCA@e2m4?$AA@     00474714     menu.obj
 0003:0000871c       ??_C@_0P@FJJM@Crypt?5of?5Decay?$AA@ 0047471c     menu.obj
 0003:0000872c       ??_C@_04LMF@e2m3?$AA@      0047472c     menu.obj
 0003:00008734       ??_C@_0N@FOMN@Ogre?5Citadel?$AA@ 00474734     menu.obj
 0003:00008744       ??_C@_04KBFC@e2m2?$AA@     00474744     menu.obj
 0003:0000874c       ??_C@_0BB@JKFC@The?5Installation?$AA@ 0047474c     menu.obj
 0003:00008760       ??_C@_04FOOL@e2m1?$AA@     00474760     menu.obj
 0003:00008768       ??_C@_0BB@KFBA@Ziggurat?5Vertigo?$AA@ 00474768     menu.obj
 0003:0000877c       ??_C@_04FGPP@e1m8?$AA@     0047477c     menu.obj
 0003:00008784       ??_C@_0BE@JPDO@The?5House?5of?5Chthon?$AA@ 00474784     menu.obj
 0003:00008798       ??_C@_04FHKC@e1m7?$AA@     00474798     menu.obj
 0003:000087a0       ??_C@_0BD@HMFG@The?5Door?5To?5Chthon?$AA@ 004747a0     menu.obj
 0003:000087b4       ??_C@_04PNDF@e1m6?$AA@     004747b4     menu.obj
 0003:000087bc       ??_C@_0L@PFBA@Gloom?5Keep?$AA@ 004747bc     menu.obj
 0003:000087c8       ??_C@_04CIM@e1m5?$AA@      004747c8     menu.obj
 0003:000087d0       ??_C@_0BC@IEBM@The?5Grisly?5Grotto?$AA@ 004747d0     menu.obj
 0003:000087e4       ??_C@_04KIBL@e1m4?$AA@     004747e4     menu.obj
 0003:000087ec       ??_C@_0P@FAHG@The?5Necropolis?$AA@ 004747ec     menu.obj
 0003:000087fc       ??_C@_04PNPO@e1m3?$AA@     004747fc     menu.obj
 0003:00008804       ??_C@_0BF@OELK@Castle?5of?5the?5Damned?$AA@ 00474804     menu.obj
 0003:0000881c       ??_C@_04FHGJ@e1m2?$AA@     0047481c     menu.obj
 0003:00008824       ??_C@_0BB@NPPI@Slipgate?5Complex?$AA@ 00474824     menu.obj
 0003:00008838       ??_C@_04KINA@e1m1?$AA@     00474838     menu.obj
 0003:00008840       ??_C@_08MLJI@Entrance?$AA@ 00474840     menu.obj
 0003:0000884c       ??_C@_05IIAE@start?$AA@    0047484c     menu.obj
 0003:00008854       ??_C@_0M@JODN@center?5view?$AA@ 00474854     menu.obj
 0003:00008860       ??_C@_0L@EKJH@centerview?$AA@ 00474860     menu.obj
 0003:0000886c       ??_C@_08NJDC@sidestep?$AA@ 0047486c     menu.obj
 0003:00008878       ??_C@_0O@DCPB@keyboard?5look?$AA@ 00474878     menu.obj
 0003:00008888       ??_C@_0L@NGD@mouse?5look?$AA@ 00474888     menu.obj
 0003:00008894       ??_C@_09NMLP@look?5down?$AA@ 00474894     menu.obj
 0003:000088a0       ??_C@_07LCBP@look?5up?$AA@ 004748a0     menu.obj
 0003:000088a8       ??_C@_0L@EKIM@turn?5right?$AA@ 004748a8     menu.obj
 0003:000088b4       ??_C@_09LJEF@turn?5left?$AA@ 004748b4     menu.obj
 0003:000088c0       ??_C@_03EHIM@run?$AA@      004748c0     menu.obj
 0003:000088c4       ??_C@_0O@MKAI@change?5weapon?$AA@ 004748c4     menu.obj
 0003:000088d4       ??_C@_0L@OLHG@impulse?510?$AA@ 004748d4     menu.obj
 0003:000088e0       ??_C@_09PMKE@swim?5down?$AA@ 004748e0     menu.obj
 0003:000088ec       ??_C@_07ODA@swim?5up?$AA@  004748ec     menu.obj
 0003:000088f4       ??_C@_0L@NCIC@move?5right?$AA@ 004748f4     menu.obj
 0003:00008900       ??_C@_09LHLJ@move?5left?$AA@ 00474900     menu.obj
 0003:0000890c       ??_C@_09OOLC@move?5back?$AA@ 0047490c     menu.obj
 0003:00008918       ??_C@_0N@GHJD@move?5forward?$AA@ 00474918     menu.obj
 0003:00008928       ??_C@_04LKFJ@jump?$AA@     00474928     menu.obj
 0003:00008930       ??_C@_06HFHN@attack?$AA@   00474930     menu.obj
 0003:00008938       ??_C@_0BJ@EHDM@?5Area?5Network?4?5?5?5?5?5?5?5?5?5?5?$AA@ 00474938     menu.obj
 0003:00008954       ??_C@_0BJ@KFHG@?5also?5used?5on?5a?5Local?5?5?5?$AA@ 00474954     menu.obj
 0003:00008970       ??_C@_0BJ@MINE@?5over?5the?5Internet?0?5but?5?$AA@ 00474970     menu.obj
 0003:0000898c       ??_C@_0BJ@ELHJ@?5Commonly?5used?5to?5play?5?5?$AA@ 0047498c     menu.obj
 0003:000089a8       ??_C@_0BJ@IJAL@?$CILAN?$DNLocal?5Area?5Network?$CJ?$AA@ 004749a8     menu.obj
 0003:000089c4       ??_C@_0BJ@NKBG@?5or?5Windows?595?5DOS?9box?4?5?$AA@ 004749c4     menu.obj
 0003:000089e0       ??_C@_0BJ@DALO@?5Novell?5network?5LANs?5?5?5?5?$AA@ 004749e0     menu.obj
 0003:000089fc       ??_C@_0BJ@MBLI@?5by?5a?5null?9modem?5cable?4?5?$AA@ 004749fc     menu.obj
 0003:00008a18       ??_C@_0BJ@IMGI@?5?5?5through?5two?5modems?4?5?5?$AA@ 00474a18     menu.obj
 0003:00008a34       ??_C@_0BJ@EMIK@?5Two?5computers?5connected?$AA@ 00474a34     menu.obj
 0003:00008a50       ??_C@_0BJ@OEFI@?5?5?5?5?5?5?5?5?5?5?5?5?5?5?5?5?5?5?5?5?5?5?5?5?$AA@ 00474a50     menu.obj
 0003:00008a6c       ??_C@_0P@IFMI@gfx?1box_br?4lmp?$AA@ 00474a6c     menu.obj
 0003:00008a7c       ??_C@_0P@MAKJ@gfx?1box_mr?4lmp?$AA@ 00474a7c     menu.obj
 0003:00008a8c       ??_C@_0P@KCAK@gfx?1box_tr?4lmp?$AA@ 00474a8c     menu.obj
 0003:00008a9c       ??_C@_0P@OGEN@gfx?1box_bm?4lmp?$AA@ 00474a9c     menu.obj
 0003:00008aac       ??_C@_0BA@IOND@gfx?1box_mm2?4lmp?$AA@ 00474aac     menu.obj
 0003:00008abc       ??_C@_0P@KDCM@gfx?1box_mm?4lmp?$AA@ 00474abc     menu.obj
 0003:00008acc       ??_C@_0P@MBIP@gfx?1box_tm?4lmp?$AA@ 00474acc     menu.obj
 0003:00008adc       ??_C@_0P@EGGI@gfx?1box_bl?4lmp?$AA@ 00474adc     menu.obj
 0003:00008aec       ??_C@_0P@DAJ@gfx?1box_ml?4lmp?$AA@ 00474aec     menu.obj
 0003:00008afc       ??_C@_0P@GBKK@gfx?1box_tl?4lmp?$AA@ 00474afc     menu.obj
 0003:00008b0c       ??_C@_0BC@NMJ@gfx?1menudot?$CFi?4lmp?$AA@ 00474b0c     menu.obj
 0003:00008b20       ??_C@_0BB@HPMB@gfx?1mainmenu?4lmp?$AA@ 00474b20     menu.obj
 0003:00008b34       ??_C@_0BB@OFLJ@gfx?1ttl_main?4lmp?$AA@ 00474b34     menu.obj
 0003:00008b48       ??_C@_0BA@NEJF@gfx?1qplaque?4lmp?$AA@ 00474b48     menu.obj
 0003:00008b58       ??_C@_0P@HGMN@misc?1menu1?4wav?$AA@ 00474b58     menu.obj
 0003:00008b68       ??_C@_0BA@FDKB@gfx?1sp_menu?4lmp?$AA@ 00474b68     menu.obj
 0003:00008b78       ??_C@_0BA@FAOC@gfx?1ttl_sgl?4lmp?$AA@ 00474b78     menu.obj
 0003:00008b88       ??_C@_0O@IFFJ@maxplayers?51?6?$AA@ 00474b88     menu.obj
 0003:00008b98       ??_C@_0M@PFMJ@disconnect?6?$AA@ 00474b98     menu.obj
 0003:00008ba4       ??_C@_0CM@HDGF@Are?5you?5sure?5you?5want?5to?6start?5a@ 00474ba4     menu.obj
 0003:00008bd0       ??_C@_05KPOM@?$CF79s?6?$AA@ 00474bd0     menu.obj
 0003:00008bd8       ??_C@_0L@PMDL@?$CFs?1s?$CFi?4sav?$AA@ 00474bd8     menu.obj
 0003:00008be4       ??_C@_0BE@DJKO@?9?9?9?5UNUSED?5SLOT?5?9?9?9?$AA@ 00474be4     menu.obj
 0003:00008bf8       ??_C@_0P@OODI@gfx?1p_load?4lmp?$AA@ 00474bf8     menu.obj
 0003:00008c08       ??_C@_0P@FEPL@gfx?1p_save?4lmp?$AA@ 00474c08     menu.obj
 0003:00008c18       ??_C@_09OBNN@load?5s?$CFi?6?$AA@ 00474c18     menu.obj
 0003:00008c24       ??_C@_0P@JGKC@misc?1menu2?4wav?$AA@ 00474c24     menu.obj
 0003:00008c34       ??_C@_09NMGH@save?5s?$CFi?6?$AA@ 00474c34     menu.obj
 0003:00008c40       ??_C@_0BM@JNLF@No?5Communications?5Available?$AA@ 00474c40     menu.obj
 0003:00008c5c       ??_C@_0BA@NAAD@gfx?1mp_menu?4lmp?$AA@ 00474c5c     menu.obj
 0003:00008c6c       ??_C@_0BA@GKDO@gfx?1p_multi?4lmp?$AA@ 00474c6c     menu.obj
 0003:00008c7c       ??_C@_0BB@CJAD@gfx?1menuplyr?4lmp?$AA@ 00474c7c     menu.obj
 0003:00008c90       ??_C@_0P@MHON@gfx?1bigbox?4lmp?$AA@ 00474c90     menu.obj
 0003:00008ca0       ??_C@_0P@BPDF@Accept?5Changes?$AA@ 00474ca0     menu.obj
 0003:00008cb0       ??_C@_0M@EBJC@Pants?5color?$AA@ 00474cb0     menu.obj
 0003:00008cbc       ??_C@_0M@LJCF@Shirt?5color?$AA@ 00474cbc     menu.obj
 0003:00008cc8       ??_C@_09JNHA@Your?5name?$AA@ 00474cc8     menu.obj
 0003:00008cd4       ??_C@_08NIAD@Hostname?$AA@ 00474cd4     menu.obj
 0003:00008ce0       ??_C@_0P@DGIH@misc?1menu3?4wav?$AA@ 00474ce0     menu.obj
 0003:00008cf0       ??_C@_0BA@LHLE@gfx?1netmen5?4lmp?$AA@ 00474cf0     menu.obj
 0003:00008d00       ??_C@_0BA@BECJ@gfx?1dim_tcp?4lmp?$AA@ 00474d00     menu.obj
 0003:00008d10       ??_C@_0BA@BHJB@gfx?1netmen4?4lmp?$AA@ 00474d10     menu.obj
 0003:00008d20       ??_C@_0BA@PINF@gfx?1dim_ipx?4lmp?$AA@ 00474d20     menu.obj
 0003:00008d30       ??_C@_0BA@HHGL@gfx?1netmen3?4lmp?$AA@ 00474d30     menu.obj
 0003:00008d40       ??_C@_0BA@NHEO@gfx?1netmen2?4lmp?$AA@ 00474d40     menu.obj
 0003:00008d50       ??_C@_0BA@DHCB@gfx?1netmen1?4lmp?$AA@ 00474d50     menu.obj
 0003:00008d60       ??_C@_0BA@COA@_windowed_mouse?$AA@ 00474d60     menu.obj
 0003:00008d70       ??_C@_06FLOP@volume?$AA@   00474d70     menu.obj
 0003:00008d78       ??_C@_05CAAD@gamma?$AA@    00474d78     menu.obj
 0003:00008d80       ??_C@_08NKJJ@viewsize?$AA@ 00474d80     menu.obj
 0003:00008d8c       ??_C@_0BH@NPLK@?5?5?5?5?5?5?5?5?5?5?5?5?5Use?5Mouse?$AA@ 00474d8c     menu.obj
 0003:00008da4       ??_C@_0BH@DCNB@?5?5?5?5?5Advanced?5Settings?$AA@ 00474da4     menu.obj
 0003:00008dbc       ??_C@_0BH@KCAF@?5?5?5?5?5?5?5?5?5Video?5Options?$AA@ 00474dbc     menu.obj
 0003:00008dd4       ??_C@_0BH@EGKI@?5?5?5?5?5?5?5?5?5?5?5?5Lookspring?$AA@ 00474dd4     menu.obj
 0003:00008dec       ??_C@_0BH@FMAF@?5?5?5?5?5?5?5?5?5?5Invert?5Mouse?$AA@ 00474dec     menu.obj
 0003:00008e04       ??_C@_0BH@CFLI@?5?5?5?5?5?5?5?5?5?5?5?5Mouse?5Look?$AA@ 00474e04     menu.obj
 0003:00008e1c       ??_C@_07JGBA@maximum?$AA@  00474e1c     menu.obj
 0003:00008e24       ??_C@_0BH@BGIA@?5?5?5?5?5?5?5?5?5?5?5?5Always?5Run?$AA@ 00474e24     menu.obj
 0003:00008e3c       ??_C@_0BH@KEMN@?5?5?5?5?5?5?5?5?5?5Sound?5Volume?$AA@ 00474e3c     menu.obj
 0003:00008e54       ??_C@_0BH@ODKC@?5?5?5?5?5?5?5CD?5Music?5Volume?$AA@ 00474e54     menu.obj
 0003:00008e6c       ??_C@_0BH@IBLC@?5?5?5?5?5?5?5?5?5?5?5Mouse?5Speed?$AA@ 00474e6c     menu.obj
 0003:00008e84       ??_C@_0BH@PADB@?5?5?5?5?5?5?5?5?5?5?5?5Brightness?$AA@ 00474e84     menu.obj
 0003:00008e9c       ??_C@_0BH@MIHA@?5?5?5?5?5?5?5?5?5Field?5of?5view?$AA@ 00474e9c     menu.obj
 0003:00008eb4       ??_C@_0BH@MKNH@?5?5?5?5?5?5?5?5?5?5?5Screen?5size?$AA@ 00474eb4     menu.obj
 0003:00008ecc       ??_C@_0BH@GIAP@?5?5?5?5?5Reset?5to?5defaults?$AA@ 00474ecc     menu.obj
 0003:00008ee4       ??_C@_0BH@PNLL@?5?5?5?5?5?5?5?5?5Go?5to?5console?$AA@ 00474ee4     menu.obj
 0003:00008efc       ??_C@_0BH@HJHF@?5?5?5?5Customize?5controls?$AA@ 00474efc     menu.obj
 0003:00008f14       ??_C@_0BB@GOCB@gfx?1p_option?4lmp?$AA@ 00474f14     menu.obj
 0003:00008f28       ??_C@_0BC@LCK@exec?5default?4cfg?6?$AA@ 00474f28     menu.obj
 0003:00008f3c       ??_C@_09DFEO@resetall?6?$AA@ 00474f3c     menu.obj
 0003:00008f48       ??_C@_02KAII@or?$AA@       00474f48     menu.obj
 0003:00008f4c       ??_C@_03NMFM@?$DP?$DP?$DP?$AA@ 00474f4c     menu.obj
 0003:00008f50       ??_C@_0CE@LFDO@Enter?5to?5change?0?5backspace?5to?5cl@ 00474f50     menu.obj
 0003:00008f74       ??_C@_0CG@DM@Press?5a?5key?5or?5button?5for?5this?5a@ 00474f74     menu.obj
 0003:00008f9c       ??_C@_0BB@HEBH@gfx?1ttl_cstm?4lmp?$AA@ 00474f9c     menu.obj
 0003:00008fb0       ??_C@_0L@PKDD@pq_drawfps?$AA@ 00474fb0     menu.obj
 0003:00008fbc       ??_C@_0O@MFKF@ambient_level?$AA@ 00474fbc     menu.obj
 0003:00008fcc       ??_C@_0N@IFHN@scr_conspeed?$AA@ 00474fcc     menu.obj
 0003:00008fdc       ??_C@_04EIAH@9999?$AA@     00474fdc     menu.obj
 0003:00008fe4       ??_C@_03NBOP@300?$AA@      00474fe4     menu.obj
 0003:00008fe8       ??_C@_0N@EKIO@cl_rollangle?$AA@ 00474fe8     menu.obj
 0003:00008ff8       ??_C@_01KOLO@2?$AA@        00474ff8     menu.obj
 0003:00008ffc       ??_C@_08BPEI@cl_bobup?$AA@ 00474ffc     menu.obj
 0003:00009008       ??_C@_0M@NDIF@cl_bobcycle?$AA@ 00475008     menu.obj
 0003:00009014       ??_C@_06FFIM@cl_bob?$AA@   00475014     menu.obj
 0003:0000901c       ??_C@_04NADB@0?402?$AA@    0047501c     menu.obj
 0003:00009024       ??_C@_0L@EBLK@v_kicktime?$AA@ 00475024     menu.obj
 0003:00009030       ??_C@_03IPBN@0?45?$AA@     00475030     menu.obj
 0003:00009034       ??_C@_0L@JKKE@v_kickroll?$AA@ 00475034     menu.obj
 0003:00009040       ??_C@_0M@MHK@v_kickpitch?$AA@ 00475040     menu.obj
 0003:0000904c       ??_C@_03HAKE@0?46?$AA@     0047504c     menu.obj
 0003:00009050       ??_C@_0O@EPEO@pq_waterblend?$AA@ 00475050     menu.obj
 0003:00009060       ??_C@_0N@OFEH@pq_suitblend?$AA@ 00475060     menu.obj
 0003:00009070       ??_C@_0N@OIJO@pq_pentblend?$AA@ 00475070     menu.obj
 0003:00009080       ??_C@_0N@EPHI@pq_quadblend?$AA@ 00475080     menu.obj
 0003:00009090       ??_C@_03HAGP@0?43?$AA@     00475090     menu.obj
 0003:00009094       ??_C@_0N@OJCC@pq_ringblend?$AA@ 00475094     menu.obj
 0003:000090a4       ??_C@_0M@HCFL@r_waterwarp?$AA@ 004750a4     menu.obj
 0003:000090b0       ??_C@_0P@BGOK@r_truegunangle?$AA@ 004750b0     menu.obj
 0003:000090c0       ??_C@_0BA@NMBJ@r_drawviewmodel?$AA@ 004750c0     menu.obj
 0003:000090d0       ??_C@_0BF@ECNA@cl_crosshaircentered?$AA@ 004750d0     menu.obj
 0003:000090e8       ??_C@_09KOO@crosshair?$AA@ 004750e8     menu.obj
 0003:000090f4       ??_C@_0BO@GHIK@?5?5?5?5?5directinput?5mouse?5is?5off?$AA@ 004750f4     menu.obj
 0003:00009114       ??_C@_0BN@IMOO@?5?5?5?5?5directinput?5mouse?5is?5on?$AA@ 00475114     menu.obj
 0003:00009134       ??_C@_0BE@OJCP@?5?5?5?5?5show?5framerat?5?$AA@ 00475134     menu.obj
 0003:00009148       ??_C@_0BF@JPGK@?5?5?5?5?5max?5frames?1sec?5?$AA@ 00475148     menu.obj
 0003:00009160       ??_C@_03OHFJ@n?1a?$AA@     00475160     menu.obj
 0003:00009164       ??_C@_0BF@BHCG@?5?5?5?5?5vsync?5?5?5?5?5?5?5?5?5?5?$AA@ 00475164     menu.obj
 0003:0000917c       ??_C@_0BF@OCHC@?5?5?5?5?5ambient?5sound?5?5?$AA@ 0047517c     menu.obj
 0003:00009194       ??_C@_0BF@DJHB@?5?5?5?5?5jump?5is?5moveup?5?$AA@ 00475194     menu.obj
 0003:000091ac       ??_C@_0BF@IMKK@?5?5?5?5?5fast?5console?5?5?5?$AA@ 004751ac     menu.obj
 0003:000091c4       ??_C@_0BF@NPII@?5?5?5?5?5keypad?5binding?5?$AA@ 004751c4     menu.obj
 0003:000091dc       ??_C@_09IHFO@interface?$AA@ 004751dc     menu.obj
 0003:000091e8       ??_C@_0BF@OHHK@?5?5?5?5?5disable?5bobbing?$AA@ 004751e8     menu.obj
 0003:00009200       ??_C@_0BF@COHL@?5?5?5?5?5view?5blends?5?5?5?5?$AA@ 00475200     menu.obj
 0003:00009218       ??_C@_07IOJL@classic?$AA@  00475218     menu.obj
 0003:00009220       ??_C@_0L@DABJ@darkplaces?$AA@ 00475220     menu.obj
 0003:0000922c       ??_C@_0BF@MAIM@?5?5?5?5?5weapon?5style?5?5?5?$AA@ 0047522c     menu.obj
 0003:00009244       ??_C@_0BF@NFBP@?5?5?5?5?5draw?5weapon?5?5?5?5?$AA@ 00475244     menu.obj
 0003:0000925c       ??_C@_08NEIH@centered?$AA@ 0047525c     menu.obj
 0003:00009268       ??_C@_0BF@KKIE@?5?5?5?5?5crosshair?5?5?5?5?5?5?$AA@ 00475268     menu.obj
 0003:00009280       ??_C@_0L@FCKE@view?5setup?$AA@ 00475280     menu.obj
 0003:0000928c       ??_C@_0CB@LLMB@?$DM?9?9?5Previous?5?5?5?5?5?5?5?5?5?5?5?5Next?5?9?9?$DO@ 0047528c     menu.obj
 0003:000092b0       ??_C@_0CD@DLLF@?5http?3?1?1planetquake?4com?1proquake@ 004752b0     menu.obj
 0003:000092d4       ??_C@_0CD@KIJN@?5?5?5?5?5?5?5?5?5?5?5?5?5?5?5?5jpg?$EAai?4mit?4edu?5?5@ 004752d4     menu.obj
 0003:000092f8       ??_C@_0CD@FFMP@?5?5?5Programmed?5by?5J?4P?4?5Grossman?5?5@ 004752f8     menu.obj
 0003:0000931c       ??_C@_0BP@DEJF@?5?5?5?5?5?5?5http?3?1?1www?4quakeone?4com?$AA@ 0047531c     menu.obj
 0003:0000933c       ??_C@_0BP@LGOL@?5?5?5Unofficial?5Version?5By?5Baker?$AA@ 0047533c     menu.obj
 0003:0000935c       ??_C@_0CE@OGF@?5?5?5?5?5ProQuake?5version?5?$CF4?42f?5?5?5?5?5@ 0047535c     menu.obj
 0003:00009380       ??_C@_0P@NMFE@gfx?1help?$CFi?4lmp?$AA@ 00475380     menu.obj
 0003:00009390       ??_C@_0BL@IEKK@reserved?4?5Press?5y?5to?5exit?6?$AA@ 00475390     menu.obj
 0003:000093ac       ??_C@_0CG@HLKC@Nothing?5Interactive?0?5Inc?4?5All?5ri@ 004753ac     menu.obj
 0003:000093d4       ??_C@_0CC@KNGM@registered?5trademark?5licensed?5to@ 004753d4     menu.obj
 0003:000093f8       ??_C@_0CA@ILHD@rights?5reserved?4?5NIN?5logo?5is?5a?6?$AA@ 004753f8     menu.obj
 0003:00009418       ??_C@_0CF@LBGN@inc?4?0?5?$CIc?$CJ1996?5Id?5Software?0?5inc?4?5@ 00475418     menu.obj
 0003:00009440       ??_C@_0CG@BOED@Quake?5is?5a?5trademark?5of?5Id?5Softw@ 00475440     menu.obj
 0003:00009468       ??_C@_0CE@DCFH@?5Trent?5Reznor?5and?5Nine?5Inch?5Nail@ 00475468     menu.obj
 0003:0000948c       ??_C@_0P@LBNG@Sound?5Effects?6?$AA@ 0047548c     menu.obj
 0003:0000949c       ??_C@_0CB@DKIJ@?5Barrett?5Alexander?5?5Shawn?5Green?6@ 0047549c     menu.obj
 0003:000094c0       ??_C@_0BN@CLDB@Support?5?5?5?5?5?5?5?5?5?5?5?5Projects?6?$AA@ 004754c0     menu.obj
 0003:000094e0       ??_C@_0CG@PLEN@?5Tim?5Willits?5?5?5?5?5?5?5?5Todd?5Hollens@ 004754e0     menu.obj
 0003:00009508       ??_C@_0CD@EIDN@?5American?5McGee?5?5?5?5?5Donna?5Jackso@ 00475508     menu.obj
 0003:0000952c       ??_C@_0CB@FKJG@?5Sandy?5Petersen?5?5?5?5?5Mike?5Wilson?6@ 0047552c     menu.obj
 0003:00009550       ??_C@_0CA@EBMO@?5John?5Romero?5?5?5?5?5?5?5?5Jay?5Wilbur?6?$AA@ 00475550     menu.obj
 0003:00009570       ??_C@_0BI@IAGF@Design?5?5?5?5?5?5?5?5?5?5?5?5?5Biz?6?$AA@ 00475570     menu.obj
 0003:00009588       ??_C@_0BF@HBNF@?5Dave?5?8Zoid?8?5Kirsch?6?$AA@ 00475588     menu.obj
 0003:000095a0       ??_C@_0CA@LNFO@?5John?5Cash?5?5?5?5?5?5?5?5?5?5Paul?5Steed?6?$AA@ 004755a0     menu.obj
 0003:000095c0       ??_C@_0CB@KFG@?5Michael?5Abrash?5?5?5?5?5Kevin?5Cloud?6@ 004755c0     menu.obj
 0003:000095e4       ??_C@_0CE@EPKF@?5John?5Carmack?5?5?5?5?5?5?5Adrian?5Carma@ 004755e4     menu.obj
 0003:00009608       ??_C@_0BJ@NGNA@Programming?5?5?5?5?5?5?5?5Art?5?6?$AA@ 00475608     menu.obj
 0003:00009624       ??_C@_0CG@FPM@?5?5Quake?5version?51?409?5by?5id?5Softw@ 00475624     menu.obj
 0003:0000964c       ??_C@_02HAGF@OK?$AA@       0047564c     menu.obj
 0003:00009650       ??_C@_07OFDN@Connect?$AA@  00475650     menu.obj
 0003:00009658       ??_C@_0N@DHBC@Phone?5number?$AA@ 00475658     menu.obj
 0003:00009668       ??_C@_0P@HBM@Modem?5Setup?4?4?4?$AA@ 00475668     menu.obj
 0003:00009678       ??_C@_04IPGK@Baud?$AA@     00475678     menu.obj
 0003:00009680       ??_C@_02MHMJ@?$CFu?$AA@    00475680     menu.obj
 0003:00009684       ??_C@_03MHH@IRQ?$AA@       00475684     menu.obj
 0003:00009688       ??_C@_05KFAK@COM?$CFu?$AA@ 00475688     menu.obj
 0003:00009690       ??_C@_04CEAI@Port?$AA@     00475690     menu.obj
 0003:00009698       ??_C@_07DAJE@?$CFs?5?9?5?$CFs?$AA@ 00475698     menu.obj
 0003:000096a0       ??_C@_0P@MHDC@Direct?5Connect?$AA@ 004756a0     menu.obj
 0003:000096b0       ??_C@_05BJKG@Modem?$AA@    004756b0     menu.obj
 0003:000096b8       ??_C@_09NMII@Join?5Game?$AA@ 004756b8     menu.obj
 0003:000096c4       ??_C@_08DJPG@New?5Game?$AA@ 004756c4     menu.obj
 0003:000096d0       ??_C@_08ONKB@connect?6?$AA@ 004756d0     menu.obj
 0003:000096dc       ??_C@_0O@ECOB@connect?5?$CC?$CFs?$CC?6?$AA@ 004756dc     menu.obj
 0003:000096ec       ??_C@_06BNHI@Hangup?$AA@   004756ec     menu.obj
 0003:000096f4       ??_C@_04MIPP@Init?$AA@     004756f4     menu.obj
 0003:000096fc       ??_C@_05BHDE@Clear?$AA@    004756fc     menu.obj
 0003:00009704       ??_C@_0BD@ICAC@Touch?5Tone?5Dialing?$AA@ 00475704     menu.obj
 0003:00009718       ??_C@_0O@POOJ@Pulse?5Dialing?$AA@ 00475718     menu.obj
 0003:00009728       ??_C@_02JBML@?$CFc?$AA@    00475728     menu.obj
 0003:0000972c       ??_C@_0O@DCAJ@Join?5game?5at?3?$AA@ 0047572c     menu.obj
 0003:0000973c       ??_C@_0BK@GEAM@Search?5for?5local?5games?4?4?4?$AA@ 0047573c     menu.obj
 0003:00009758       ??_C@_08MBDJ@Address?3?$AA@ 00475758     menu.obj
 0003:00009764       ??_C@_06OFPO@TCP?1IP?$AA@  00475764     menu.obj
 0003:0000976c       ??_C@_03NPAN@IPX?$AA@      0047576c     menu.obj
 0003:00009770       ??_C@_0BJ@GLEG@?5?5?5see?5techinfo?4txt?4?5?5?5?5?$AA@ 00475770     menu.obj
 0003:0000978c       ??_C@_0BJ@PDOJ@line?5parameters?$DL?5please?5?$AA@ 0047578c     menu.obj
 0003:000097a8       ??_C@_0BJ@OIDO@?5requires?5using?5command?5?$AA@ 004757a8     menu.obj
 0003:000097c4       ??_C@_0BJ@LPCF@?5?5More?5than?54?5players?5?5?5?$AA@ 004757c4     menu.obj
 0003:000097e0       ??_C@_0BB@IDCO@?5?5?5?5?5?5?5?5?5?5?5Level?$AA@ 004757e0     menu.obj
 0003:000097f4       ??_C@_0BB@PHKB@?5?5?5?5?5?5?5?5?5Episode?$AA@ 004757f4     menu.obj
 0003:00009808       ??_C@_0L@NOOP@?$CFi?5minutes?$AA@ 00475808     menu.obj
 0003:00009814       ??_C@_0BC@HHAG@?5?5?5?5?5?5?5Time?5Limit?$AA@ 00475814     menu.obj
 0003:00009828       ??_C@_08PCOH@?$CFi?5frags?$AA@ 00475828     menu.obj
 0003:00009834       ??_C@_04KIKH@none?$AA@     00475834     menu.obj
 0003:0000983c       ??_C@_0BC@NIFI@?5?5?5?5?5?5?5Frag?5Limit?$AA@ 0047583c     menu.obj
 0003:00009850       ??_C@_0BF@JEHO@Nightmare?5difficulty?$AA@ 00475850     menu.obj
 0003:00009868       ??_C@_0BA@BAGN@Hard?5difficulty?$AA@ 00475868     menu.obj
 0003:00009878       ??_C@_0BC@MFMM@Normal?5difficulty?$AA@ 00475878     menu.obj
 0003:0000988c       ??_C@_0BA@PHJP@Easy?5difficulty?$AA@ 0047588c     menu.obj
 0003:0000989c       ??_C@_0BC@DNKP@?5?5?5?5?5?5?5?5?5?5?5?5Skill?$AA@ 0047589c     menu.obj
 0003:000098b0       ??_C@_0BB@LGFG@No?5Friendly?5Fire?$AA@ 004758b0     menu.obj
 0003:000098c4       ??_C@_0O@KCDE@Friendly?5Fire?$AA@ 004758c4     menu.obj
 0003:000098d4       ??_C@_03KLCE@Off?$AA@      004758d4     menu.obj
 0003:000098d8       ??_C@_0P@NKGF@Three?5Team?5CTF?$AA@ 004758d8     menu.obj
 0003:000098e8       ??_C@_0N@DCK@One?5Flag?5CTF?$AA@ 004758e8     menu.obj
 0003:000098f8       ??_C@_0BB@EEMI@Capture?5the?5Flag?$AA@ 004758f8     menu.obj
 0003:0000990c       ??_C@_03CHAC@Tag?$AA@      0047590c     menu.obj
 0003:00009910       ??_C@_0BB@EEFP@?5?5?5?5?5?5?5?5Teamplay?$AA@ 00475910     menu.obj
 0003:00009924       ??_C@_0L@HCFG@Deathmatch?$AA@ 00475924     menu.obj
 0003:00009930       ??_C@_0M@CHM@Cooperative?$AA@ 00475930     menu.obj
 0003:0000993c       ??_C@_0BC@JOGG@?5?5?5?5?5?5?5?5Game?5Type?$AA@ 0047593c     menu.obj
 0003:00009950       ??_C@_02JAFN@?$CFi?$AA@    00475950     menu.obj
 0003:00009954       ??_C@_0BC@FOLL@?5?5?5?5?5?5Max?5players?$AA@ 00475954     menu.obj
 0003:00009968       ??_C@_0L@DEFN@begin?5game?$AA@ 00475968     menu.obj
 0003:00009974       ??_C@_07MFI@map?5?$CFs?6?$AA@ 00475974     menu.obj
 0003:0000997c       ??_C@_0P@OIHM@maxplayers?5?$CFu?6?$AA@ 0047597c     menu.obj
 0003:0000998c       ??_C@_09CALI@listen?50?6?$AA@ 0047598c     menu.obj
 0003:00009998       ??_C@_0BH@OCMB@No?5Quake?5servers?5found?$AA@ 00475998     menu.obj
 0003:000099b0       ??_C@_0N@HFOG@Searching?4?4?4?$AA@ 004759b0     menu.obj
 0003:000099c0       ??_C@_0BD@BGNB@?$CF?915?415s?5?$CF?915?415s?6?$AA@ 004759c0     menu.obj
 0003:000099d4       ??_C@_0BL@CPAH@?$CF?915?415s?5?$CF?915?415s?5?$CF2u?1?$CF2u?6?$AA@ 004759d4     menu.obj
 0003:000099f0       ??_C@_09PFNO@menu_quit?$AA@ 004759f0     menu.obj
 0003:000099fc       ??_C@_0L@CAHB@menu_video?$AA@ 004759fc     menu.obj
 0003:00009a08       ??_C@_0BB@GDIL@menu_preferences?$AA@ 00475a08     menu.obj
 0003:00009a1c       ??_C@_09NOON@menu_keys?$AA@ 00475a1c     menu.obj
 0003:00009a28       ??_C@_0N@FFLM@menu_options?$AA@ 00475a28     menu.obj
 0003:00009a38       ??_C@_0L@FMPH@menu_setup?$AA@ 00475a38     menu.obj
 0003:00009a44       ??_C@_0BB@JJLE@menu_multiplayer?$AA@ 00475a44     menu.obj
 0003:00009a58       ??_C@_09GLAF@menu_save?$AA@ 00475a58     menu.obj
 0003:00009a64       ??_C@_09DDKD@menu_load?$AA@ 00475a64     menu.obj
 0003:00009a70       ??_C@_0BC@KLNL@menu_singleplayer?$AA@ 00475a70     menu.obj
 0003:00009a84       ??_C@_09NOPB@menu_main?$AA@ 00475a84     menu.obj
 0003:00009a90       ??_C@_0L@FFLA@togglemenu?$AA@ 00475a90     menu.obj
 0003:00009a9c       ??_C@_0N@PFJB@com1?5enable?6?$AA@ 00475a9c     menu.obj
 0003:00009aac       ??_C@_09HNLG@stopdemo?6?$AA@ 00475aac     menu.obj
 0003:00009ab8       ??_C@_0BO@NNA@Mod_Extradata?3?5caching?5failed?$AA@ 00475ab8     model.obj
 0003:00009ad8       ??_C@_0BL@HBDH@Mod_PointInLeaf?3?5bad?5model?$AA@ 00475ad8     model.obj
 0003:00009af4       ??_C@_0BO@PLCA@mod_numknown?5?$DN?$DN?5MAX_MOD_KNOWN?$AA@ 00475af4     model.obj
 0003:00009b14       ??_C@_0BH@LKJJ@Mod_ForName?3?5NULL?5name?$AA@ 00475b14     model.obj
 0003:00009b2c       ??_C@_0BN@DJML@Mod_NumForName?3?5?$CFs?5not?5found?$AA@ 00475b2c     model.obj
 0003:00009b4c       ??_C@_0BH@ODCM@Missing?5frame?5?$CFi?5of?5?$CFs?$AA@ 00475b4c     model.obj
 0003:00009b64       ??_C@_0BJ@OPCP@Bad?5animating?5texture?5?$CFs?$AA@ 00475b64     model.obj
 0003:00009b80       ??_C@_03EBAN@sky?$AA@      00475b80     model.obj
 0003:00009b84       ??_C@_0BN@PKME@Texture?5?$CFs?5is?5not?516?5aligned?$AA@ 00475b84     model.obj
 0003:00009ba4       ??_C@_0CG@OOHH@MOD_LoadBmodel?3?5funny?5lump?5size?5@ 00475ba4     model.obj
 0003:00009bcc       ??_C@_0CB@CJOD@miptex?5?$DO?$DN?5loadmodel?9?$DOnumtextures@ 00475bcc     model.obj
 0003:00009bf0       ??_C@_0BE@MAIJ@Bad?5surface?5extents?$AA@ 00475bf0     model.obj
 0003:00009c04       ??_C@_01FDHG@?$CK?$AA@     00475c04     model.obj
 0003:00009c08       ??_C@_0CK@NMOI@Mod_ParseMarksurfaces?3?5bad?5surfa@ 00475c08     model.obj
 0003:00009c34       ??_C@_03OGBA@?$CK?$CFi?$AA@ 00475c34     model.obj
 0003:00009c38       ??_C@_0EC@DMMC@Mod_LoadBrushModel?3?5?$CFs?5has?5wrong@ 00475c38     model.obj
 0003:00009c7c       ??_C@_0CA@GFBJ@Mod_LoadAliasGroup?3?5interval?$DM?$DN0?$AA@ 00475c7c     model.obj
 0003:00009c9c       ??_C@_0DG@JHJN@Mod_LoadAliasSkin?3?5driver?5set?5in@ 00475c9c     model.obj
 0003:00009cd4       ??_C@_0CE@IDG@Mod_LoadAliasSkinGroup?3?5interval@ 00475cd4     model.obj
 0003:00009cf8       ??_C@_0CN@NMJC@Mod_LoadAliasModel?3?5Invalid?5?$CD?5of@ 00475cf8     model.obj
 0003:00009d28       ??_C@_0CM@MOJK@Mod_LoadAliasModel?3?5Invalid?5?$CD?5of@ 00475d28     model.obj
 0003:00009d54       ??_C@_0DA@BINM@Mod_LoadAliasModel?3?5skinwidth?5no@ 00475d54     model.obj
 0003:00009d84       ??_C@_0BK@EBGJ@model?5?$CFs?5has?5no?5triangles?$AA@ 00475d84     model.obj
 0003:00009da0       ??_C@_0BP@KFMM@model?5?$CFs?5has?5too?5many?5vertices?$AA@ 00475da0     model.obj
 0003:00009dc0       ??_C@_0BJ@BMCG@model?5?$CFs?5has?5no?5vertices?$AA@ 00475dc0     model.obj
 0003:00009ddc       ??_C@_0CD@DNIE@model?5?$CFs?5has?5a?5skin?5taller?5than?5@ 00475ddc     model.obj
 0003:00009e00       ??_C@_0CO@LDOK@?$CFs?5has?5wrong?5version?5number?5?$CI?$CFi?5@ 00475e00     model.obj
 0003:00009e30       ??_C@_0DI@ENNE@Mod_LoadSpriteFrame?3?5driver?5set?5@ 00475e30     model.obj
 0003:00009e68       ??_C@_0CB@NOCJ@Mod_LoadSpriteGroup?3?5interval?$DM?$DN0@ 00475e68     model.obj
 0003:00009e8c       ??_C@_0CO@GAOM@Mod_LoadSpriteModel?3?5Invalid?5?$CD?5o@ 00475e8c     model.obj
 0003:00009ebc       ??_C@_05PIHI@?5?$CI?$CBP?$CJ?$AA@ 00475ebc     model.obj
 0003:00009ec4       ??_C@_05NFCN@?5?$CI?$CBR?$CJ?$AA@ 00475ec4     model.obj
 0003:00009ecc       ??_C@_08EFJJ@?$CF8p?5?3?5?$CFs?$AA@ 00475ecc     model.obj
 0003:00009ed8       ??_C@_0BA@INPL@Cached?5models?3?6?$AA@ 00475ed8     model.obj
 0003:00009ee8       _banMask                   00475ee8     net_dgrm.obj
 0003:00009ef0       _testPollProcedure         00475ef0     net_dgrm.obj
 0003:00009f08       _test2PollProcedure        00475f08     net_dgrm.obj
 0003:00009f20       _rconPollProcedure         00475f20     net_dgrm.obj
 0003:00009f38       ??_C@_0BE@DNMJ@Banning?5not?5active?6?$AA@ 00475f38     net_dgrm.obj
 0003:00009f4c       ??_C@_0BB@NEEA@Banning?5?$CFs?5?$FL?$CFs?$FN?6?$AA@ 00475f4c     net_dgrm.obj
 0003:00009f60       ??_C@_0BH@DIBI@BAN?5ip_address?5?$FLmask?$FN?6?$AA@ 00475f60     net_dgrm.obj
 0003:00009f78       ??_C@_0BI@ICDO@Dropped?5?$CFu?5datagram?$CIs?$CJ?6?$AA@ 00475f78     net_dgrm.obj
 0003:00009f90       ??_C@_0BG@LJC@Got?5a?5stale?5datagram?6?$AA@ 00475f90     net_dgrm.obj
 0003:00009fa8       ??_C@_0BA@KGHN@Invalid?5length?6?$AA@ 00475fa8     net_dgrm.obj
 0003:00009fb8       ??_C@_0M@OCIE@Read?5error?6?$AA@ 00475fb8     net_dgrm.obj
 0003:00009fc4       ??_C@_0BI@OKNC@Duplicate?5ACK?5received?6?$AA@ 00475fc4     net_dgrm.obj
 0003:00009fdc       ??_C@_0BG@EGIH@ack?5sequencing?5error?6?$AA@ 00475fdc     net_dgrm.obj
 0003:00009ff4       ??_C@_0BE@PLPF@Stale?5ACK?5received?6?$AA@ 00475ff4     net_dgrm.obj
 0003:0000a008       ??_C@_0BC@BOAN@recvSeq?5?$DN?5?$CF4u?5?5?5?6?$AA@ 00476008     net_dgrm.obj
 0003:0000a01c       ??_C@_0BB@CNMK@sendSeq?5?$DN?5?$CF4u?5?5?5?$AA@ 0047601c     net_dgrm.obj
 0003:0000a030       ??_C@_0BC@DEAI@canSend?5?$DN?5?$CF4u?5?5?5?6?$AA@ 00476030     net_dgrm.obj
 0003:0000a044       ??_C@_0CB@IDHH@droppedDatagrams?5?5?5?5?5?5?5?5?5?5?5?$DN?5?$CFi?6@ 00476044     net_dgrm.obj
 0003:0000a068       ??_C@_0CB@CBEP@shortPacketCount?5?5?5?5?5?5?5?5?5?5?5?$DN?5?$CFi?6@ 00476068     net_dgrm.obj
 0003:0000a08c       ??_C@_0CB@JKIA@receivedDuplicateCount?5?5?5?5?5?$DN?5?$CFi?6@ 0047608c     net_dgrm.obj
 0003:0000a0b0       ??_C@_0CB@JKB@packetsReceived?5?5?5?5?5?5?5?5?5?5?5?5?$DN?5?$CFi?6@ 004760b0     net_dgrm.obj
 0003:0000a0d4       ??_C@_0CB@JAIK@packetsReSent?5?5?5?5?5?5?5?5?5?5?5?5?5?5?$DN?5?$CFi?6@ 004760d4     net_dgrm.obj
 0003:0000a0f8       ??_C@_0CB@LFOH@packetsSent?5?5?5?5?5?5?5?5?5?5?5?5?5?5?5?5?$DN?5?$CFi?6@ 004760f8     net_dgrm.obj
 0003:0000a11c       ??_C@_0CB@NABI@reliable?5messages?5received?5?$DN?5?$CFi?6@ 0047611c     net_dgrm.obj
 0003:0000a140       ??_C@_0CB@MBFK@reliable?5messages?5sent?5?5?5?5?5?$DN?5?$CFi?6@ 00476140     net_dgrm.obj
 0003:0000a164       ??_C@_0CB@KHIO@unreliable?5messages?5recv?5?5?5?$DN?5?$CFi?6@ 00476164     net_dgrm.obj
 0003:0000a188       ??_C@_0CB@IACN@unreliable?5messages?5sent?5?5?5?$DN?5?$CFi?6@ 00476188     net_dgrm.obj
 0003:0000a1ac       ??_C@_0BE@ENMF@Setting?5port?5to?5?$CFd?6?$AA@ 004761ac     net_dgrm.obj
 0003:0000a1c0       ??_C@_0CM@FFF@Unexpected?5repsonse?5to?5Player?5In@ 004761c0     net_dgrm.obj
 0003:0000a1ec       ??_C@_0CM@NHOK@?$CFs?6?5?5frags?3?$CF3i?5?5colors?3?$CFu?5?$CFu?5?5ti@ 004761ec     net_dgrm.obj
 0003:0000a218       ??_C@_0BE@GJAC@?$CF?916?416s?5?5?$CF?916?416s?6?$AA@ 00476218     net_dgrm.obj
 0003:0000a22c       ??_C@_0CK@HDOG@Unexpected?5repsonse?5to?5Rule?5Info@ 0047622c     net_dgrm.obj
 0003:0000a258       ??_C@_0CF@JEEE@Unexpected?5repsonse?5to?5rcon?5comm@ 00476258     net_dgrm.obj
 0003:0000a280       ??_C@_0BD@LOIB@rcon?3?5no?5response?6?$AA@ 00476280     net_dgrm.obj
 0003:0000a294       ??_C@_04CHBK@rcon?$AA@     00476294     net_dgrm.obj
 0003:0000a29c       ??_C@_05DAIH@test2?$AA@    0047629c     net_dgrm.obj
 0003:0000a2a4       ??_C@_04DJDA@test?$AA@     004762a4     net_dgrm.obj
 0003:0000a2ac       ??_C@_03FGOF@ban?$AA@      004762ac     net_dgrm.obj
 0003:0000a2b0       ??_C@_09NLLI@net_stats?$AA@ 004762b0     net_dgrm.obj
 0003:0000a2bc       ??_C@_0BH@CGEH@Could?5not?5open?5socket?6?$AA@ 004762bc     net_dgrm.obj
 0003:0000a2d4       ??_C@_0BG@DII@Could?5not?5resolve?5?$CFs?6?$AA@ 004762d4     net_dgrm.obj
 0003:0000a2ec       ??_C@_0CK@HAM@There?5is?5already?5a?5test?1rcon?5in?5@ 004762ec     net_dgrm.obj
 0003:0000a318       ??_C@_0BO@JEHO@rcon_server?5has?5not?5been?5set?6?$AA@ 00476318     net_dgrm.obj
 0003:0000a338       ??_C@_0CA@DLNG@rcon_password?5has?5not?5been?5set?6?$AA@ 00476338     net_dgrm.obj
 0003:0000a358       ??_C@_0BH@GHBB@usage?3?5rcon?5?$DMcommand?$DO?6?$AA@ 00476358     net_dgrm.obj
 0003:0000a370       ??_C@_0BB@MHDF@Server?5is?5full?4?6?$AA@ 00476370     net_dgrm.obj
 0003:0000a384       ??_C@_0GF@JMLB@?$JN?T?h?i?s?$KA?i?s?$KA?a?$KA?c?h?e?a?t?$KN?f?r?e?e?$KA?s?e?r?v?e?r?$JP?6Yo@ 00476384     net_dgrm.obj
 0003:0000a3ec       ??_C@_0JB@KDOL@?$JN?S?e?r?v?e?r?$KA?i?s?$KA?p?a?s?s?w?o?r?d?$KA?p?r?o?t?e?c?t?e?d?$JP?6Y@ 004763ec     net_dgrm.obj
 0003:0000a480       ??_C@_0BH@FHCH@You?5have?5been?5banned?4?6?$AA@ 00476480     net_dgrm.obj
 0003:0000a498       ??_C@_0BH@PALG@Incompatible?5version?4?6?$AA@ 00476498     net_dgrm.obj
 0003:0000a4b0       ??_C@_0BD@PGDM@incorrect?5password?$AA@ 004764b0     net_dgrm.obj
 0003:0000a4c4       ??_C@_0CA@ELAE@rcon?5is?5disabled?5on?5this?5server?$AA@ 004764c4     net_dgrm.obj
 0003:0000a4e4       ??_C@_05EMCD@QUAKE?$AA@    004764e4     net_dgrm.obj
 0003:0000a4ec       ??_C@_0O@ICEL@?5?$CIcheat?9free?$CJ?$AA@ 004764ec     net_dgrm.obj
 0003:0000a4fc       ??_C@_0N@EGHC@Bad?5Response?$AA@ 004764fc     net_dgrm.obj
 0003:0000a50c       ??_C@_0BH@HFOA@Connect?5to?5Game?5failed?$AA@ 0047650c     net_dgrm.obj
 0003:0000a524       ??_C@_0BF@IEOD@Connection?5accepted?6?$AA@ 00476524     net_dgrm.obj
 0003:0000a53c       ??_C@_0CF@LBOH@Could?5not?5initialize?5security?5mo@ 0047653c     net_dgrm.obj
 0003:0000a564       ??_C@_0O@PFBJ@Network?5Error?$AA@ 00476564     net_dgrm.obj
 0003:0000a574       ??_C@_0M@JJHJ@No?5Response?$AA@ 00476574     net_dgrm.obj
 0003:0000a580       ??_C@_0BB@KOAI@still?5trying?4?4?4?6?$AA@ 00476580     net_dgrm.obj
 0003:0000a594       ??_C@_0L@OEE@trying?4?4?4?6?$AA@ 00476594     net_dgrm.obj
 0003:0000a5a0       ??_C@_07DPCF@UNNAMED?$AA@  004765a0     net_loop.obj
 0003:0000a5a8       ??_C@_05JIPK@LOCAL?$AA@    004765a8     net_loop.obj
 0003:0000a5b0       ??_C@_09FBHK@localhost?$AA@ 004765b0     net_loop.obj
 0003:0000a5bc       ??_C@_0CE@HLLA@Loop_Connect?3?5no?5qsocket?5availab@ 004765bc     net_loop.obj
 0003:0000a5e0       ??_C@_0BM@KABP@Loop_SendMessage?3?5overflow?6?$AA@ 004765e0     net_loop.obj
 0003:0000a600       _DEFAULTnet_hostport       00476600     net_main.obj
 0003:0000a604       _slistLocal                00476604     net_main.obj
 0003:0000a608       _slistSendProcedure        00476608     net_main.obj
 0003:0000a620       _slistPollProcedure        00476620     net_main.obj
 0003:0000a638       _net_messagetimeout        00476638     net_main.obj
 0003:0000a658       _net_connecttimeout        00476658     net_main.obj
 0003:0000a678       _hostname                  00476678     net_main.obj
 0003:0000a698       _pq_password               00476698     net_main.obj
 0003:0000a6b8       _rcon_password             004766b8     net_main.obj
 0003:0000a6d8       _rcon_server               004766d8     net_main.obj
 0003:0000a6f8       _rcon_message              004766f8     net_main.obj
 0003:0000a710       _config_com_port           00476710     net_main.obj
 0003:0000a730       _config_com_irq            00476730     net_main.obj
 0003:0000a750       _config_com_baud           00476750     net_main.obj
 0003:0000a770       _config_com_modem          00476770     net_main.obj
 0003:0000a790       _config_modem_dialtype     00476790     net_main.obj
 0003:0000a7b0       _config_modem_clear        004767b0     net_main.obj
 0003:0000a7d0       _config_modem_init         004767d0     net_main.obj
 0003:0000a7f0       _config_modem_hangup       004767f0     net_main.obj
 0003:0000a80c       _vcrFile                   0047680c     net_main.obj
 0003:0000a810       ??_C@_04LJGH@AT?5H?$AA@    00476810     net_main.obj
 0003:0000a818       ??_C@_0BF@PACC@_config_modem_hangup?$AA@ 00476818     net_main.obj
 0003:0000a830       ??_C@_0BD@PJLN@_config_modem_init?$AA@ 00476830     net_main.obj
 0003:0000a844       ??_C@_03EADM@ATZ?$AA@      00476844     net_main.obj
 0003:0000a848       ??_C@_0BE@ENAF@_config_modem_clear?$AA@ 00476848     net_main.obj
 0003:0000a85c       ??_C@_01KGOM@T?$AA@        0047685c     net_main.obj
 0003:0000a860       ??_C@_0BH@CFJE@_config_modem_dialtype?$AA@ 00476860     net_main.obj
 0003:0000a878       ??_C@_0BC@ENDI@_config_com_modem?$AA@ 00476878     net_main.obj
 0003:0000a88c       ??_C@_05OIDB@57600?$AA@    0047688c     net_main.obj
 0003:0000a894       ??_C@_0BB@BBDD@_config_com_baud?$AA@ 00476894     net_main.obj
 0003:0000a8a8       ??_C@_0BA@NCFD@_config_com_irq?$AA@ 004768a8     net_main.obj
 0003:0000a8b8       ??_C@_05LFCN@0x3f8?$AA@    004768b8     net_main.obj
 0003:0000a8c0       ??_C@_0BB@LKFB@_config_com_port?$AA@ 004768c0     net_main.obj
 0003:0000a8d4       ??_C@_0M@FJFK@rcon_server?$AA@ 004768d4     net_main.obj
 0003:0000a8e0       ??_C@_0O@OCNK@rcon_password?$AA@ 004768e0     net_main.obj
 0003:0000a8f0       ??_C@_0M@BFIB@pq_password?$AA@ 004768f0     net_main.obj
 0003:0000a8fc       ??_C@_02FCMB@10?$AA@       004768fc     net_main.obj
 0003:0000a900       ??_C@_0BD@HGCI@net_connecttimeout?$AA@ 00476900     net_main.obj
 0003:0000a914       ??_C@_0BD@LHJA@net_messagetimeout?$AA@ 00476914     net_main.obj
 0003:0000a928       ??_C@_0O@OOB@UNSET?5ADDRESS?$AA@ 00476928     net_main.obj
 0003:0000a938       ??_C@_0BN@JNHM@NET_FreeQSocket?3?5not?5active?6?$AA@ 00476938     net_main.obj
 0003:0000a958       ??_C@_0BO@CBAO@Looking?5for?5Quake?5servers?4?4?4?6?$AA@ 00476958     net_main.obj
 0003:0000a978       ??_C@_0CH@HHFD@?9?9?9?9?9?9?9?9?9?9?9?9?9?9?9?5?9?9?9?9?9?9?9?9?9?9?9?9?9?9?9?5@ 00476978     net_main.obj
 0003:0000a9a0       ??_C@_0CH@NGLA@Server?5?5?5?5?5?5?5?5?5?5Map?5?5?5?5?5?5?5?5?5?5?5?5?5@ 004769a0     net_main.obj
 0003:0000a9c8       ??_C@_0BK@FKPJ@No?5Quake?5servers?5found?4?6?6?$AA@ 004769c8     net_main.obj
 0003:0000a9e4       ??_C@_0BB@MIHP@?$DN?$DN?5end?5list?5?$DN?$DN?6?6?$AA@ 004769e4     net_main.obj
 0003:0000a9f8       ??_C@_0BL@IMPL@Connecting?5to?4?4?4?6?$CFs?5?$EA?5?$CFs?6?6?$AA@ 004769f8     net_main.obj
 0003:0000aa14       ??_C@_0CF@COFO@NET_GetMessage?3?5disconnected?5soc@ 00476a14     net_main.obj
 0003:0000aa3c       ??_C@_0CG@LLCB@NET_SendMessage?3?5disconnected?5so@ 00476a3c     net_main.obj
 0003:0000aa64       ??_C@_0BD@EPHH@TCP?1IP?5address?5?$CFs?6?$AA@ 00476a64     net_main.obj
 0003:0000aa78       ??_C@_0BA@BNAB@IPX?5address?5?$CFs?6?$AA@ 00476a78     net_main.obj
 0003:0000aa88       ??_C@_04IOEK@port?$AA@     00476a88     net_main.obj
 0003:0000aa90       ??_C@_0L@OGIK@maxplayers?$AA@ 00476a90     net_main.obj
 0003:0000aa9c       ??_C@_06IODP@listen?$AA@   00476a9c     net_main.obj
 0003:0000aaa4       ??_C@_05HBKK@slist?$AA@    00476aa4     net_main.obj
 0003:0000aaac       ??_C@_07BDOJ@qsocket?$AA@  00476aac     net_main.obj
 0003:0000aab4       ??_C@_0DA@OLKI@NET_Init?3?5you?5must?5specify?5a?5num@ 00476ab4     net_main.obj
 0003:0000aae4       ??_C@_08HBC@?9ipxport?$AA@ 00476ae4     net_main.obj
 0003:0000aaf0       ??_C@_08CNBL@?9udpport?$AA@ 00476af0     net_main.obj
 0003:0000aafc       ??_C@_05KLHK@?9port?$AA@   00476afc     net_main.obj
 0003:0000ab04       ??_C@_0BC@DHFE@?$CClisten?$CC?5is?5?$CC?$CFu?$CC?6?$AA@ 00476b04     net_main.obj
 0003:0000ab18       ??_C@_09DGBC@listen?51?6?$AA@ 00476b18     net_main.obj
 0003:0000ab24       ??_C@_0BK@GMBK@?$CCmaxplayers?$CC?5set?5to?5?$CC?$CFu?$CC?6?$AA@ 00476b24     net_main.obj
 0003:0000ab40       ??_C@_0DK@GAPC@maxplayers?5can?5not?5be?5changed?5wh@ 00476b40     net_main.obj
 0003:0000ab7c       ??_C@_0BG@JHBM@?$CCmaxplayers?$CC?5is?5?$CC?$CFu?$CC?6?$AA@ 00476b7c     net_main.obj
 0003:0000ab94       ??_C@_0CI@ICGD@Bad?5value?0?5must?5be?5between?51?5and@ 00476b94     net_main.obj
 0003:0000abbc       ??_C@_0BA@BIGO@?$CCport?$CC?5is?5?$CC?$CFu?$CC?6?$AA@ 00476bbc     net_main.obj
 0003:0000abcc       ??_C@_0BC@JNAH@Closing?5vcrfile?4?6?$AA@ 00476bcc     net_main.obj
 0003:0000abe0       ??_C@_0BF@MCNE@VCR_ReadNext?3?5bad?5op?$AA@ 00476be0     net_vcr.obj
 0003:0000abf8       ??_C@_0BI@ELGL@?$DN?$DN?$DN?5END?5OF?5PLAYBACK?$DN?$DN?$DN?6?$AA@ 00476bf8     net_vcr.obj
 0003:0000ac10       ??_C@_0O@COPN@VCR?5missmatch?$AA@ 00476c10     net_vcr.obj
 0003:0000ac20       _net_drivers               00476c20     net_win.obj
 0003:0000ae00       _net_numdrivers            00476e00     net_win.obj
 0003:0000ae08       _net_landrivers            00476e08     net_win.obj
 0003:0000b0a8       _net_numlandrivers         004770a8     net_win.obj
 0003:0000b0ac       ??_C@_0M@EGDK@Winsock?5IPX?$AA@ 004770ac     net_win.obj
 0003:0000b0b8       ??_C@_0O@GLC@Winsock?5TCPIP?$AA@ 004770b8     net_win.obj
 0003:0000b0c8       ??_C@_08IDEN@Datagram?$AA@ 004770c8     net_win.obj
 0003:0000b0d4       ??_C@_08PBG@Loopback?$AA@  004770d4     net_win.obj
 0003:0000b0e4       ??_C@_0M@IBML@?$CFd?4?$CFd?4?$CFd?4?$CFd?$AA@ 004770e4     net_wins.obj
 0003:0000b0f0       ??_C@_0CK@MHGM@Couldn?8t?5GetProcAddress?5from?5win@ 004770f0     net_wins.obj
 0003:0000b11c       ??_C@_0BM@KCGL@Winsock?5TCP?1IP?5Initialized?6?$AA@ 0047711c     net_wins.obj
 0003:0000b138       ??_C@_0CK@CFEH@WINS_Init?3?5Unable?5to?5open?5contro@ 00477138     net_wins.obj
 0003:0000b164       ??_C@_0DH@NJOJ@NET_Init?3?5you?5must?5specify?5an?5IP@ 00477164     net_wins.obj
 0003:0000b19c       ??_C@_07CHLM@?9qsmack?$AA@ 0047719c     net_wins.obj
 0003:0000b1a4       ??_C@_0L@LJGI@INADDR_ANY?$AA@ 004771a4     net_wins.obj
 0003:0000b1b0       ??_C@_0DD@KPII@NET_Init?3?5you?5must?5specify?5an?5IP@ 004771b0     net_wins.obj
 0003:0000b1e4       ??_C@_0BN@FGPO@?$CFs?5is?5not?5a?5valid?5IP?5address?$AA@ 004771e4     net_wins.obj
 0003:0000b204       ??_C@_03EKHF@?9ip?$AA@     00477204     net_wins.obj
 0003:0000b208       ??_C@_0CH@ODGK@Winsock?5TCP?1IP?5Initialization?5fa@ 00477208     net_wins.obj
 0003:0000b230       ??_C@_0CA@NELC@Winsock?5initialization?5failed?4?6?$AA@ 00477230     net_wins.obj
 0003:0000b250       ??_C@_06LPJD@?9noudp?$AA@  00477250     net_wins.obj
 0003:0000b258       ??_C@_0M@NGKD@getsockname?$AA@ 00477258     net_wins.obj
 0003:0000b264       ??_C@_0O@IOIG@gethostbyaddr?$AA@ 00477264     net_wins.obj
 0003:0000b274       ??_C@_0O@BLIP@gethostbyname?$AA@ 00477274     net_wins.obj
 0003:0000b284       ??_C@_0M@PEMK@gethostname?$AA@ 00477284     net_wins.obj
 0003:0000b290       ??_C@_0M@BGOH@closesocket?$AA@ 00477290     net_wins.obj
 0003:0000b29c       ??_C@_06CILG@sendto?$AA@   0047729c     net_wins.obj
 0003:0000b2a4       ??_C@_08DJPD@recvfrom?$AA@ 004772a4     net_wins.obj
 0003:0000b2b0       ??_C@_0L@PCGG@setsockopt?$AA@ 004772b0     net_wins.obj
 0003:0000b2bc       ??_C@_0M@LOFA@ioctlsocket?$AA@ 004772bc     net_wins.obj
 0003:0000b2c8       ??_C@_06KDPK@socket?$AA@   004772c8     net_wins.obj
 0003:0000b2d0       ??_C@_0BA@OODD@WSAGetLastError?$AA@ 004772d0     net_wins.obj
 0003:0000b2e0       ??_C@_0L@KLBB@WSACleanup?$AA@ 004772e0     net_wins.obj
 0003:0000b2ec       ??_C@_0L@BKPI@WSAStartup?$AA@ 004772ec     net_wins.obj
 0003:0000b2f8       ??_C@_0BM@GFK@Failed?5to?5load?5winsock?4dll?6?$AA@ 004772f8     net_wins.obj
 0003:0000b314       ??_C@_0M@NEBL@wsock32?4dll?$AA@ 00477314     net_wins.obj
 0003:0000b320       ??_C@_0CL@GKPI@WINS_Listen?3?5Unable?5to?5open?5acce@ 00477320     net_wins.obj
 0003:0000b34c       ??_C@_0BF@OOBO@Unable?5to?5bind?5to?5?$CFs?$AA@ 0047734c     net_wins.obj
 0003:0000b364       ??_C@_0CJ@FFM@Unable?5to?5make?5socket?5broadcast?5@ 00477364     net_wins.obj
 0003:0000b390       ??_C@_0CO@IGJJ@Attempted?5to?5use?5multiple?5broadc@ 00477390     net_wins.obj
 0003:0000b3c0       ??_C@_0P@EOMI@?$CFd?4?$CFd?4?$CFd?4?$CFd?3?$CFd?$AA@ 004773c0     net_wins.obj
 0003:0000b3d0       ??_C@_09FCOK@127?40?40?41?$AA@ 004773d0     net_wins.obj
 0003:0000b3e0       ??_C@_0BJ@CGGL@Winsock?5IPX?5Initialized?6?$AA@ 004773e0     net_wipx.obj
 0003:0000b3fc       ??_C@_0CK@HNPP@WIPX_Init?3?5Unable?5to?5open?5contro@ 004773fc     net_wipx.obj
 0003:0000b428       ??_C@_06CCKN@?9noipx?$AA@  00477428     net_wipx.obj
 0003:0000b430       ??_C@_0CL@CLKA@WIPX_Listen?3?5Unable?5to?5open?5acce@ 00477430     net_wipx.obj
 0003:0000b45c       ??_C@_0BJ@HDMI@Winsock?5IPX?5bind?5failed?6?$AA@ 0047745c     net_wipx.obj
 0003:0000b478       ??_C@_0CF@HDIK@WIPX?3?5ioctlsocket?5?$CIFIONREAD?$CJ?5fai@ 00477478     net_wipx.obj
 0003:0000b4a0       ??_C@_0CN@OLHA@?$CF02x?$CF02x?$CF02x?$CF02x?3?$CF02x?$CF02x?$CF02x?$CF02@ 004774a0     net_wipx.obj
 0003:0000b4d0       ??_C@_02JDLK@?$CFx?$AA@    004774d0     net_wipx.obj
 0003:0000b4d4       ??_C@_05HAOE@?$CFs?3?$CFu?$AA@ 004774d4     net_wipx.obj
 0003:0000b4dc       ??_C@_0P@GDDJ@00000000?3?$CFs?3?$CFu?$AA@ 004774dc     net_wipx.obj
 0003:0000b4f0       _sv_aim                    004774f0     pr_cmds.obj
 0003:0000b50c       _pr_builtin                0047750c     pr_cmds.obj
 0003:0000b648       _pr_builtins               00477648     pr_cmds.obj
 0003:0000b64c       _pr_numbuiltins            0047764c     pr_cmds.obj
 0003:0000b650       ??_C@_04NJFI@0?493?$AA@    00477650     pr_cmds.obj
 0003:0000b658       ??_C@_06MMCC@sv_aim?$AA@   00477658     pr_cmds.obj
 0003:0000b660       ??_C@_0O@CLCJ@Program?5error?$AA@ 00477660     pr_cmds.obj
 0003:0000b670       ??_C@_0BO@OPGM@?$DN?$DN?$DN?$DN?$DN?$DNSERVER?5ERROR?5in?5?$CFs?3?6?$CFs?6?$AA@ 00477670     pr_cmds.obj
 0003:0000b690       ??_C@_0BO@EDAN@?$DN?$DN?$DN?$DN?$DN?$DNOBJECT?5ERROR?5in?5?$CFs?3?6?$CFs?6?$AA@ 00477690     pr_cmds.obj
 0003:0000b6b0       ??_C@_0BE@JPKK@backwards?5mins?1maxs?$AA@ 004776b0     pr_cmds.obj
 0003:0000b6c4       ??_C@_0BB@ONOI@no?5precache?3?5?$CFs?6?$AA@ 004776c4     pr_cmds.obj
 0003:0000b6d8       ??_C@_0CB@KJBD@tried?5to?5sprint?5to?5a?5non?9client?6@ 004776d8     pr_cmds.obj
 0003:0000b6fc       ??_C@_0BM@BBLO@SV_StartSound?3?5channel?5?$DN?5?$CFi?$AA@ 004776fc     pr_cmds.obj
 0003:0000b718       ??_C@_0CA@JBBE@SV_StartSound?3?5attenuation?5?$DN?5?$CFf?$AA@ 00477718     pr_cmds.obj
 0003:0000b738       ??_C@_0BL@LMKF@SV_StartSound?3?5volume?5?$DN?5?$CFi?$AA@ 00477738     pr_cmds.obj
 0003:0000b754       ??_C@_0BB@HHFM@break?5statement?6?$AA@ 00477754     pr_cmds.obj
 0003:0000b768       ??_C@_0BE@GIDE@Parm?50?5not?5a?5client?$AA@ 00477768     pr_cmds.obj
 0003:0000b77c       ??_C@_05PEHH@?$CF5?41f?$AA@ 0047777c     pr_cmds.obj
 0003:0000b784       ??_C@_0BE@BBNB@?8?$CF5?41f?5?$CF5?41f?5?$CF5?41f?8?$AA@ 00477784     pr_cmds.obj
 0003:0000b798       ??_C@_0BL@HPAM@PF_Find?3?5bad?5search?5string?$AA@ 00477798     pr_cmds.obj
 0003:0000b7b4       ??_C@_0L@EGPP@Bad?5string?$AA@ 004777b4     pr_cmds.obj
 0003:0000b7c0       ??_C@_0BM@MCPA@PF_precache_sound?3?5overflow?$AA@ 004777c0     pr_cmds.obj
 0003:0000b7dc       ??_C@_0DM@FLIL@PF_Precache_?$CK?3?5Precache?5can?5only@ 004777dc     pr_cmds.obj
 0003:0000b818       ??_C@_0BM@LIJA@PF_precache_model?3?5overflow?$AA@ 00477818     pr_cmds.obj
 0003:0000b834       ??_C@_0BL@LDBF@WriteDest?3?5bad?5destination?$AA@ 00477834     pr_cmds.obj
 0003:0000b850       ??_C@_0BI@BDHB@WriteDest?3?5not?5a?5client?$AA@ 00477850     pr_cmds.obj
 0003:0000b868       ??_C@_0BH@OJIG@Entity?5is?5not?5a?5client?$AA@ 00477868     pr_cmds.obj
 0003:0000b880       ??_C@_0BA@KDA@changelevel?5?$CFs?6?$AA@ 00477880     pr_cmds.obj
 0003:0000b890       ??_C@_0BG@LOIC@unimplemented?5bulitin?$AA@ 00477890     pr_cmds.obj
 0003:0000b8a8       _type_size                 004778a8     pr_edict.obj
 0003:0000b8c8       _nomonsters                004778c8     pr_edict.obj
 0003:0000b8e8       _gamecfg                   004778e8     pr_edict.obj
 0003:0000b908       _scratch1                  00477908     pr_edict.obj
 0003:0000b928       _scratch2                  00477928     pr_edict.obj
 0003:0000b948       _scratch3                  00477948     pr_edict.obj
 0003:0000b968       _scratch4                  00477968     pr_edict.obj
 0003:0000b988       _savedgamecfg              00477988     pr_edict.obj
 0003:0000b9a8       _saved1                    004779a8     pr_edict.obj
 0003:0000b9c8       _saved2                    004779c8     pr_edict.obj
 0003:0000b9e8       _saved3                    004779e8     pr_edict.obj
 0003:0000ba08       _saved4                    00477a08     pr_edict.obj
 0003:0000ba24       ??_C@_06EIJM@saved4?$AA@   00477a24     pr_edict.obj
 0003:0000ba2c       ??_C@_06BNHJ@saved3?$AA@   00477a2c     pr_edict.obj
 0003:0000ba34       ??_C@_06LHOO@saved2?$AA@   00477a34     pr_edict.obj
 0003:0000ba3c       ??_C@_06EIFH@saved1?$AA@   00477a3c     pr_edict.obj
 0003:0000ba44       ??_C@_0N@FDJC@savedgamecfg?$AA@ 00477a44     pr_edict.obj
 0003:0000ba54       ??_C@_08MEJO@scratch4?$AA@ 00477a54     pr_edict.obj
 0003:0000ba60       ??_C@_08JBHL@scratch3?$AA@ 00477a60     pr_edict.obj
 0003:0000ba6c       ??_C@_08DLOM@scratch2?$AA@ 00477a6c     pr_edict.obj
 0003:0000ba78       ??_C@_08MEFF@scratch1?$AA@ 00477a78     pr_edict.obj
 0003:0000ba84       ??_C@_07OKJ@gamecfg?$AA@   00477a84     pr_edict.obj
 0003:0000ba8c       ??_C@_0L@KEIK@nomonsters?$AA@ 00477a8c     pr_edict.obj
 0003:0000ba98       ??_C@_0BJ@GGEO@ED_Alloc?3?5no?5free?5edicts?$AA@ 00477a98     pr_edict.obj
 0003:0000bab4       ??_C@_0M@HOHC@bad?5type?5?$CFi?$AA@ 00477ab4     pr_edict.obj
 0003:0000bac0       ??_C@_07DGGG@pointer?$AA@  00477ac0     pr_edict.obj
 0003:0000bac8       ??_C@_04BMNE@void?$AA@     00477ac8     pr_edict.obj
 0003:0000bad0       ??_C@_03GKM@?4?$CFs?$AA@   00477ad0     pr_edict.obj
 0003:0000bad4       ??_C@_04MGLP@?$CFs?$CI?$CJ?$AA@ 00477ad4     pr_edict.obj
 0003:0000badc       ??_C@_09NGGM@entity?5?$CFi?$AA@ 00477adc     pr_edict.obj
 0003:0000bae8       ??_C@_08JPAH@?$CFf?5?$CFf?5?$CFf?$AA@ 00477ae8     pr_edict.obj
 0003:0000baf4       ??_C@_08BGA@?$CFi?$CI?$CFs?$CJ?$CFs?$AA@ 00477af4     pr_edict.obj
 0003:0000bb00       ??_C@_05DEEG@?$CFi?$CI?$DP?$FN?$AA@ 00477b00     pr_edict.obj
 0003:0000bb08       ??_C@_06IBPA@?$CFi?$CI?$CFs?$CJ?$AA@ 00477b08     pr_edict.obj
 0003:0000bb10       ??_C@_0M@NHPD@?6EDICT?5?$CFi?3?6?$AA@ 00477b10     pr_edict.obj
 0003:0000bb1c       ??_C@_05PKFO@FREE?6?$AA@   00477b1c     pr_edict.obj
 0003:0000bb24       ??_C@_02ONJM@?$HN?6?$AA@   00477b24     pr_edict.obj
 0003:0000bb28       ??_C@_05LHAH@?$CC?$CFs?$CC?6?$AA@ 00477b28     pr_edict.obj
 0003:0000bb30       ??_C@_05OEHB@?$CC?$CFs?$CC?5?$AA@ 00477b30     pr_edict.obj
 0003:0000bb38       ??_C@_02JKGD@?$HL?6?$AA@   00477b38     pr_edict.obj
 0003:0000bb3c       ??_C@_0N@HAGA@?$CFi?5entities?6?$AA@ 00477b3c     pr_edict.obj
 0003:0000bb4c       ??_C@_0BC@JNGK@Bad?5edict?5number?6?$AA@ 00477b4c     pr_edict.obj
 0003:0000bb60       ??_C@_0BA@OGJD@step?5?5?5?5?5?5?3?$CF3i?6?$AA@ 00477b60     pr_edict.obj
 0003:0000bb70       ??_C@_0BA@MFFL@touch?5?5?5?5?5?3?$CF3i?6?$AA@ 00477b70     pr_edict.obj
 0003:0000bb80       ??_C@_0BA@JKO@view?5?5?5?5?5?5?3?$CF3i?6?$AA@ 00477b80     pr_edict.obj
 0003:0000bb90       ??_C@_0BA@ICKG@active?5?5?5?5?3?$CF3i?6?$AA@ 00477b90     pr_edict.obj
 0003:0000bba0       ??_C@_0BA@COJL@num_edicts?3?$CF3i?6?$AA@ 00477ba0     pr_edict.obj
 0003:0000bbb0       ??_C@_0BN@CBPE@ED_ParseGlobals?3?5parse?5error?$AA@ 00477bb0     pr_edict.obj
 0003:0000bbd0       ??_C@_0BG@CDLN@?8?$CFs?8?5is?5not?5a?5global?6?$AA@ 00477bd0     pr_edict.obj
 0003:0000bbe8       ??_C@_0CL@GNBE@ED_ParseEntity?3?5closing?5brace?5wi@ 00477be8     pr_edict.obj
 0003:0000bc14       ??_C@_0CK@IDMI@ED_ParseEntity?3?5EOF?5without?5clos@ 00477c14     pr_edict.obj
 0003:0000bc40       ??_C@_0BI@CFMH@Can?8t?5find?5function?5?$CFs?6?$AA@ 00477c40     pr_edict.obj
 0003:0000bc58       ??_C@_0BF@IPDL@Can?8t?5find?5field?5?$CFs?6?$AA@ 00477c58     pr_edict.obj
 0003:0000bc70       ??_C@_0BL@NMLL@ED_ParseEdict?3?5parse?5error?$AA@ 00477c70     pr_edict.obj
 0003:0000bc8c       ??_C@_06MOBI@0?5?$CFs?50?$AA@ 00477c8c     pr_edict.obj
 0003:0000bc94       ??_C@_0BF@MGKJ@?8?$CFs?8?5is?5not?5a?5field?6?$AA@ 00477c94     pr_edict.obj
 0003:0000bcac       ??_C@_09NLIL@light_lev?$AA@ 00477cac     pr_edict.obj
 0003:0000bcb8       ??_C@_05DKPF@light?$AA@    00477cb8     pr_edict.obj
 0003:0000bcc0       ??_C@_06MFB@angles?$AA@    00477cc0     pr_edict.obj
 0003:0000bcc8       ??_C@_05LIJM@angle?$AA@    00477cc8     pr_edict.obj
 0003:0000bcd0       ??_C@_0BH@OE@?$CFi?5entities?5inhibited?6?$AA@ 00477cd0     pr_edict.obj
 0003:0000bce8       ??_C@_0BI@FCJK@No?5spawn?5function?5for?3?6?$AA@ 00477ce8     pr_edict.obj
 0003:0000bd00       ??_C@_0BD@EJJ@No?5classname?5for?3?6?$AA@ 00477d00     pr_edict.obj
 0003:0000bd14       ??_C@_0CL@LEGL@ED_LoadFromFile?3?5found?5?$CFs?5when?5e@ 00477d14     pr_edict.obj
 0003:0000bd40       ??_C@_0DE@PNPK@PR_LoadProgs?3?5pr_fielddefs?$FLi?$FN?4ty@ 00477d40     pr_edict.obj
 0003:0000bd74       ??_C@_0EE@OFPD@progs?4dat?5system?5vars?5have?5been?5@ 00477d74     pr_edict.obj
 0003:0000bdb8       ??_C@_0DF@JODE@progs?4dat?5has?5wrong?5version?5numb@ 00477db8     pr_edict.obj
 0003:0000bdf0       ??_C@_0BG@GHEH@Programs?5occupy?5?$CFiK?4?6?$AA@ 00477df0     pr_edict.obj
 0003:0000be08       ??_C@_0CG@OHMH@PR_LoadProgs?3?5couldn?8t?5load?5prog@ 00477e08     pr_edict.obj
 0003:0000be30       ??_C@_07BMPC@profile?$AA@  00477e30     pr_edict.obj
 0003:0000be38       ??_C@_0L@MPIP@edictcount?$AA@ 00477e38     pr_edict.obj
 0003:0000be44       ??_C@_06LMBK@edicts?$AA@   00477e44     pr_edict.obj
 0003:0000be4c       ??_C@_05PDBJ@edict?$AA@    00477e4c     pr_edict.obj
 0003:0000be54       ??_C@_0BJ@EPKP@EDICT_NUM?3?5bad?5number?5?$CFi?$AA@ 00477e54     pr_edict.obj
 0003:0000be70       ??_C@_0BL@MLOM@NUM_FOR_EDICT?3?5bad?5pointer?$AA@ 00477e70     pr_edict.obj
 0003:0000be8c       _pr_opnames                00477e8c     pr_exec.obj
 0003:0000bf94       ??_C@_05NJPJ@BITOR?$AA@    00477f94     pr_exec.obj
 0003:0000bf9c       ??_C@_06MPNA@BITAND?$AA@   00477f9c     pr_exec.obj
 0003:0000bfa4       ??_C@_02CHDK@OR?$AA@       00477fa4     pr_exec.obj
 0003:0000bfa8       ??_C@_03LACO@AND?$AA@      00477fa8     pr_exec.obj
 0003:0000bfac       ??_C@_04DLHO@GOTO?$AA@     00477fac     pr_exec.obj
 0003:0000bfb4       ??_C@_05JHJD@STATE?$AA@    00477fb4     pr_exec.obj
 0003:0000bfbc       ??_C@_05CPNK@CALL8?$AA@    00477fbc     pr_exec.obj
 0003:0000bfc4       ??_C@_05COIH@CALL7?$AA@    00477fc4     pr_exec.obj
 0003:0000bfcc       ??_C@_05IEBA@CALL6?$AA@    00477fcc     pr_exec.obj
 0003:0000bfd4       ??_C@_05HLKJ@CALL5?$AA@    00477fd4     pr_exec.obj
 0003:0000bfdc       ??_C@_05NBDO@CALL4?$AA@    00477fdc     pr_exec.obj
 0003:0000bfe4       ??_C@_05IENL@CALL3?$AA@    00477fe4     pr_exec.obj
 0003:0000bfec       ??_C@_05COEM@CALL2?$AA@    00477fec     pr_exec.obj
 0003:0000bff4       ??_C@_05NBPF@CALL1?$AA@    00477ff4     pr_exec.obj
 0003:0000bffc       ??_C@_05HLGC@CALL0?$AA@    00477ffc     pr_exec.obj
 0003:0000c004       ??_C@_05CBC@IFNOT?$AA@     00478004     pr_exec.obj
 0003:0000c00c       ??_C@_02FDOJ@IF?$AA@       0047800c     pr_exec.obj
 0003:0000c010       ??_C@_07BKGE@NOT_FNC?$AA@  00478010     pr_exec.obj
 0003:0000c018       ??_C@_07BAMK@NOT_ENT?$AA@  00478018     pr_exec.obj
 0003:0000c020       ??_C@_05EHJE@NOT_S?$AA@    00478020     pr_exec.obj
 0003:0000c028       ??_C@_05EHFP@NOT_V?$AA@    00478028     pr_exec.obj
 0003:0000c030       ??_C@_05OOCP@NOT_F?$AA@    00478030     pr_exec.obj
 0003:0000c038       ??_C@_06PJJM@RETURN?$AA@   00478038     pr_exec.obj
 0003:0000c040       ??_C@_0L@KKFA@STOREP_FNC?$AA@ 00478040     pr_exec.obj
 0003:0000c04c       ??_C@_0L@NCOA@STOREP_FLD?$AA@ 0047804c     pr_exec.obj
 0003:0000c058       ??_C@_0L@KAPO@STOREP_ENT?$AA@ 00478058     pr_exec.obj
 0003:0000c064       ??_C@_08GGCD@STOREP_S?$AA@ 00478064     pr_exec.obj
 0003:0000c070       ??_C@_08GGOI@STOREP_V?$AA@ 00478070     pr_exec.obj
 0003:0000c07c       ??_C@_08MPJI@STOREP_F?$AA@ 0047807c     pr_exec.obj
 0003:0000c088       ??_C@_09PLAF@STORE_FNC?$AA@ 00478088     pr_exec.obj
 0003:0000c094       ??_C@_09IDLF@STORE_FLD?$AA@ 00478094     pr_exec.obj
 0003:0000c0a0       ??_C@_09PBKL@STORE_ENT?$AA@ 004780a0     pr_exec.obj
 0003:0000c0ac       ??_C@_07GB@STORE_S?$AA@    004780ac     pr_exec.obj
 0003:0000c0b4       ??_C@_07KK@STORE_V?$AA@    004780b4     pr_exec.obj
 0003:0000c0bc       ??_C@_07KJNK@STORE_F?$AA@  004780bc     pr_exec.obj
 0003:0000c0c4       ??_C@_07OAKJ@ADDRESS?$AA@  004780c4     pr_exec.obj
 0003:0000c0cc       ??_C@_08EBMF@INDIRECT?$AA@ 004780cc     pr_exec.obj
 0003:0000c0d8       ??_C@_02GNBM@GT?$AA@       004780d8     pr_exec.obj
 0003:0000c0dc       ??_C@_02ODLH@LT?$AA@       004780dc     pr_exec.obj
 0003:0000c0e0       ??_C@_02GOPL@GE?$AA@       004780e0     pr_exec.obj
 0003:0000c0e4       ??_C@_02OAFA@LE?$AA@       004780e4     pr_exec.obj
 0003:0000c0e8       ??_C@_06BLAM@NE_FNC?$AA@   004780e8     pr_exec.obj
 0003:0000c0f0       ??_C@_04IPBJ@NE_E?$AA@     004780f0     pr_exec.obj
 0003:0000c0f8       ??_C@_04NJBL@NE_S?$AA@     004780f8     pr_exec.obj
 0003:0000c100       ??_C@_04NJNA@NE_V?$AA@     00478100     pr_exec.obj
 0003:0000c108       ??_C@_04HAKA@NE_F?$AA@     00478108     pr_exec.obj
 0003:0000c110       ??_C@_06IKCN@EQ_FNC?$AA@   00478110     pr_exec.obj
 0003:0000c118       ??_C@_04KDEP@EQ_E?$AA@     00478118     pr_exec.obj
 0003:0000c120       ??_C@_04PFEN@EQ_S?$AA@     00478120     pr_exec.obj
 0003:0000c128       ??_C@_04PFIG@EQ_V?$AA@     00478128     pr_exec.obj
 0003:0000c130       ??_C@_04FMPG@EQ_F?$AA@     00478130     pr_exec.obj
 0003:0000c138       ??_C@_05JMJI@SUB_V?$AA@    00478138     pr_exec.obj
 0003:0000c140       ??_C@_05DFOI@SUB_F?$AA@    00478140     pr_exec.obj
 0003:0000c148       ??_C@_05ECID@ADD_V?$AA@    00478148     pr_exec.obj
 0003:0000c150       ??_C@_05OLPD@ADD_F?$AA@    00478150     pr_exec.obj
 0003:0000c158       ??_C@_03DHGJ@DIV?$AA@      00478158     pr_exec.obj
 0003:0000c15c       ??_C@_06KBJB@MUL_VF?$AA@   0047815c     pr_exec.obj
 0003:0000c164       ??_C@_06GCEI@MUL_FV?$AA@   00478164     pr_exec.obj
 0003:0000c16c       ??_C@_05CDPK@MUL_V?$AA@    0047816c     pr_exec.obj
 0003:0000c174       ??_C@_05IKIK@MUL_F?$AA@    00478174     pr_exec.obj
 0003:0000c17c       ??_C@_04KHLG@DONE?$AA@     0047817c     pr_exec.obj
 0003:0000c184       ??_C@_0M@IIGH@?$CFsbranch?5?$CFi?$AA@ 00478184     pr_exec.obj
 0003:0000c190       ??_C@_09PNJG@branch?5?$CFi?$AA@ 00478190     pr_exec.obj
 0003:0000c19c       ??_C@_0L@DDGE@?$CF12s?5?3?5?$CFs?6?$AA@ 0047819c     pr_exec.obj
 0003:0000c1a8       ??_C@_0P@LCNN@?$DMNO?5FUNCTION?$DO?6?$AA@ 004781a8     pr_exec.obj
 0003:0000c1b8       ??_C@_0M@DFMP@?$DMNO?5STACK?$DO?6?$AA@ 004781b8     pr_exec.obj
 0003:0000c1c4       ??_C@_07DBAM@?$CF7i?5?$CFs?6?$AA@ 004781c4     pr_exec.obj
 0003:0000c1cc       ??_C@_0CK@KBLK@PR_ExecuteProgram?3?5locals?5stack?5@ 004781cc     pr_exec.obj
 0003:0000c1f8       ??_C@_0P@BGDC@stack?5overflow?$AA@ 004781f8     pr_exec.obj
 0003:0000c208       ??_C@_0CL@FEBL@PR_ExecuteProgram?3?5locals?5stack?5@ 00478208     pr_exec.obj
 0003:0000c234       ??_C@_0BF@GMKB@prog?5stack?5underflow?$AA@ 00478234     pr_exec.obj
 0003:0000c24c       ??_C@_0O@HFNO@Bad?5opcode?5?$CFi?$AA@ 0047824c     pr_exec.obj
 0003:0000c25c       ??_C@_0BI@KKFD@Bad?5builtin?5call?5number?$AA@ 0047825c     pr_exec.obj
 0003:0000c274       ??_C@_0O@HFOJ@NULL?5function?$AA@ 00478274     pr_exec.obj
 0003:0000c284       ??_C@_0BL@OLKN@assignment?5to?5world?5entity?$AA@ 00478284     pr_exec.obj
 0003:0000c2a0       ??_C@_0BD@IKOP@runaway?5loop?5error?$AA@ 004782a0     pr_exec.obj
 0003:0000c2b4       ??_C@_0CB@KONJ@PR_ExecuteProgram?3?5NULL?5function@ 004782b4     pr_exec.obj
 0003:0000c338       _r_avertexnormals          00478338     r_alias.obj
 0003:0000cad0       ??_C@_0BF@DMK@No?5such?5frame?5?$CFd?5?$CFs?6?$AA@ 00478ad0     r_alias.obj
 0003:0000cae8       ??_C@_0CF@OJNJ@R_AliasSetupSkin?3?5no?5such?5skin?5?$CD@ 00478ae8     r_alias.obj
 0003:0000cb10       ??_C@_0CF@HFAM@R_AliasSetupFrame?3?5no?5such?5frame@ 00478b10     r_alias.obj
 0003:0000cb38       ??_C@_0CL@OBFH@R_AliasDrawModel?3?5?$CBcurrententity@ 00478b38     r_alias.obj
 0003:0000cb64       ??_C@_0BJ@KFLF@Out?5of?5edges?5for?5bmodel?6?$AA@ 00478b64     r_bsp.obj
 0003:0000cb80       ??_C@_0BD@EEDG@no?5edges?5in?5bmodel?$AA@ 00478b80     r_bsp.obj
 0003:0000cb94       ??_C@_0BC@GBOG@Too?5many?5efrags?$CB?6?$AA@ 00478b94     r_efrag.obj
 0003:0000cba8       ??_C@_0CD@JKIB@R_StoreEfrags?3?5Bad?5entity?5type?5?$CF@ 00478ba8     r_efrag.obj
 0003:0000cbd0       _r_viewlighting            00478bd0     r_main.obj
 0003:0000cbdc       _r_recursiveaffinetriangles 00478bdc     r_main.obj
 0003:0000cbe0       _r_pixbytes                00478be0     r_main.obj
 0003:0000cbe4       _r_aliasuvscale            00478be4     r_main.obj
 0003:0000cbe8       _r_framecount              00478be8     r_main.obj
 0003:0000cbec       _reinit_surfcache          00478bec     r_main.obj
 0003:0000cbf0       _r_draworder               00478bf0     r_main.obj
 0003:0000cc10       _r_speeds                  00478c10     r_main.obj
 0003:0000cc30       _r_timegraph               00478c30     r_main.obj
 0003:0000cc50       _r_graphheight             00478c50     r_main.obj
 0003:0000cc70       _r_clearcolor              00478c70     r_main.obj
 0003:0000cc90       _r_waterwarp               00478c90     r_main.obj
 0003:0000ccb0       _r_fullbright              00478cb0     r_main.obj
 0003:0000ccd0       _r_drawentities            00478cd0     r_main.obj
 0003:0000ccf0       _r_drawviewmodel           00478cf0     r_main.obj
 0003:0000cd10       _r_truegunangle            00478d10     r_main.obj
 0003:0000cd30       _r_aliasstats              00478d30     r_main.obj
 0003:0000cd50       _r_dspeeds                 00478d50     r_main.obj
 0003:0000cd70       _r_drawflat                00478d70     r_main.obj
 0003:0000cd90       _r_ambient                 00478d90     r_main.obj
 0003:0000cdb0       _r_reportsurfout           00478db0     r_main.obj
 0003:0000cdd0       _r_maxsurfs                00478dd0     r_main.obj
 0003:0000cdf0       _r_numsurfs                00478df0     r_main.obj
 0003:0000ce10       _r_reportedgeout           00478e10     r_main.obj
 0003:0000ce30       _r_maxedges                00478e30     r_main.obj
 0003:0000ce50       _r_numedges                00478e50     r_main.obj
 0003:0000ce70       _r_aliastransbase          00478e70     r_main.obj
 0003:0000ce90       _r_aliastransadj           00478e90     r_main.obj
 0003:0000ceac       ??_C@_0BA@DIE@r_aliastransadj?$AA@ 00478eac     r_main.obj
 0003:0000cebc       ??_C@_0BB@NKAF@r_aliastransbase?$AA@ 00478ebc     r_main.obj
 0003:0000ced0       ??_C@_0L@OKAH@r_numedges?$AA@ 00478ed0     r_main.obj
 0003:0000cedc       ??_C@_0L@PIFK@r_maxedges?$AA@ 00478edc     r_main.obj
 0003:0000cee8       ??_C@_0BA@KEKD@r_reportedgeout?$AA@ 00478ee8     r_main.obj
 0003:0000cef8       ??_C@_0L@FICH@r_numsurfs?$AA@ 00478ef8     r_main.obj
 0003:0000cf04       ??_C@_0L@EKHK@r_maxsurfs?$AA@ 00478f04     r_main.obj
 0003:0000cf10       ??_C@_0BA@CIDF@r_reportsurfout?$AA@ 00478f10     r_main.obj
 0003:0000cf20       ??_C@_09IIFK@r_ambient?$AA@ 00478f20     r_main.obj
 0003:0000cf2c       ??_C@_0L@GIDN@r_drawflat?$AA@ 00478f2c     r_main.obj
 0003:0000cf38       ??_C@_09KGHJ@r_dspeeds?$AA@ 00478f38     r_main.obj
 0003:0000cf44       ??_C@_0BB@GGBE@r_polymodelstats?$AA@ 00478f44     r_main.obj
 0003:0000cf58       ??_C@_0P@LECL@r_drawentities?$AA@ 00478f58     r_main.obj
 0003:0000cf68       ??_C@_0N@MMGG@r_fullbright?$AA@ 00478f68     r_main.obj
 0003:0000cf78       ??_C@_0N@LOCF@r_clearcolor?$AA@ 00478f78     r_main.obj
 0003:0000cf88       ??_C@_0O@PIIL@r_graphheight?$AA@ 00478f88     r_main.obj
 0003:0000cf98       ??_C@_0M@IEPH@r_timegraph?$AA@ 00478f98     r_main.obj
 0003:0000cfa4       ??_C@_08MNKK@r_speeds?$AA@ 00478fa4     r_main.obj
 0003:0000cfb0       ??_C@_0M@JBAL@r_draworder?$AA@ 00478fb0     r_main.obj
 0003:0000cfbc       ??_C@_09MLFO@notexture?$AA@ 00478fbc     r_main.obj
 0003:0000cfc8       ??_C@_09KFEF@pointfile?$AA@ 00478fc8     r_main.obj
 0003:0000cfd4       ??_C@_0M@MNON@timerefresh?$AA@ 00478fd4     r_main.obj
 0003:0000cfe0       ??_C@_05KNMB@edges?$AA@    00478fe0     r_main.obj
 0003:0000cfe8       ??_C@_08EGAJ@surfaces?$AA@ 00478fe8     r_main.obj
 0003:0000cff4       ??_C@_0BI@HODH@Short?5roughly?5?$CFd?5edges?6?$AA@ 00478ff4     r_main.obj
 0003:0000d00c       ??_C@_0BD@EAMI@Short?5?$CFd?5surfaces?6?$AA@ 0047900c     r_main.obj
 0003:0000d020       ??_C@_0BO@BODI@R_RenderView?3?5NULL?5worldmodel?$AA@ 00479020     r_main.obj
 0003:0000d040       ??_C@_0BI@FKOD@Globals?5are?5missaligned?$AA@ 00479040     r_main.obj
 0003:0000d058       ??_C@_0BF@PAG@Stack?5is?5missaligned?$AA@ 00479058     r_main.obj
 0003:0000d070       ??_C@_0BE@KNED@Hunk?5is?5missaligned?$AA@ 00479070     r_main.obj
 0003:0000d084       ??_C@_0CK@EJJC@R_RenderView?3?5called?5without?5eno@ 00479084     r_main.obj
 0003:0000d0b0       ??_C@_0BF@NAIN@?$CFf?5seconds?5?$CI?$CFf?5fps?$CJ?6?$AA@ 004790b0     r_misc.obj
 0003:0000d0c8       ??_C@_0CE@PBDL@?$CF5?41f?5ms?5?$CF3i?1?$CF3i?1?$CF3i?5poly?5?$CF3i?5su@ 004790c8     r_misc.obj
 0003:0000d0ec       ??_C@_0CL@IBKP@?$CF3i?5?$CF4?41fp?5?$CF3iw?5?$CF4?41fb?5?$CF3is?5?$CF4?41@ 004790ec     r_misc.obj
 0003:0000d118       ??_C@_0BJ@JNHJ@?$CF3i?5polygon?5model?5drawn?6?$AA@ 00479118     r_misc.obj
 0003:0000d134       ??_C@_0BN@PNGE@Used?5?$CFd?5of?5?$CFd?5edges?$DL?5?$CFd?5max?6?$AA@ 00479134     r_misc.obj
 0003:0000d154       ??_C@_0BN@EFFO@Used?5?$CFd?5of?5?$CFd?5surfs?$DL?5?$CFd?5max?6?$AA@ 00479154     r_misc.obj
 0003:0000d174       _ramp1                     00479174     r_part.obj
 0003:0000d194       _ramp2                     00479194     r_part.obj
 0003:0000d1b4       _ramp3                     004791b4     r_part.obj
 0003:0000d1d4       _beamlength                004791d4     r_part.obj
 0003:0000d1d8       _avelocity                 004791d8     r_part.obj
 0003:0000d1e4       _partstep                  004791e4     r_part.obj
 0003:0000d1e8       _timescale                 004791e8     r_part.obj
 0003:0000d1ec       ??_C@_09BKLJ@particles?$AA@ 004791ec     r_part.obj
 0003:0000d1f8       ??_C@_0L@CMCJ@?9particles?$AA@ 004791f8     r_part.obj
 0003:0000d204       ??_C@_0BA@NPML@?$CFi?5points?5read?6?$AA@ 00479204     r_part.obj
 0003:0000d214       ??_C@_0BL@EMKM@Not?5enough?5free?5particles?6?$AA@ 00479214     r_part.obj
 0003:0000d230       ??_C@_09KPAJ@?$CFf?5?$CFf?5?$CFf?6?$AA@ 00479230     r_part.obj
 0003:0000d23c       ??_C@_0P@LHIF@Reading?5?$CFs?4?4?4?6?$AA@ 0047923c     r_part.obj
 0003:0000d24c       ??_C@_0BC@CGIH@couldn?8t?5open?5?$CFs?6?$AA@ 0047924c     r_part.obj
 0003:0000d260       ??_C@_0M@GKJJ@maps?1?$CFs?4pts?$AA@ 00479260     r_part.obj
 0003:0000d26c       _iskyspeed                 0047926c     r_sky.obj
 0003:0000d270       _iskyspeed2                00479270     r_sky.obj
 0003:0000d27c       ??_C@_0CG@BBIK@R_SetupAndDrawSprite?3?5too?5many?5p@ 0047927c     r_sprite.obj
 0003:0000d2a4       ??_C@_0CA@GPPF@R_DrawSprite?3?5no?5such?5frame?5?$CFd?6?$AA@ 004792a4     r_sprite.obj
 0003:0000d2c4       ??_C@_0CB@GHEP@R_DrawSprite?3?5Bad?5sprite?5type?5?$CFd@ 004792c4     r_sprite.obj
 0003:0000d2f8       ??_C@_0CD@CEKN@R_TextureAnimation?3?5infinite?5cyc@ 004792f8     r_surf.obj
 0003:0000d31c       ??_C@_0CB@EOJF@R_TextureAnimation?3?5broken?5cycle@ 0047931c     r_surf.obj
 0003:0000d340       _pq_teamscores             00479340     sbar.obj
 0003:0000d360       _pq_timer                  00479360     sbar.obj
 0003:0000d380       _pq_scoreboard_pings       00479380     sbar.obj
 0003:0000d39c       _hipweapons                0047939c     sbar.obj
 0003:0000d3ac       ??_C@_0BE@JMNJ@pq_scoreboard_pings?$AA@ 004793ac     sbar.obj
 0003:0000d3c0       ??_C@_08EAND@pq_timer?$AA@ 004793c0     sbar.obj
 0003:0000d3cc       ??_C@_0O@PPLO@pq_teamscores?$AA@ 004793cc     sbar.obj
 0003:0000d3dc       ??_C@_0N@HKID@r_ammoplasma?$AA@ 004793dc     sbar.obj
 0003:0000d3ec       ??_C@_0M@MPM@r_ammomulti?$AA@ 004793ec     sbar.obj
 0003:0000d3f8       ??_C@_0L@OEMC@r_ammolava?$AA@ 004793f8     sbar.obj
 0003:0000d404       ??_C@_0L@BCAG@r_teambord?$AA@ 00479404     sbar.obj
 0003:0000d410       ??_C@_08IOJA@r_agrav1?$AA@ 00479410     sbar.obj
 0003:0000d41c       ??_C@_09FODP@r_shield1?$AA@ 0047941c     sbar.obj
 0003:0000d428       ??_C@_08PHFF@r_plasma?$AA@ 00479428     sbar.obj
 0003:0000d434       ??_C@_0M@GBLE@r_multirock?$AA@ 00479434     sbar.obj
 0003:0000d440       ??_C@_06OOMC@r_gren?$AA@   00479440     sbar.obj
 0003:0000d448       ??_C@_0M@CKHE@r_superlava?$AA@ 00479448     sbar.obj
 0003:0000d454       ??_C@_06CMPO@r_lava?$AA@   00479454     sbar.obj
 0003:0000d45c       ??_C@_09BCAO@r_invbar2?$AA@ 0047945c     sbar.obj
 0003:0000d468       ??_C@_09ONLH@r_invbar1?$AA@ 00479468     sbar.obj
 0003:0000d474       ??_C@_08HKJB@sb_eshld?$AA@ 00479474     sbar.obj
 0003:0000d480       ??_C@_08HGGN@sb_wsuit?$AA@ 00479480     sbar.obj
 0003:0000d48c       ??_C@_0M@KOBC@inva?$CFi_prox?$AA@ 0047948c     sbar.obj
 0003:0000d498       ??_C@_0BB@ELIN@inva?$CFi_prox_gren?$AA@ 00479498     sbar.obj
 0003:0000d4ac       ??_C@_0BB@EPCP@inva?$CFi_gren_prox?$AA@ 004794ac     sbar.obj
 0003:0000d4c0       ??_C@_0P@DELL@inva?$CFi_mjolnir?$AA@ 004794c0     sbar.obj
 0003:0000d4d0       ??_C@_0N@JJJF@inva?$CFi_laser?$AA@ 004794d0     sbar.obj
 0003:0000d4e0       ??_C@_09GKEP@inv2_prox?$AA@ 004794e0     sbar.obj
 0003:0000d4ec       ??_C@_0P@GDOI@inv2_prox_gren?$AA@ 004794ec     sbar.obj
 0003:0000d4fc       ??_C@_0P@GHEK@inv2_gren_prox?$AA@ 004794fc     sbar.obj
 0003:0000d50c       ??_C@_0N@JNIL@inv2_mjolnir?$AA@ 0047950c     sbar.obj
 0003:0000d51c       ??_C@_0L@OPFB@inv2_laser?$AA@ 0047951c     sbar.obj
 0003:0000d528       ??_C@_08DKPP@inv_prox?$AA@ 00479528     sbar.obj
 0003:0000d534       ??_C@_0O@NBHG@inv_prox_gren?$AA@ 00479534     sbar.obj
 0003:0000d544       ??_C@_0O@NFNE@inv_gren_prox?$AA@ 00479544     sbar.obj
 0003:0000d554       ??_C@_0M@NEHF@inv_mjolnir?$AA@ 00479554     sbar.obj
 0003:0000d560       ??_C@_09IFAB@inv_laser?$AA@ 00479560     sbar.obj
 0003:0000d56c       ??_C@_08MJKO@scorebar?$AA@ 0047956c     sbar.obj
 0003:0000d578       ??_C@_04PAHE@ibar?$AA@     00479578     sbar.obj
 0003:0000d580       ??_C@_04MFGB@sbar?$AA@     00479580     sbar.obj
 0003:0000d588       ??_C@_0M@CDNF@?9showscores?$AA@ 00479588     sbar.obj
 0003:0000d594       ??_C@_0M@FMPF@?$CLshowscores?$AA@ 00479594     sbar.obj
 0003:0000d5a0       ??_C@_09CHLF@face_quad?$AA@ 004795a0     sbar.obj
 0003:0000d5ac       ??_C@_09OHNO@face_inv2?$AA@ 004795ac     sbar.obj
 0003:0000d5b8       ??_C@_0M@JODA@face_invul2?$AA@ 004795b8     sbar.obj
 0003:0000d5c4       ??_C@_0L@KDKJ@face_invis?$AA@ 004795c4     sbar.obj
 0003:0000d5d0       ??_C@_07BOFB@face_p5?$AA@  004795d0     sbar.obj
 0003:0000d5d8       ??_C@_05OPFM@face5?$AA@    004795d8     sbar.obj
 0003:0000d5e0       ??_C@_07LEMG@face_p4?$AA@  004795e0     sbar.obj
 0003:0000d5e8       ??_C@_05EFML@face4?$AA@    004795e8     sbar.obj
 0003:0000d5f0       ??_C@_07OBCD@face_p3?$AA@  004795f0     sbar.obj
 0003:0000d5f8       ??_C@_05BACO@face3?$AA@    004795f8     sbar.obj
 0003:0000d600       ??_C@_07ELLE@face_p2?$AA@  00479600     sbar.obj
 0003:0000d608       ??_C@_05LKLJ@face2?$AA@    00479608     sbar.obj
 0003:0000d610       ??_C@_07LEAN@face_p1?$AA@  00479610     sbar.obj
 0003:0000d618       ??_C@_05EFAA@face1?$AA@    00479618     sbar.obj
 0003:0000d620       ??_C@_09ICHH@sb_sigil4?$AA@ 00479620     sbar.obj
 0003:0000d62c       ??_C@_09NHJC@sb_sigil3?$AA@ 0047962c     sbar.obj
 0003:0000d638       ??_C@_09HNAF@sb_sigil2?$AA@ 00479638     sbar.obj
 0003:0000d644       ??_C@_09ICLM@sb_sigil1?$AA@ 00479644     sbar.obj
 0003:0000d650       ??_C@_07DGGI@sb_quad?$AA@  00479650     sbar.obj
 0003:0000d658       ??_C@_07GAOI@sb_suit?$AA@  00479658     sbar.obj
 0003:0000d660       ??_C@_09LKBO@sb_invuln?$AA@ 00479660     sbar.obj
 0003:0000d66c       ??_C@_08NJLI@sb_invis?$AA@ 0047966c     sbar.obj
 0003:0000d678       ??_C@_07OCI@sb_key2?$AA@   00479678     sbar.obj
 0003:0000d680       ??_C@_07PBJB@sb_key1?$AA@  00479680     sbar.obj
 0003:0000d688       ??_C@_09GBIB@sb_armor3?$AA@ 00479688     sbar.obj
 0003:0000d694       ??_C@_09MLBG@sb_armor2?$AA@ 00479694     sbar.obj
 0003:0000d6a0       ??_C@_09DEKP@sb_armor1?$AA@ 004796a0     sbar.obj
 0003:0000d6ac       ??_C@_08IEEM@sb_cells?$AA@ 004796ac     sbar.obj
 0003:0000d6b8       ??_C@_09OAFD@sb_rocket?$AA@ 004796b8     sbar.obj
 0003:0000d6c4       ??_C@_08CKNC@sb_nails?$AA@ 004796c4     sbar.obj
 0003:0000d6d0       ??_C@_09ICJP@sb_shells?$AA@ 004796d0     sbar.obj
 0003:0000d6dc       ??_C@_0P@ONLA@inva?$CFi_lightng?$AA@ 004796dc     sbar.obj
 0003:0000d6ec       ??_C@_0BA@ICHO@inva?$CFi_srlaunch?$AA@ 004796ec     sbar.obj
 0003:0000d6fc       ??_C@_0P@LGJF@inva?$CFi_rlaunch?$AA@ 004796fc     sbar.obj
 0003:0000d70c       ??_C@_0BA@LALA@inva?$CFi_snailgun?$AA@ 0047970c     sbar.obj
 0003:0000d71c       ??_C@_0P@IEFL@inva?$CFi_nailgun?$AA@ 0047971c     sbar.obj
 0003:0000d72c       ??_C@_0BA@DOEL@inva?$CFi_sshotgun?$AA@ 0047972c     sbar.obj
 0003:0000d73c       ??_C@_0P@KKA@inva?$CFi_shotgun?$AA@ 0047973c     sbar.obj
 0003:0000d74c       ??_C@_0N@EEIA@inv2_lightng?$AA@ 0047974c     sbar.obj
 0003:0000d75c       ??_C@_0O@OHNH@inv2_srlaunch?$AA@ 0047975c     sbar.obj
 0003:0000d76c       ??_C@_0N@BPKF@inv2_rlaunch?$AA@ 0047976c     sbar.obj
 0003:0000d77c       ??_C@_0O@NFBJ@inv2_snailgun?$AA@ 0047977c     sbar.obj
 0003:0000d78c       ??_C@_0N@CNGL@inv2_nailgun?$AA@ 0047978c     sbar.obj
 0003:0000d79c       ??_C@_0O@FLOC@inv2_sshotgun?$AA@ 0047979c     sbar.obj
 0003:0000d7ac       ??_C@_0N@KDJA@inv2_shotgun?$AA@ 004797ac     sbar.obj
 0003:0000d7bc       ??_C@_0M@NHO@inv_lightng?$AA@ 004797bc     sbar.obj
 0003:0000d7c8       ??_C@_0N@HJJO@inv_srlaunch?$AA@ 004797c8     sbar.obj
 0003:0000d7d8       ??_C@_0M@FGFL@inv_rlaunch?$AA@ 004797d8     sbar.obj
 0003:0000d7e4       ??_C@_0N@ELFA@inv_snailgun?$AA@ 004797e4     sbar.obj
 0003:0000d7f4       ??_C@_0M@GEJF@inv_nailgun?$AA@ 004797f4     sbar.obj
 0003:0000d800       ??_C@_0N@MFKL@inv_sshotgun?$AA@ 00479800     sbar.obj
 0003:0000d810       ??_C@_0M@OKGO@inv_shotgun?$AA@ 00479810     sbar.obj
 0003:0000d81c       ??_C@_09PGKG@num_slash?$AA@ 0047981c     sbar.obj
 0003:0000d828       ??_C@_09GLNJ@num_colon?$AA@ 00479828     sbar.obj
 0003:0000d834       ??_C@_0L@FJFP@anum_minus?$AA@ 00479834     sbar.obj
 0003:0000d840       ??_C@_09NOEG@num_minus?$AA@ 00479840     sbar.obj
 0003:0000d84c       ??_C@_07EJK@anum_?$CFi?$AA@ 0047984c     sbar.obj
 0003:0000d854       ??_C@_06FNND@num_?$CFi?$AA@ 00479854     sbar.obj
 0003:0000d85c       ??_C@_0P@PGHA@Time?5?3?$CF3i?3?$CFi?$CFi?$AA@ 0047985c     sbar.obj
 0003:0000d86c       ??_C@_0BC@JIHO@Secrets?5?3?$CF3i?5?1?$CF3i?$AA@ 0047986c     sbar.obj
 0003:0000d880       ??_C@_0BC@PBME@Monsters?3?$CF3i?5?1?$CF3i?$AA@ 00479880     sbar.obj
 0003:0000d894       ??_C@_0BB@DJEN@skill?3?5?n?i?g?h?t?m?a?r?e?$AA@ 00479894     sbar.obj
 0003:0000d8a8       ??_C@_0M@KKED@skill?3?5?h?a?r?d?$AA@ 004798a8     sbar.obj
 0003:0000d8b4       ??_C@_0O@BOFH@skill?3?5?n?o?r?m?a?l?$AA@ 004798b4     sbar.obj
 0003:0000d8c4       ??_C@_0M@NLGA@skill?3?5?e?a?s?y?$AA@ 004798c4     sbar.obj
 0003:0000d8d0       ??_C@_03NFJC@?$CF3i?$AA@   004798d0     sbar.obj
 0003:0000d8d4       ??_C@_08CIKE@?5?90?3?$CF02d?$AA@ 004798d4     sbar.obj
 0003:0000d8e0       ??_C@_08FODB@?$CF3d?3?$CF02d?$AA@ 004798e0     sbar.obj
 0003:0000d8ec       ??_C@_06KMFG@?5?5?5?5SD?$AA@ 004798ec     sbar.obj
 0003:0000d8f4       ??_C@_03OALE@?$CF4d?$AA@   004798f4     sbar.obj
 0003:0000d8f8       ??_C@_0BA@FJAE@gfx?1ranking?4lmp?$AA@ 004798f8     sbar.obj
 0003:0000d908       ??_C@_07HNKM@status?6?$AA@ 00479908     sbar.obj
 0003:0000d910       ??_C@_05FKCH@ping?6?$AA@   00479910     sbar.obj
 0003:0000d918       ??_C@_0O@FEHH@gfx?1inter?4lmp?$AA@ 00479918     sbar.obj
 0003:0000d928       ??_C@_0BB@EFPG@gfx?1complete?4lmp?$AA@ 00479928     sbar.obj
 0003:0000d93c       ??_C@_0P@BPCP@gfx?1finale?4lmp?$AA@ 0047993c     sbar.obj
 0003:0000d950       _scr_viewsize              00479950     screen.obj
 0003:0000d970       _scr_fov                   00479970     screen.obj
 0003:0000d990       _scr_conspeed              00479990     screen.obj
 0003:0000d9b0       _scr_centertime            004799b0     screen.obj
 0003:0000d9d0       _scr_showram               004799d0     screen.obj
 0003:0000d9f0       _scr_showturtle            004799f0     screen.obj
 0003:0000da10       _scr_showpause             00479a10     screen.obj
 0003:0000da30       _scr_printspeed            00479a30     screen.obj
 0003:0000da50       _pq_drawfps                00479a50     screen.obj
 0003:0000da70       _show_speed                00479a70     screen.obj
 0003:0000da90       ??_C@_0L@MNKC@show_speed?$AA@ 00479a90     screen.obj
 0003:0000da9c       ??_C@_01KPCI@8?$AA@        00479a9c     screen.obj
 0003:0000daa0       ??_C@_0P@DNGH@scr_printspeed?$AA@ 00479aa0     screen.obj
 0003:0000dab0       ??_C@_09KDIM@showpause?$AA@ 00479ab0     screen.obj
 0003:0000dabc       ??_C@_0L@JKCJ@showturtle?$AA@ 00479abc     screen.obj
 0003:0000dac8       ??_C@_07CJHE@showram?$AA@  00479ac8     screen.obj
 0003:0000dad0       ??_C@_0P@DPIJ@scr_centertime?$AA@ 00479ad0     screen.obj
 0003:0000dae0       ??_C@_05OPPH@99999?$AA@    00479ae0     screen.obj
 0003:0000dae8       ??_C@_02OHJF@90?$AA@       00479ae8     screen.obj
 0003:0000daec       ??_C@_0M@KMDB@Bad?5fov?3?5?$CFf?$AA@ 00479aec     screen.obj
 0003:0000daf8       ??_C@_06NHHL@turtle?$AA@   00479af8     screen.obj
 0003:0000db00       ??_C@_03HMEG@net?$AA@      00479b00     screen.obj
 0003:0000db04       ??_C@_03IIDG@ram?$AA@      00479b04     screen.obj
 0003:0000db08       ??_C@_08POMM@sizedown?$AA@ 00479b08     screen.obj
 0003:0000db14       ??_C@_06IFPB@sizeup?$AA@   00479b14     screen.obj
 0003:0000db1c       ??_C@_0L@BJLF@screenshot?$AA@ 00479b1c     screen.obj
 0003:0000db28       ??_C@_03IBOB@?$CF3d?$AA@   00479b28     screen.obj
 0003:0000db2c       ??_C@_0O@HCLJ@gfx?1pause?4lmp?$AA@ 00479b2c     screen.obj
 0003:0000db3c       ??_C@_0BA@GADN@gfx?1loading?4lmp?$AA@ 00479b3c     screen.obj
 0003:0000db4c       ??_C@_0CF@NJMH@SCR_ScreenShot_f?3?5not?5enough?5mem@ 00479b4c     screen.obj
 0003:0000db74       ??_C@_09PAG@Wrote?5?$CFs?6?$AA@ 00479b74     screen.obj
 0003:0000db80       ??_C@_0CO@GEMG@SCR_ScreenShot_f?3?5Couldn?8t?5creat@ 00479b80     screen.obj
 0003:0000dbb0       ??_C@_0M@IGFE@quake00?4pcx?$AA@ 00479bb0     screen.obj
 0003:0000dbbc       ??_C@_0O@CPNP@load?5failed?4?6?$AA@ 00479bbc     screen.obj
 0003:0000dbcc       ??_C@_03BEJH@170?$AA@      00479bcc     screen.obj
 0003:0000dbd0       ??_C@_03FIJH@120?$AA@      00479bd0     screen.obj
 0003:0000dbd4       ??_C@_02HPJE@30?$AA@       00479bd4     screen.obj
 0003:0000dbd8       _pq_cvar_cheatfree         00479bd8     security.obj
 0003:0000dbf4       ??_C@_0N@CEJM@pq_cheatfree?$AA@ 00479bf4     security.obj
 0003:0000dc04       ??_C@_0BN@OIJA@Security?5module?5initialized?6?$AA@ 00479c04     security.obj
 0003:0000dc24       ??_C@_0CG@CHCH@Could?5not?5initialize?5security?5mo@ 00479c24     security.obj
 0003:0000dc4c       ??_C@_0BA@GGGL@Security_Verify?$AA@ 00479c4c     security.obj
 0003:0000dc5c       ??_C@_0BC@LHEK@Security_CRC_File?$AA@ 00479c5c     security.obj
 0003:0000dc70       ??_C@_0N@FGMC@Security_CRC?$AA@ 00479c70     security.obj
 0003:0000dc80       ??_C@_0BA@IFAJ@Security_Encode?$AA@ 00479c80     security.obj
 0003:0000dc90       ??_C@_0BA@PBOM@Security_Decode?$AA@ 00479c90     security.obj
 0003:0000dca0       ??_C@_0BB@JIDN@Security_SetSeed?$AA@ 00479ca0     security.obj
 0003:0000dcb4       ??_C@_0BB@EPDK@Security_InitCRC?$AA@ 00479cb4     security.obj
 0003:0000dcc8       ??_C@_0O@IGAK@qsecurity?4dll?$AA@ 00479cc8     security.obj
 0003:0000dcdc       _sound_nominal_clip_dist   00479cdc     snd_dma.obj
 0003:0000dce0       _desired_speed             00479ce0     snd_dma.obj
 0003:0000dce4       _desired_bits              00479ce4     snd_dma.obj
 0003:0000dce8       _bgmvolume                 00479ce8     snd_dma.obj
 0003:0000dd08       _volume                    00479d08     snd_dma.obj
 0003:0000dd28       _nosound                   00479d28     snd_dma.obj
 0003:0000dd48       _precache                  00479d48     snd_dma.obj
 0003:0000dd68       _loadas8bit                00479d68     snd_dma.obj
 0003:0000dd88       _bgmbuffer                 00479d88     snd_dma.obj
 0003:0000dda8       _ambient_level             00479da8     snd_dma.obj
 0003:0000ddc8       _ambient_fade              00479dc8     snd_dma.obj
 0003:0000dde8       _snd_noextraupdate         00479de8     snd_dma.obj
 0003:0000de08       _snd_show                  00479e08     snd_dma.obj
 0003:0000de28       __snd_mixahead             00479e28     snd_dma.obj
 0003:0000de44       _fakedma_updates           00479e44     snd_dma.obj
 0003:0000de50       ??_C@_03CFEB@0?41?$AA@     00479e50     snd_dma.obj
 0003:0000de54       ??_C@_0O@GLPI@_snd_mixahead?$AA@ 00479e54     snd_dma.obj
 0003:0000de64       ??_C@_08GDCE@snd_show?$AA@ 00479e64     snd_dma.obj
 0003:0000de70       ??_C@_0BC@OAEG@snd_noextraupdate?$AA@ 00479e70     snd_dma.obj
 0003:0000de84       ??_C@_0N@OMD@ambient_fade?$AA@ 00479e84     snd_dma.obj
 0003:0000de94       ??_C@_04BBHD@4096?$AA@     00479e94     snd_dma.obj
 0003:0000de9c       ??_C@_09NEGO@bgmbuffer?$AA@ 00479e9c     snd_dma.obj
 0003:0000dea8       ??_C@_0L@HMGJ@loadas8bit?$AA@ 00479ea8     snd_dma.obj
 0003:0000deb4       ??_C@_08GKBG@precache?$AA@ 00479eb4     snd_dma.obj
 0003:0000dec0       ??_C@_07KADE@nosound?$AA@  00479ec0     snd_dma.obj
 0003:0000dec8       ??_C@_03NKDD@0?47?$AA@     00479ec8     snd_dma.obj
 0003:0000decc       ??_C@_0BK@JHHA@sound?5system?5not?5started?6?$AA@ 00479ecc     snd_dma.obj
 0003:0000dee8       ??_C@_0BE@MJGB@?$CF5d?5total_channels?6?$AA@ 00479ee8     snd_dma.obj
 0003:0000defc       ??_C@_0BB@HPKE@0x?$CFx?5dma?5buffer?6?$AA@ 00479efc     snd_dma.obj
 0003:0000df10       ??_C@_0L@JCHF@?$CF5d?5speed?6?$AA@ 00479f10     snd_dma.obj
 0003:0000df1c       ??_C@_0BG@JJMA@?$CF5d?5submission_chunk?6?$AA@ 00479f1c     snd_dma.obj
 0003:0000df34       ??_C@_0BA@MLCC@?$CF5d?5samplebits?6?$AA@ 00479f34     snd_dma.obj
 0003:0000df44       ??_C@_0P@IGHG@?$CF5d?5samplepos?6?$AA@ 00479f44     snd_dma.obj
 0003:0000df54       ??_C@_0N@KDEK@?$CF5d?5samples?6?$AA@ 00479f54     snd_dma.obj
 0003:0000df64       ??_C@_0M@PEPK@?$CF5d?5stereo?6?$AA@ 00479f64     snd_dma.obj
 0003:0000df70       ??_C@_0BD@GAMC@ambience?1wind2?4wav?$AA@ 00479f70     snd_dma.obj
 0003:0000df84       ??_C@_0BE@LMFN@ambience?1water1?4wav?$AA@ 00479f84     snd_dma.obj
 0003:0000df98       ??_C@_0BJ@KILL@Sound?5sampling?5rate?3?5?$CFi?6?$AA@ 00479f98     snd_dma.obj
 0003:0000dfb4       ??_C@_06GCCI@shmbuf?$AA@   00479fb4     snd_dma.obj
 0003:0000dfbc       ??_C@_03HJNO@shm?$AA@      00479fbc     snd_dma.obj
 0003:0000dfc0       ??_C@_05FIEO@sfx_t?$AA@    00479fc0     snd_dma.obj
 0003:0000dfc8       ??_C@_0BM@NGPE@loading?5all?5sounds?5as?58bit?6?$AA@ 00479fc8     snd_dma.obj
 0003:0000dfe4       ??_C@_08EAAH@volumeup?$AA@ 00479fe4     snd_dma.obj
 0003:0000dff0       ??_C@_0L@CJO@volumedown?$AA@ 00479ff0     snd_dma.obj
 0003:0000dffc       ??_C@_09DBLB@soundinfo?$AA@ 00479ffc     snd_dma.obj
 0003:0000e008       ??_C@_09BLBC@soundlist?$AA@ 0047a008     snd_dma.obj
 0003:0000e014       ??_C@_09IELC@stopsound?$AA@ 0047a014     snd_dma.obj
 0003:0000e020       ??_C@_07BIKF@playvol?$AA@  0047a020     snd_dma.obj
 0003:0000e028       ??_C@_09IGFN@?9simsound?$AA@ 0047a028     snd_dma.obj
 0003:0000e034       ??_C@_0BH@DMHH@?6Sound?5Initialization?6?$AA@ 0047a034     snd_dma.obj
 0003:0000e04c       ??_C@_0BJ@BOFF@S_FindName?3?5out?5of?5sfx_t?$AA@ 0047a04c     snd_dma.obj
 0003:0000e068       ??_C@_0BI@HAHM@Sound?5name?5too?5long?3?5?$CFs?$AA@ 0047a068     snd_dma.obj
 0003:0000e080       ??_C@_0BC@INLJ@S_FindName?3?5NULL?6?$AA@ 0047a080     snd_dma.obj
 0003:0000e094       ??_C@_0CM@ENEC@S_ClearBuffer?3?5DS?3?5couldn?8t?5rest@ 0047a094     snd_dma.obj
 0003:0000e0c0       ??_C@_0CN@DMAM@S_ClearBuffer?3?5DS?3?3Lock?5Sound?5Bu@ 0047a0c0     snd_dma.obj
 0003:0000e0f0       ??_C@_0BF@PBOF@Sound?5?$CFs?5not?5looped?6?$AA@ 0047a0f0     snd_dma.obj
 0003:0000e108       ??_C@_0CA@NCPB@total_channels?5?$DN?$DN?5MAX_CHANNELS?6?$AA@ 0047a108     snd_dma.obj
 0003:0000e128       ??_C@_0O@KOOM@?9?9?9?9?$CI?$CFi?$CJ?9?9?9?9?6?$AA@ 0047a128     snd_dma.obj
 0003:0000e138       ??_C@_0CC@PILE@Couldn?8t?5get?5sound?5buffer?5status@ 0047a138     snd_dma.obj
 0003:0000e15c       ??_C@_04MPDF@?4wav?$AA@    0047a15c     snd_dma.obj
 0003:0000e164       ??_C@_0BE@KMED@Total?5resident?3?5?$CFi?6?$AA@ 0047a164     snd_dma.obj
 0003:0000e178       ??_C@_0BB@GLMG@?$CI?$CF2db?$CJ?5?$CF6i?5?3?5?$CFs?6?$AA@ 0047a178     snd_dma.obj
 0003:0000e18c       ??_C@_01FLCE@L?$AA@        0047a18c     snd_dma.obj
 0003:0000e190       ??_C@_0BO@ECNP@S_LocalSound?3?5can?8t?5cache?5?$CFs?6?$AA@ 0047a190     snd_dma.obj
 0003:0000e1b0       ??_C@_0BH@BKDA@?$CFs?5is?5a?5stereo?5sample?6?$AA@ 0047a1b0     snd_mem.obj
 0003:0000e1c8       ??_C@_0BC@DJDD@Couldn?8t?5load?5?$CFs?6?$AA@ 0047a1c8     snd_mem.obj
 0003:0000e1dc       ??_C@_06ICGA@sound?1?$AA@  0047a1dc     snd_mem.obj
 0003:0000e1e4       ??_C@_0BK@HDNC@Missing?5RIFF?1WAVE?5chunks?6?$AA@ 0047a1e4     snd_mem.obj
 0003:0000e200       ??_C@_0BP@CLHH@Sound?5?$CFs?5has?5a?5bad?5loop?5length?$AA@ 0047a200     snd_mem.obj
 0003:0000e220       ??_C@_0BE@OGAC@Missing?5data?5chunk?6?$AA@ 0047a220     snd_mem.obj
 0003:0000e234       ??_C@_04OMKF@data?$AA@     0047a234     snd_mem.obj
 0003:0000e23c       ??_C@_04JFAO@mark?$AA@     0047a23c     snd_mem.obj
 0003:0000e244       ??_C@_04PBEL@LIST?$AA@     0047a244     snd_mem.obj
 0003:0000e24c       ??_C@_04MHP@cue?5?$AA@     0047a24c     snd_mem.obj
 0003:0000e254       ??_C@_0BL@CPKL@Microsoft?5PCM?5format?5only?6?$AA@ 0047a254     snd_mem.obj
 0003:0000e270       ??_C@_0BD@LFCE@Missing?5fmt?5chunk?6?$AA@ 0047a270     snd_mem.obj
 0003:0000e284       ??_C@_04HBLJ@fmt?5?$AA@    0047a284     snd_mem.obj
 0003:0000e28c       ??_C@_04DOFO@WAVE?$AA@     0047a28c     snd_mem.obj
 0003:0000e294       ??_C@_04ILOB@RIFF?$AA@     0047a294     snd_mem.obj
 0003:0000e29c       ??_C@_0DB@LLE@S_TransferStereo16?3?5DS?3?5couldn?8t@ 0047a29c     snd_mix.obj
 0003:0000e2d0       ??_C@_0DC@NIEK@S_TransferStereo16?3?5DS?3?3Lock?5Sou@ 0047a2d0     snd_mix.obj
 0003:0000e304       ??_C@_0DE@NG@S_TransferPaintBuffer?3?5DS?3?5could@ 0047a304     snd_mix.obj
 0003:0000e338       ??_C@_0DF@HEB@S_TransferPaintBuffer?3?5DS?3?3Lock?5@ 0047a338     snd_mix.obj
 0003:0000e374       ??_C@_0DA@HDJN@SNDDMA_InitDirect?3?5DS?3?5couldn?8t?5@ 0047a374     snd_win.obj
 0003:0000e3a4       ??_C@_0DB@BDC@SNDDMA_InitDirect?3?5DS?3?3Lock?5Soun@ 0047a3a4     snd_win.obj
 0003:0000e3d8       ??_C@_0DE@DCGK@?5?5?5?$CFd?5channel?$CIs?$CJ?6?5?5?5?$CFd?5bits?1samp@ 0047a3d8     snd_win.obj
 0003:0000e40c       ??_C@_0BO@BIDD@Using?5secondary?5sound?5buffer?6?$AA@ 0047a40c     snd_win.obj
 0003:0000e42c       ??_C@_0BM@FKPM@DS?3CreateSoundBuffer?5Failed?$AA@ 0047a42c     snd_win.obj
 0003:0000e448       ??_C@_0BM@DGFA@Using?5primary?5sound?5buffer?6?$AA@ 0047a448     snd_win.obj
 0003:0000e464       ??_C@_0BD@LLPJ@DS?3GetCaps?5failed?6?$AA@ 0047a464     snd_win.obj
 0003:0000e478       ??_C@_0CG@KJHP@Set?5primary?5sound?5buffer?5format?3@ 0047a478     snd_win.obj
 0003:0000e4a0       ??_C@_0O@DJJL@?9primarysound?$AA@ 0047a4a0     snd_win.obj
 0003:0000e4b0       ??_C@_0CF@EOBP@Set?5primary?5sound?5buffer?5format?3@ 0047a4b0     snd_win.obj
 0003:0000e4d8       ??_C@_0BA@CHJC@?9snoforceformat?$AA@ 0047a4d8     snd_win.obj
 0003:0000e4e8       ??_C@_0BH@IKOH@Set?5coop?5level?5failed?6?$AA@ 0047a4e8     snd_win.obj
 0003:0000e500       ??_C@_0DF@DPFP@DirectSoundCreate?5failure?6?5?5hard@ 0047a500     snd_win.obj
 0003:0000e538       ??_C@_0BL@IHML@DirectSound?5create?5failed?6?$AA@ 0047a538     snd_win.obj
 0003:0000e554       ??_C@_0CB@ELD@No?5DirectSound?5driver?5installed?6@ 0047a554     snd_win.obj
 0003:0000e578       ??_C@_0BG@LGJC@Couldn?8t?5get?5DS?5caps?6?$AA@ 0047a578     snd_win.obj
 0003:0000e590       ??_C@_0HN@HPNI@The?5sound?5hardware?5is?5in?5use?5by?5@ 0047a590     snd_win.obj
 0003:0000e610       ??_C@_0BE@IHBA@Sound?5not?5available?$AA@ 0047a610     snd_win.obj
 0003:0000e624       ??_C@_0BL@GKOJ@Couldn?8t?5get?5DS?5proc?5addr?6?$AA@ 0047a624     snd_win.obj
 0003:0000e640       ??_C@_0BC@OJFH@DirectSoundCreate?$AA@ 0047a640     snd_win.obj
 0003:0000e654       ??_C@_0BK@CADL@Couldn?8t?5load?5dsound?4dll?6?$AA@ 0047a654     snd_win.obj
 0003:0000e670       ??_C@_0L@PLHI@dsound?4dll?$AA@ 0047a670     snd_win.obj
 0003:0000e67c       ??_C@_0CH@EFJN@Sound?3?5failed?5to?5prepare?5wave?5he@ 0047a67c     snd_win.obj
 0003:0000e6a4       ??_C@_0BP@GCOE@Sound?3?5Failed?5to?5lock?5header?4?6?$AA@ 0047a6a4     snd_win.obj
 0003:0000e6c4       ??_C@_0CA@LDGL@Sound?3?5Failed?5to?5Alloc?5header?4?6?$AA@ 0047a6c4     snd_win.obj
 0003:0000e6e4       ??_C@_0BI@IBFD@Sound?3?5Failed?5to?5lock?4?6?$AA@ 0047a6e4     snd_win.obj
 0003:0000e6fc       ??_C@_0DA@DFKB@waveOutOpen?5failure?$DL?6?5?5hardware?5@ 0047a6fc     snd_win.obj
 0003:0000e72c       ??_C@_0BE@HDF@waveOutOpen?5failed?6?$AA@ 0047a72c     snd_win.obj
 0003:0000e740       ??_C@_0BH@KDEG@Sound?3?5Out?5of?5memory?4?6?$AA@ 0047a740     snd_win.obj
 0003:0000e758       ??_C@_0BL@CPGB@Wave?5sound?5failed?5to?5init?6?$AA@ 0047a758     snd_win.obj
 0003:0000e774       ??_C@_0BI@KOPK@Wave?5sound?5initialized?6?$AA@ 0047a774     snd_win.obj
 0003:0000e78c       ??_C@_0BM@CFLO@DirectSound?5failed?5to?5init?6?$AA@ 0047a78c     snd_win.obj
 0003:0000e7a8       ??_C@_0BJ@JFMJ@DirectSound?5initialized?6?$AA@ 0047a7a8     snd_win.obj
 0003:0000e7c4       ??_C@_08FIKH@?9wavonly?$AA@ 0047a7c4     snd_win.obj
 0003:0000e7d0       ??_C@_0CB@PBLM@Failed?5to?5write?5block?5to?5device?6@ 0047a7d0     snd_win.obj
 0003:0000e7f4       ??_C@_0P@OBKA@Sound?5overrun?6?$AA@ 0047a7f4     snd_win.obj
 0003:0000e804       ??_C@_0CC@DPKE@SV_StartSound?3?5?$CFs?5not?5precacheed@ 0047a804     sv_main.obj
 0003:0000e828       ??_C@_0CA@IFO@pq_fullpitch?50?$DL?5cl_fullpitch?50?6?$AA@ 0047a828     sv_main.obj
 0003:0000e848       ??_C@_0EH@ENPD@?$AC?6?5?5?5?$AEProQuake?5Server?5Version?5?$CF4@ 0047a848     sv_main.obj
 0003:0000e890       ??_C@_0BF@GII@Client?5?$CFs?5connected?6?$AA@ 0047a890     sv_main.obj
 0003:0000e8a8       ??_C@_0BM@PJBB@QSmack?5Client?5?$CFs?5connected?6?$AA@ 0047a8a8     sv_main.obj
 0003:0000e8c4       ??_C@_0BO@EHKP@ProQuake?5Client?5?$CFs?5connected?6?$AA@ 0047a8c4     sv_main.obj
 0003:0000e8e4       ??_C@_0CJ@HKDO@Host_CheckForNewClients?3?5no?5free@ 0047a8e4     sv_main.obj
 0003:0000e910       ??_C@_0BB@GLFF@packet?5overflow?6?$AA@ 0047a910     sv_main.obj
 0003:0000e924       ??_C@_06OING@items2?$AA@   0047a924     sv_main.obj
 0003:0000e92c       ??_C@_0CG@ICPH@SV_ModelIndex?3?5model?5?$CFs?5not?5prec@ 0047a92c     sv_main.obj
 0003:0000e954       ??_C@_0BB@FNNG@progs?1player?4mdl?$AA@ 0047a954     sv_main.obj
 0003:0000e968       ??_C@_0L@BGLM@reconnect?6?$AA@ 0047a968     sv_main.obj
 0003:0000e974       ??_C@_0BB@JFCN@Server?5spawned?4?6?$AA@ 0047a974     sv_main.obj
 0003:0000e988       ??_C@_0BK@OEJN@Couldn?8t?5spawn?5server?5?$CFs?6?$AA@ 0047a988     sv_main.obj
 0003:0000e9a4       ??_C@_0M@HBDC@maps?1?$CFs?4bsp?$AA@ 0047a9a4     sv_main.obj
 0003:0000e9b0       ??_C@_0BB@GLPC@SpawnServer?3?5?$CFs?6?$AA@ 0047a9b0     sv_main.obj
 0003:0000e9c4       ??_C@_0BF@OMBH@?6SV_SpawnServer?3?5?$CFs?6?$AA@ 0047a9c4     sv_main.obj
 0003:0000e9e0       _sv_friction               0047a9e0     sv_phys.obj
 0003:0000ea00       _sv_stopspeed              0047aa00     sv_phys.obj
 0003:0000ea20       _sv_gravity                0047aa20     sv_phys.obj
 0003:0000ea40       _sv_maxvelocity            0047aa40     sv_phys.obj
 0003:0000ea60       _sv_nostep                 0047aa60     sv_phys.obj
 0003:0000ea7c       ??_C@_09BDEA@sv_nostep?$AA@ 0047aa7c     sv_phys.obj
 0003:0000ea88       ??_C@_04JCBD@2000?$AA@     0047aa88     sv_phys.obj
 0003:0000ea90       ??_C@_0P@NFJM@sv_maxvelocity?$AA@ 0047aa90     sv_phys.obj
 0003:0000eaa0       ??_C@_03LHGB@800?$AA@      0047aaa0     sv_phys.obj
 0003:0000eaa4       ??_C@_0L@GIJ@sv_gravity?$AA@ 0047aaa4     sv_phys.obj
 0003:0000eab0       ??_C@_0N@PJCG@sv_stopspeed?$AA@ 0047aab0     sv_phys.obj
 0003:0000eac0       ??_C@_0M@OCEI@sv_friction?$AA@ 0047aac0     sv_phys.obj
 0003:0000eacc       ??_C@_0BI@FDAD@Got?5a?5NaN?5origin?5on?5?$CFs?6?$AA@ 0047aacc     sv_phys.obj
 0003:0000eae4       ??_C@_0BK@EMCI@Got?5a?5NaN?5velocity?5on?5?$CFs?6?$AA@ 0047aae4     sv_phys.obj
 0003:0000eb00       ??_C@_0BH@CAEE@SV_FlyMove?3?5?$CBtrace?4ent?$AA@ 0047ab00     sv_phys.obj
 0003:0000eb18       ??_C@_07CAPN@gravity?$AA@  0047ab18     sv_phys.obj
 0003:0000eb20       ??_C@_0CD@IGKG@SV_Physics_client?3?5bad?5movetype?5@ 0047ab20     sv_phys.obj
 0003:0000eb44       ??_C@_0BB@IGEA@misc?1h2ohit1?4wav?$AA@ 0047ab44     sv_phys.obj
 0003:0000eb58       ??_C@_0BB@IPJM@demon?1dland2?4wav?$AA@ 0047ab58     sv_phys.obj
 0003:0000eb6c       ??_C@_0BM@LBLC@SV_Physics?3?5bad?5movetype?5?$CFi?$AA@ 0047ab6c     sv_phys.obj
 0003:0000eb88       _sv_edgefriction           0047ab88     sv_user.obj
 0003:0000eba8       _sv_idealpitchscale        0047aba8     sv_user.obj
 0003:0000ebc8       _pq_fullpitch              0047abc8     sv_user.obj
 0003:0000ebe8       _sv_maxspeed               0047abe8     sv_user.obj
 0003:0000ec08       _sv_accelerate             0047ac08     sv_user.obj
 0003:0000ec24       ??_C@_0O@MFHF@sv_accelerate?$AA@ 0047ac24     sv_user.obj
 0003:0000ec34       ??_C@_03PMLK@320?$AA@      0047ac34     sv_user.obj
 0003:0000ec38       ??_C@_0M@PIGM@sv_maxspeed?$AA@ 0047ac38     sv_user.obj
 0003:0000ec44       ??_C@_0N@OPKE@pq_fullpitch?$AA@ 0047ac44     sv_user.obj
 0003:0000ec54       ??_C@_0BD@JJH@sv_idealpitchscale?$AA@ 0047ac54     sv_user.obj
 0003:0000ec68       ??_C@_0N@EKBJ@edgefriction?$AA@ 0047ac68     sv_user.obj
 0003:0000ec78       ??_C@_0CM@FKEM@SV_ReadClientMessage?3?5unknown?5co@ 0047ac78     sv_user.obj
 0003:0000eca4       ??_C@_0BP@JOFM@SV_ReadClientMessage?3?5badread?6?$AA@ 0047aca4     sv_user.obj
 0003:0000ecc4       ??_C@_0CN@LDPD@SV_ReadClientMessage?3?5NET_GetMes@ 0047acc4     sv_user.obj
 0003:0000ecf4       ??_C@_0BA@BPEH@?$CFs?5tried?5to?5?$CFs?6?$AA@ 0047acf4     sv_user.obj
 0003:0000ed10       ??_C@_0P@IMIL@Clams?5?$CG?5Mooses?$AA@ 0047ad10     sys_win.obj
 0003:0000ed20       ??_C@_0CN@CDBH@Warning?3?5could?5not?5open?5lock?$DL?5us@ 0047ad20     sys_win.obj
 0003:0000ed50       ??_C@_0M@HHB@?$CFs?1lock?4dat?$AA@ 0047ad50     sys_win.obj
 0003:0000ed5c       ??_C@_0P@BMLM@out?5of?5handles?$AA@ 0047ad5c     sys_win.obj
 0003:0000ed6c       ??_C@_0BF@MBHJ@Error?5opening?5?$CFs?3?5?$CFs?$AA@ 0047ad6c     sys_win.obj
 0003:0000ed84       ??_C@_0BK@DNJG@Protection?5change?5failed?6?$AA@ 0047ad84     sys_win.obj
 0003:0000eda0       ??_C@_0CL@JMA@WinQuake?5requires?5at?5least?5Win95@ 0047ada0     sys_win.obj
 0003:0000edcc       ??_C@_0BF@HIO@Couldn?8t?5get?5OS?5info?$AA@ 0047adcc     sys_win.obj
 0003:0000ede4       ??_C@_0BM@CPIF@No?5hardware?5timer?5available?$AA@ 0047ade4     sys_win.obj
 0003:0000ee00       ??_C@_0BD@FEED@Double?5Quake?5Error?$AA@ 0047ae00     sys_win.obj
 0003:0000ee14       ??_C@_0M@FGIM@Quake?5Error?$AA@ 0047ae14     sys_win.obj
 0003:0000ee20       ??_C@_0BF@PFE@Press?5Enter?5to?5exit?6?$AA@ 0047ae20     sys_win.obj
 0003:0000ee38       ??_C@_0CF@POGO@?$CK?$CK?$CK?$CK?$CK?$CK?$CK?$CK?$CK?$CK?$CK?$CK?$CK?$CK?$CK?$CK?$CK?$CK?$CK?$CK?$CK?$CK?$CK?$CK?$CK?$CK?$CK?$CK?$CK?$CK?$CK?$CK@ 0047ae38     sys_win.obj
 0003:0000ee60       ??_C@_0L@PAEE@ERROR?3?5?$CFs?6?$AA@ 0047ae60     sys_win.obj
 0003:0000ee6c       ??_C@_0L@BCOC@?9starttime?$AA@ 0047ae6c     sys_win.obj
 0003:0000ee78       ??_C@_03BBFP@?$AI?5?$AI?$AA@ 0047ae78     sys_win.obj
 0003:0000ee7c       ??_C@_02PIMC@?$AN?6?$AA@   0047ae7c     sys_win.obj
 0003:0000ee80       ??_C@_0BM@DCEG@Couldn?8t?5read?5console?5input?$AA@ 0047ae80     sys_win.obj
 0003:0000ee9c       ??_C@_0BM@ICBN@Error?5reading?5console?5input?$AA@ 0047ae9c     sys_win.obj
 0003:0000eeb8       ??_C@_0CC@KAGK@Error?5getting?5?$CD?5of?5console?5event@ 0047aeb8     sys_win.obj
 0003:0000eedc       ??_C@_0L@OHDO@Host_Init?6?$AA@ 0047aedc     sys_win.obj
 0003:0000eee8       ??_C@_07GNDC@?9HCHILD?$AA@ 0047aee8     sys_win.obj
 0003:0000eef0       ??_C@_08HMIJ@?9HPARENT?$AA@ 0047aef0     sys_win.obj
 0003:0000eefc       ??_C@_06POGL@?9HFILE?$AA@  0047aefc     sys_win.obj
 0003:0000ef04       ??_C@_0CJ@OAMN@Couldn?8t?5create?5dedicated?5server@ 0047af04     sys_win.obj
 0003:0000ef30       ??_C@_0BG@HGGH@Couldn?8t?5create?5event?$AA@ 0047af30     sys_win.obj
 0003:0000ef48       ??_C@_0CK@JMKO@Not?5enough?5memory?5free?$DL?5check?5di@ 0047af48     sys_win.obj
 0003:0000ef74       ??_C@_09MBEO@?9heapsize?$AA@ 0047af74     sys_win.obj
 0003:0000ef80       ??_C@_0CF@FBDJ@Couldn?8t?5determine?5current?5direc@ 0047af80     sys_win.obj
 0003:0000efb0       _vid_mode                  0047afb0     vid_win.obj
 0003:0000efd0       __vid_default_mode         0047afd0     vid_win.obj
 0003:0000eff0       __vid_default_mode_win     0047aff0     vid_win.obj
 0003:0000f010       _vid_wait                  0047b010     vid_win.obj
 0003:0000f030       _vid_nopageflip            0047b030     vid_win.obj
 0003:0000f050       __vid_wait_override        0047b050     vid_win.obj
 0003:0000f070       _vid_config_x              0047b070     vid_win.obj
 0003:0000f090       _vid_config_y              0047b090     vid_win.obj
 0003:0000f0b0       _vid_stretch_by_2          0047b0b0     vid_win.obj
 0003:0000f0d0       __windowed_mouse           0047b0d0     vid_win.obj
 0003:0000f0f0       _vid_fullscreen_mode       0047b0f0     vid_win.obj
 0003:0000f110       _vid_windowed_mode         0047b110     vid_win.obj
 0003:0000f130       _block_switch              0047b130     vid_win.obj
 0003:0000f150       _vid_window_x              0047b150     vid_win.obj
 0003:0000f170       _vid_window_y              0047b170     vid_win.obj
 0003:0000f190       _lowresmodes               0047b190     vid_win.obj
 0003:0000f1b0       _vid_modenum               0047b1b0     vid_win.obj
 0003:0000f1b4       _modestate                 0047b1b4     vid_win.obj
 0003:0000f1b8       _driver                    0047b1b8     vid_win.obj
 0003:0000f1bc       _useWinDirect              0047b1bc     vid_win.obj
 0003:0000f1c0       _useDirectDraw             0047b1c0     vid_win.obj
 0003:0000f1c4       _waitVRT                   0047b1c4     vid_win.obj
 0003:0000f1c8       ??_C@_0N@PPMF@vid_window_y?$AA@ 0047b1c8     vid_win.obj
 0003:0000f1d8       ??_C@_0N@FFFC@vid_window_x?$AA@ 0047b1d8     vid_win.obj
 0003:0000f1e8       ??_C@_0N@NNFN@block_switch?$AA@ 0047b1e8     vid_win.obj
 0003:0000f1f8       ??_C@_0BC@EGHH@vid_windowed_mode?$AA@ 0047b1f8     vid_win.obj
 0003:0000f20c       ??_C@_0BE@NEMA@vid_fullscreen_mode?$AA@ 0047b20c     vid_win.obj
 0003:0000f220       ??_C@_0BB@GJFC@vid_stretch_by_2?$AA@ 0047b220     vid_win.obj
 0003:0000f234       ??_C@_03MLKD@600?$AA@      0047b234     vid_win.obj
 0003:0000f238       ??_C@_0N@ECH@vid_config_y?$AA@ 0047b238     vid_win.obj
 0003:0000f248       ??_C@_0N@KOLA@vid_config_x?$AA@ 0047b248     vid_win.obj
 0003:0000f258       ??_C@_0BD@EJJJ@_vid_wait_override?$AA@ 0047b258     vid_win.obj
 0003:0000f26c       ??_C@_0P@GMCC@vid_nopageflip?$AA@ 0047b26c     vid_win.obj
 0003:0000f27c       ??_C@_08BNPF@vid_wait?$AA@ 0047b27c     vid_win.obj
 0003:0000f288       ??_C@_0BG@FKD@_vid_default_mode_win?$AA@ 0047b288     vid_win.obj
 0003:0000f2a0       ??_C@_0BC@DIEI@_vid_default_mode?$AA@ 0047b2a0     vid_win.obj
 0003:0000f2b4       ??_C@_08KOJB@vid_mode?$AA@ 0047b2b4     vid_win.obj
 0003:0000f2c0       ??_C@_05HENO@video?$AA@    0047b2c0     vid_win.obj
 0003:0000f2c8       ??_C@_0CC@OJBA@Not?5enough?5memory?5for?5video?5mode@ 0047b2c8     vid_win.obj
 0003:0000f2ec       ??_C@_0L@JHLH@DDRAW8?4DRV?$AA@ 0047b2ec     vid_win.obj
 0003:0000f2f8       ??_C@_0L@FBPG@ACCEL8?4DRV?$AA@ 0047b2f8     vid_win.obj
 0003:0000f304       ??_C@_08JGHJ@?9novbeaf?$AA@ 0047b304     vid_win.obj
 0003:0000f310       ??_C@_0M@CLAO@LINEAR8?4DRV?$AA@ 0047b310     vid_win.obj
 0003:0000f31c       ??_C@_08CDAC@VGA8?4DRV?$AA@ 0047b31c     vid_win.obj
 0003:0000f328       ??_C@_09NDLM@PACK8?4DRV?$AA@ 0047b328     vid_win.obj
 0003:0000f334       ??_C@_05PNBL@?$CFdx?$CFd?$AA@ 0047b334     vid_win.obj
 0003:0000f33c       ??_C@_0M@KGLI@?9noforcevga?$AA@ 0047b33c     vid_win.obj
 0003:0000f348       ??_C@_05LPAB@?9nodd?$AA@   0047b348     vid_win.obj
 0003:0000f350       ??_C@_08JHGG@?9noddraw?$AA@ 0047b350     vid_win.obj
 0003:0000f35c       ??_C@_0O@CAIN@?9nodirectdraw?$AA@ 0047b35c     vid_win.obj
 0003:0000f36c       ??_C@_07IIBH@?9novesa?$AA@ 0047b36c     vid_win.obj
 0003:0000f374       ??_C@_05OOFH@?9nowd?$AA@   0047b374     vid_win.obj
 0003:0000f37c       ??_C@_0N@PBMJ@?9nowindirect?$AA@ 0047b37c     vid_win.obj
 0003:0000f38c       ??_C@_0N@LJND@?9notriplebuf?$AA@ 0047b38c     vid_win.obj
 0003:0000f39c       ??_C@_0P@PCME@?9noautostretch?$AA@ 0047b39c     vid_win.obj
 0003:0000f3ac       ??_C@_07ONGP@800x600?$AA@  0047b3ac     vid_win.obj
 0003:0000f3b4       ??_C@_07DJEG@640x480?$AA@  0047b3b4     vid_win.obj
 0003:0000f3bc       ??_C@_07NDMM@320x240?$AA@  0047b3bc     vid_win.obj
 0003:0000f3c4       ??_C@_0BP@ODO@Couldn?8t?5register?5window?5class?$AA@ 0047b3c4     vid_win.obj
 0003:0000f3e4       ??_C@_08HDKL@WinQuake?$AA@ 0047b3e4     vid_win.obj
 0003:0000f3f0       ??_C@_0BP@KJID@No?5fullscreen?5DIB?5modes?5found?6?$AA@ 0047b3f0     vid_win.obj
 0003:0000f410       ??_C@_0CF@BONE@No?58?9bpp?5fullscreen?5DIB?5modes?5fo@ 0047b410     vid_win.obj
 0003:0000f438       ??_C@_0BA@KAJJ@?9noadjustaspect?$AA@ 0047b438     vid_win.obj
 0003:0000f448       ??_C@_0M@PMPG@?$CFs?5windowed?$AA@ 0047b448     vid_win.obj
 0003:0000f454       ??_C@_0O@ILME@?$CFs?5fullscreen?$AA@ 0047b454     vid_win.obj
 0003:0000f464       ??_C@_0BC@DBIA@?$CFs?5fullscreen?5DIB?$AA@ 0047b464     vid_win.obj
 0003:0000f478       ??_C@_0BB@PNDJ@?$CFs?5fullscreen?5?$CFs?$AA@ 0047b478     vid_win.obj
 0003:0000f48c       ??_C@_0BM@EHEA@Unable?5to?5create?5Memory?5DC?$CB?$AA@ 0047b48c     vid_win.obj
 0003:0000f4a8       ??_C@_0BO@LNHC@Unable?5to?5create?5Windowed?5DC?$CB?$AA@ 0047b4a8     vid_win.obj
 0003:0000f4c8       ??_C@_0BL@HFGA@Couldn?8t?5resize?5DIB?5window?$AA@ 0047b4c8     vid_win.obj
 0003:0000f4e4       ??_C@_0BL@PBHG@Couldn?8t?5create?5DIB?5window?$AA@ 0047b4e4     vid_win.obj
 0003:0000f500       ??_C@_0N@OBPG@?9resetwinpos?$AA@ 0047b500     vid_win.obj
 0003:0000f510       ??_C@_0CE@KLM@Unable?5to?5create?5Fullscreen?5DIB?5@ 0047b510     vid_win.obj
 0003:0000f534       ??_C@_0CB@IDDL@Couldn?8t?5set?5fullscreen?5DIB?5mode@ 0047b534     vid_win.obj
 0003:0000f558       ??_C@_0BJ@KEHF@Can?8t?5set?5any?5video?5mode?$AA@ 0047b558     vid_win.obj
 0003:0000f574       ??_C@_0BC@KNLP@Unbalanced?5unlock?$AA@ 0047b574     vid_win.obj
 0003:0000f588       ??_C@_0BO@LHHL@?$CFd?5video?5modes?5are?5available?6?$AA@ 0047b588     vid_win.obj
 0003:0000f5a8       ??_C@_0BM@HCJO@?$CFd?5video?5mode?5is?5available?6?$AA@ 0047b5a8     vid_win.obj
 0003:0000f5c4       ??_C@_0CH@PNDH@?6?$FL?$CK?$CK?3?5not?5enough?5system?5RAM?5for?5@ 0047b5c4     vid_win.obj
 0003:0000f5ec       ??_C@_07FDAE@?$CK?$CK?3?5?$CFs?6?$AA@ 0047b5ec     vid_win.obj
 0003:0000f5f4       ??_C@_08BLHN@?$CF2d?3?5?$CFs?6?$AA@ 0047b5f4     vid_win.obj
 0003:0000f600       ??_C@_08BDMG@Bad?5mode?$AA@ 0047b600     vid_win.obj
 0003:0000f60c       ??_C@_0P@NBLP@?9startwindowed?$AA@ 0047b60c     vid_win.obj
 0003:0000f61c       ??_C@_07NEJJ@?9window?$AA@ 0047b61c     vid_win.obj
 0003:0000f624       ??_C@_0L@CMFH@?9nofulldib?$AA@ 0047b624     vid_win.obj
 0003:0000f630       ??_C@_0N@FEFF@vid_minimize?$AA@ 0047b630     vid_win.obj
 0003:0000f640       ??_C@_0P@IAPJ@vid_fullscreen?$AA@ 0047b640     vid_win.obj
 0003:0000f650       ??_C@_0N@CFDM@vid_windowed?$AA@ 0047b650     vid_win.obj
 0003:0000f660       ??_C@_0O@PFMP@vid_forcemode?$AA@ 0047b660     vid_win.obj
 0003:0000f670       ??_C@_0BC@JADC@vid_describemodes?$AA@ 0047b670     vid_win.obj
 0003:0000f684       ??_C@_0BB@NLOH@vid_describemode?$AA@ 0047b684     vid_win.obj
 0003:0000f698       ??_C@_0BI@HMEN@vid_describecurrentmode?$AA@ 0047b698     vid_win.obj
 0003:0000f6b0       ??_C@_0N@LNAF@vid_nummodes?$AA@ 0047b6b0     vid_win.obj
 0003:0000f6c0       ??_C@_0N@ECIE@vid_testmode?$AA@ 0047b6c0     vid_win.obj
 0003:0000f6d0       ??_C@_0BI@MFFM@NULL?5vid?4direct?5pointer?$AA@ 0047b6d0     vid_win.obj
 0003:0000f6e8       ??_C@_0BP@MNAO@Are?5you?5sure?5you?5want?5to?5quit?$DP?$AA@ 0047b6e8     vid_win.obj
 0003:0000f708       ??_C@_0N@DHID@Confirm?5Exit?$AA@ 0047b708     vid_win.obj
 0003:0000f718       ??_C@_0M@LGJD@Esc?5to?5exit?$AA@ 0047b718     vid_win.obj
 0003:0000f724       ??_C@_0BE@KODJ@Current?5default?3?5?$CFs?$AA@ 0047b724     vid_win.obj
 0003:0000f738       ??_C@_0BF@KBEC@D?5to?5set?5default?3?5?$CFs?$AA@ 0047b738     vid_win.obj
 0003:0000f750       ??_C@_0BN@CHHO@T?5to?5test?5mode?5for?55?5seconds?$AA@ 0047b750     vid_win.obj
 0003:0000f770       ??_C@_0BI@OHGL@Press?5Enter?5to?5set?5mode?$AA@ 0047b770     vid_win.obj
 0003:0000f788       ??_C@_0BJ@CCPD@Please?5wait?55?5seconds?4?4?4?$AA@ 0047b788     vid_win.obj
 0003:0000f7a4       ??_C@_0L@IBNL@TESTING?5?$CFs?$AA@ 0047b7a4     vid_win.obj
 0003:0000f7b0       ??_C@_0BB@DLKN@Fullscreen?5Modes?$AA@ 0047b7b0     vid_win.obj
 0003:0000f7c4       ??_C@_0P@CNFD@Windowed?5Modes?$AA@ 0047b7c4     vid_win.obj
 0003:0000f7d4       ??_C@_09NDLI@?9allow360?$AA@ 0047b7d4     vid_win.obj
 0003:0000f7e0       ??_C@_0BB@MJIL@gfx?1vidmodes?4lmp?$AA@ 0047b7e0     vid_win.obj
 0003:0000f7f8       _lcd_x                     0047b7f8     view.obj
 0003:0000f818       _lcd_yaw                   0047b818     view.obj
 0003:0000f838       _scr_ofsx                  0047b838     view.obj
 0003:0000f858       _scr_ofsy                  0047b858     view.obj
 0003:0000f878       _scr_ofsz                  0047b878     view.obj
 0003:0000f898       _cl_rollspeed              0047b898     view.obj
 0003:0000f8b8       _cl_rollangle              0047b8b8     view.obj
 0003:0000f8d8       _cl_bob                    0047b8d8     view.obj
 0003:0000f8f8       _cl_bobcycle               0047b8f8     view.obj
 0003:0000f918       _cl_bobup                  0047b918     view.obj
 0003:0000f938       _v_kicktime                0047b938     view.obj
 0003:0000f958       _v_kickroll                0047b958     view.obj
 0003:0000f978       _v_kickpitch               0047b978     view.obj
 0003:0000f998       _v_iyaw_cycle              0047b998     view.obj
 0003:0000f9b8       _v_iroll_cycle             0047b9b8     view.obj
 0003:0000f9d8       _v_ipitch_cycle            0047b9d8     view.obj
 0003:0000f9f8       _v_iyaw_level              0047b9f8     view.obj
 0003:0000fa18       _v_iroll_level             0047ba18     view.obj
 0003:0000fa38       _v_ipitch_level            0047ba38     view.obj
 0003:0000fa58       _v_idlescale               0047ba58     view.obj
 0003:0000fa78       _crosshair                 0047ba78     view.obj
 0003:0000fa98       _cl_crosshaircentered      0047ba98     view.obj
 0003:0000fab8       _cl_crossx                 0047bab8     view.obj
 0003:0000fad8       _cl_crossy                 0047bad8     view.obj
 0003:0000faf8       _gl_cshiftpercent          0047baf8     view.obj
 0003:0000fb18       _pq_waterblend             0047bb18     view.obj
 0003:0000fb38       _pq_quadblend              0047bb38     view.obj
 0003:0000fb58       _pq_ringblend              0047bb58     view.obj
 0003:0000fb78       _pq_pentblend              0047bb78     view.obj
 0003:0000fb98       _pq_suitblend              0047bb98     view.obj
 0003:0000fbb8       _r_polyblend               0047bbb8     view.obj
 0003:0000fbd8       _v_centermove              0047bbd8     view.obj
 0003:0000fbf8       _v_centerspeed             0047bbf8     view.obj
 0003:0000fc18       _cshift_empty              0047bc18     view.obj
 0003:0000fc28       _cshift_water              0047bc28     view.obj
 0003:0000fc38       _cshift_slime              0047bc38     view.obj
 0003:0000fc48       _cshift_lava               0047bc48     view.obj
 0003:0000fc58       _v_gamma                   0047bc58     view.obj
 0003:0000fc74       ??_C@_03DNJI@500?$AA@      0047bc74     view.obj
 0003:0000fc78       ??_C@_0O@GJCG@v_centerspeed?$AA@ 0047bc78     view.obj
 0003:0000fc88       ??_C@_0N@KEFH@v_centermove?$AA@ 0047bc88     view.obj
 0003:0000fc98       ??_C@_0M@CMHH@r_polyblend?$AA@ 0047bc98     view.obj
 0003:0000fca4       ??_C@_0BB@HILH@gl_cshiftpercent?$AA@ 0047bca4     view.obj
 0003:0000fcb8       ??_C@_09JOAN@cl_crossy?$AA@ 0047bcb8     view.obj
 0003:0000fcc4       ??_C@_09DEJK@cl_crossx?$AA@ 0047bcc4     view.obj
 0003:0000fcd0       ??_C@_0M@PHIB@v_idlescale?$AA@ 0047bcd0     view.obj
 0003:0000fcdc       ??_C@_0P@GKIA@v_ipitch_level?$AA@ 0047bcdc     view.obj
 0003:0000fcec       ??_C@_0O@DPLD@v_iroll_level?$AA@ 0047bcec     view.obj
 0003:0000fcfc       ??_C@_0N@PNOG@v_iyaw_level?$AA@ 0047bcfc     view.obj
 0003:0000fd0c       ??_C@_0P@IHFO@v_ipitch_cycle?$AA@ 0047bd0c     view.obj
 0003:0000fd1c       ??_C@_0O@NCGN@v_iroll_cycle?$AA@ 0047bd1c     view.obj
 0003:0000fd2c       ??_C@_0N@BADI@v_iyaw_cycle?$AA@ 0047bd2c     view.obj
 0003:0000fd3c       ??_C@_0N@FII@cl_rollspeed?$AA@ 0047bd3c     view.obj
 0003:0000fd4c       ??_C@_08ODJH@scr_ofsz?$AA@ 0047bd4c     view.obj
 0003:0000fd58       ??_C@_08BMCO@scr_ofsy?$AA@ 0047bd58     view.obj
 0003:0000fd64       ??_C@_08LGLJ@scr_ofsx?$AA@ 0047bd64     view.obj
 0003:0000fd70       ??_C@_07MBHF@lcd_yaw?$AA@  0047bd70     view.obj
 0003:0000fd78       ??_C@_05IMLA@lcd_x?$AA@    0047bd78     view.obj
 0003:0000fd80       ??_C@_02FKPA@bf?$AA@       0047bd80     view.obj
 0003:0000fd84       ??_C@_08GNKI@v_cshift?$AA@ 0047bd84     view.obj
 0003:0000fd90       ??_C@_0CC@GDPA@Wad?5file?5?$CFs?5doesn?8t?5have?5WAD2?5id@ 0047bd90     wad.obj
 0003:0000fdb4       ??_C@_0CA@CNDH@W_LoadWadFile?3?5couldn?8t?5load?5?$CFs?$AA@ 0047bdb4     wad.obj
 0003:0000fdd4       ??_C@_0BM@MJL@W_GetLumpinfo?3?5?$CFs?5not?5found?$AA@ 0047bdd4     wad.obj
 0003:0000fdf0       ??_C@_0CD@JLKE@MOVETYPE_PUSH?5with?5a?5non?5bsp?5mod@ 0047bdf0     world.obj
 0003:0000fe14       ??_C@_0CA@OBHK@SOLID_BSP?5without?5MOVETYPE_PUSH?$AA@ 0047be14     world.obj
 0003:0000fe34       ??_C@_0CH@MLDC@SV_RecursiveHullCheck?3?5bad?5node?5@ 0047be34     world.obj
 0003:0000fe5c       ??_C@_0BJ@BJGJ@Trigger?5in?5clipping?5list?$AA@ 0047be5c     world.obj
 0003:0000fe78       ??_C@_0BO@MGEF@Z_Free?3?5freed?5a?5freed?5pointer?$AA@ 0047be78     zone.obj
 0003:0000fe98       ??_C@_0CH@GNGF@Z_Free?3?5freed?5a?5pointer?5without?5@ 0047be98     zone.obj
 0003:0000fec0       ??_C@_0BF@JCGM@Z_Free?3?5NULL?5pointer?$AA@ 0047bec0     zone.obj
 0003:0000fed8       ??_C@_0CL@NPKG@Z_Malloc?3?5failed?5on?5allocation?5o@ 0047bed8     zone.obj
 0003:0000ff04       ??_C@_0CC@FLOH@Z_TagMalloc?3?5tried?5to?5use?5a?50?5ta@ 0047bf04     zone.obj
 0003:0000ff28       ??_C@_0CK@CPHA@Z_CheckHeap?3?5two?5consecutive?5fre@ 0047bf28     zone.obj
 0003:0000ff54       ??_C@_0DH@FALD@Z_CheckHeap?3?5next?5block?5doesn?8t?5@ 0047bf54     zone.obj
 0003:0000ff8c       ??_C@_0DH@LCFC@Z_CheckHeap?3?5block?5size?5does?5not@ 0047bf8c     zone.obj
 0003:0000ffc4       ??_C@_0BF@EBLN@Hunk_Check?3?5bad?5size?$AA@ 0047bfc4     zone.obj
 0003:0000ffdc       ??_C@_0BN@OJDK@Hunk_Check?3?5trahsed?5sentinal?$AA@ 0047bfdc     zone.obj
 0003:0000fffc       ??_C@_0BP@CCKC@Hunk_Alloc?3?5failed?5on?5?$CFi?5bytes?$AA@ 0047bffc     zone.obj
 0003:0001001c       ??_C@_0BJ@JGMJ@Hunk_Alloc?3?5bad?5size?3?5?$CFi?$AA@ 0047c01c     zone.obj
 0003:00010038       ??_C@_07CAMD@unknown?$AA@  0047c038     zone.obj
 0003:00010040       ??_C@_0CA@MGCG@Hunk_FreeToLowMark?3?5bad?5mark?5?$CFi?$AA@ 0047c040     zone.obj
 0003:00010060       ??_C@_0CB@CNME@Hunk_FreeToHighMark?3?5bad?5mark?5?$CFi@ 0047c060     zone.obj
 0003:00010084       ??_C@_0CE@JNLM@Hunk_HighAlloc?3?5failed?5on?5?$CFi?5byt@ 0047c084     zone.obj
 0003:000100a8       ??_C@_0CB@DNFH@Hunk_HighAllocName?3?5bad?5size?3?5?$CFi@ 0047c0a8     zone.obj
 0003:000100cc       ??_C@_04DLGO@temp?$AA@     0047c0cc     zone.obj
 0003:000100d4       ??_C@_0BL@JLLF@Cache_UnlinkLRU?3?5NULL?5link?$AA@ 0047c0d4     zone.obj
 0003:000100f0       ??_C@_0BL@GBHN@Cache_MakeLRU?3?5active?5link?$AA@ 0047c0f0     zone.obj
 0003:0001010c       ??_C@_0CN@GMNE@Cache_TryAlloc?3?5?$CFi?5is?5greater?5th@ 0047c10c     zone.obj
 0003:0001013c       ??_C@_0BL@KLG@?$CF4?41f?5megabyte?5data?5cache?6?$AA@ 0047c13c     zone.obj
 0003:00010158       ??_C@_05PNFO@flush?$AA@    0047c158     zone.obj
 0003:00010160       ??_C@_0BK@OIFM@Cache_Free?3?5not?5allocated?$AA@ 0047c160     zone.obj
 0003:0001017c       ??_C@_0BL@FOPA@Cache_Alloc?3?5out?5of?5memory?$AA@ 0047c17c     zone.obj
 0003:00010198       ??_C@_0BF@PLBC@Cache_Alloc?3?5size?5?$CFi?$AA@ 0047c198     zone.obj
 0003:000101b0       ??_C@_0BP@FNNI@Cache_Alloc?3?5already?5allocated?$AA@ 0047c1b0     zone.obj
 0003:000101d0       ??_C@_04GIMO@zone?$AA@     0047c1d0     zone.obj
 0003:000101d8       ??_C@_0DH@KMDM@Memory_Init?3?5you?5must?5specify?5a?5@ 0047c1d8     zone.obj
 0003:00010210       ??_C@_05ENPO@?9zone?$AA@   0047c210     zone.obj
 0003:00010250       _d_sdivzstepu              0047c250     d_varsa.obj
 0003:00010254       _d_tdivzstepu              0047c254     d_varsa.obj
 0003:00010258       _d_zistepu                 0047c258     d_varsa.obj
 0003:0001025c       _d_sdivzstepv              0047c25c     d_varsa.obj
 0003:00010260       _d_tdivzstepv              0047c260     d_varsa.obj
 0003:00010264       _d_zistepv                 0047c264     d_varsa.obj
 0003:00010268       _d_sdivzorigin             0047c268     d_varsa.obj
 0003:0001026c       _d_tdivzorigin             0047c26c     d_varsa.obj
 0003:00010270       _d_ziorigin                0047c270     d_varsa.obj
 0003:00010274       _sadjust                   0047c274     d_varsa.obj
 0003:00010278       _tadjust                   0047c278     d_varsa.obj
 0003:0001027c       _bbextents                 0047c27c     d_varsa.obj
 0003:00010280       _bbextentt                 0047c280     d_varsa.obj
 0003:00010284       _cacheblock                0047c284     d_varsa.obj
 0003:00010288       _cachewidth                0047c288     d_varsa.obj
 0003:0001028c       _d_viewbuffer              0047c28c     d_varsa.obj
 0003:00010290       _d_pzbuffer                0047c290     d_varsa.obj
 0003:00010294       _d_zrowbytes               0047c294     d_varsa.obj
 0003:00010298       _d_zwidth                  0047c298     d_varsa.obj
 0003:0001029c       izi                        0047c29c     d_varsa.obj
 0003:000102a0       s                          0047c2a0     d_varsa.obj
 0003:000102a4       t                          0047c2a4     d_varsa.obj
 0003:000102a8       snext                      0047c2a8     d_varsa.obj
 0003:000102ac       tnext                      0047c2ac     d_varsa.obj
 0003:000102b0       sfracf                     0047c2b0     d_varsa.obj
 0003:000102b4       tfracf                     0047c2b4     d_varsa.obj
 0003:000102b8       pbase                      0047c2b8     d_varsa.obj
 0003:000102bc       zi8stepu                   0047c2bc     d_varsa.obj
 0003:000102c0       sdivz8stepu                0047c2c0     d_varsa.obj
 0003:000102c4       tdivz8stepu                0047c2c4     d_varsa.obj
 0003:000102c8       zi16stepu                  0047c2c8     d_varsa.obj
 0003:000102cc       sdivz16stepu               0047c2cc     d_varsa.obj
 0003:000102d0       tdivz16stepu               0047c2d0     d_varsa.obj
 0003:000102d4       spancountminus1            0047c2d4     d_varsa.obj
 0003:000102d8       pz                         0047c2d8     d_varsa.obj
 0003:000102dc       izistep                    0047c2dc     d_varsa.obj
 0003:000102e0       reciprocal_table_16        0047c2e0     d_varsa.obj
 0003:00010318       entryvec_table_16          0047c318     d_varsa.obj
 0003:00010358       DP_Count                   0047c358     d_varsa.obj
 0003:0001035c       DP_u                       0047c35c     d_varsa.obj
 0003:00010360       DP_v                       0047c360     d_varsa.obj
 0003:00010364       DP_32768                   0047c364     d_varsa.obj
 0003:00010368       DP_Color                   0047c368     d_varsa.obj
 0003:0001036c       DP_Pix                     0047c36c     d_varsa.obj
 0003:00010370       DP_EntryTable              0047c370     d_varsa.obj
 0003:00010380       advancetable               0047c380     d_varsa.obj
 0003:00010388       sstep                      0047c388     d_varsa.obj
 0003:0001038c       tstep                      0047c38c     d_varsa.obj
 0003:00010390       pspantemp                  0047c390     d_varsa.obj
 0003:00010394       counttemp                  0047c394     d_varsa.obj
 0003:00010398       jumptemp                   0047c398     d_varsa.obj
 0003:0001039c       reciprocal_table           0047c39c     d_varsa.obj
 0003:000103b4       entryvec_table             0047c3b4     d_varsa.obj
 0003:000103d4       spr8entryvec_table         0047c3d4     d_varsa.obj
 0003:00010464       float_0                    0047c464     r_varsa.obj
 0003:00010468       float_1                    0047c468     r_varsa.obj
 0003:0001046c       float_minus_1              0047c46c     r_varsa.obj
 0003:00010470       float_particle_z_clip      0047c470     r_varsa.obj
 0003:00010474       float_point5               0047c474     r_varsa.obj
 0003:00010478       fp_1m                      0047c478     r_varsa.obj
 0003:0001047c       fp_1m_minus_1              0047c47c     r_varsa.obj
 0003:00010480       fp_64k                     0047c480     r_varsa.obj
 0003:00010484       fp_8                       0047c484     r_varsa.obj
 0003:00010488       fp_16                      0047c488     r_varsa.obj
 0003:0001048c       fp_64kx64k                 0047c48c     r_varsa.obj
 0003:00010490       FloatZero                  0047c490     r_varsa.obj
 0003:00010494       Float2ToThe31nd            0047c494     r_varsa.obj
 0003:00010498       FloatMinus2ToThe31nd       0047c498     r_varsa.obj
 0003:0001049c       _r_bmodelactive            0047c49c     r_varsa.obj
 0003:000105ac       ceil_cw                    0047c5ac     sys_wina.obj
 0003:000105b0       single_cw                  0047c5b0     sys_wina.obj
 0003:000105b4       full_cw                    0047c5b4     sys_wina.obj
 0003:000105b8       cw                         0047c5b8     sys_wina.obj
 0003:000105bc       pushed_cw                  0047c5bc     sys_wina.obj
 0003:000105c8       __MGL_dispDCList           0047c5c8     mgllt:mglwin.obj
 0003:000105cc       __MGL_winDCList            0047c5cc     mgllt:mglwin.obj
 0003:000105d0       __MGL_memDCList            0047c5d0     mgllt:mglwin.obj
 0003:00010608       __MGL_hwndMain             0047c608     mgllt:mglwin.obj
 0003:0001060c       __MGL_hwndFullScreen       0047c60c     mgllt:mglwin.obj
 0003:00010610       __MGL_hwndUser             0047c610     mgllt:mglwin.obj
 0003:00010614       __MGL_hInst                0047c614     mgllt:mglwin.obj
 0003:00010618       __MGL_userEventProc        0047c618     mgllt:mglwin.obj
 0003:0001061c       __DD_orgWinProc            0047c61c     mgllt:mglwin.obj
 0003:00010620       __MGL_biosSel              0047c620     mgllt:mglwin.obj
 0003:00010624       __MGL_rbufLen              0047c624     mgllt:mglwin.obj
 0003:00010628       __MGL_haveWinDirect        0047c628     mgllt:mglwin.obj
 0003:0001062c       __MGL_fullScreen           0047c62c     mgllt:mglwin.obj
 0003:00010630       __MGL_winDirectMode        0047c630     mgllt:mglwin.obj
 0003:00010634       __MGL_isBackground         0047c634     mgllt:mglwin.obj
 0003:00010638       __DD_szWinClassName        0047c638     mgllt:mglwin.obj
 0003:0001064c       __MGL_lpDD                 0047c64c     mgllt:mglwin.obj
 0003:00010650       __MGL_numDDSurf            0047c650     mgllt:mglwin.obj
 0003:00010654       __MGL_lpPrimary            0047c654     mgllt:mglwin.obj
 0003:00010658       __MGL_lpOffscreen          0047c658     mgllt:mglwin.obj
 0003:00010660       __MGL_lpSurf               0047c660     mgllt:mglwin.obj
 0003:00010680       __MGL_lpSurface            0047c680     mgllt:mglwin.obj
 0003:000106a0       __MGL_lpActive             0047c6a0     mgllt:mglwin.obj
 0003:000106a4       __MGL_lpPalette            0047c6a4     mgllt:mglwin.obj
 0003:000106a8       _szAutoPlayKey             0047c6a8     mgllt:mglwin.obj
 0003:000106ac       _szAutoPlayValue           0047c6ac     mgllt:mglwin.obj
 0003:00010ce8       __MGL_dcPtr                0047cce8     mgllt:mgraph.obj
 0003:00010cec       __MGL_bufSize              0047ccec     mgllt:mgraph.obj
 0003:00010cf0       __MGL_modeTable            0047ccf0     mgllt:mgraph.obj
 0003:00010d48       __MGL_wdDriver             0047cd48     mgllt:mgraph.obj
 0003:00010d4c       __MGL_fopen                0047cd4c     mgllt:mgraph.obj
 0003:00010d50       __MGL_fclose               0047cd50     mgllt:mgraph.obj
 0003:00010d54       __MGL_fseek                0047cd54     mgllt:mgraph.obj
 0003:00010d58       __MGL_ftell                0047cd58     mgllt:mgraph.obj
 0003:00010d5c       __MGL_fread                0047cd5c     mgllt:mgraph.obj
 0003:00010d60       __MGL_fwrite               0047cd60     mgllt:mgraph.obj
 0003:00010d68       __MGL_pixelFormats         0047cd68     mgllt:mgraph.obj
 0003:00010e88       __MGL_driverTable          0047ce88     mgllt:mgraph.obj
 0003:00012100       _DDRAW8_driver             0047e100     mgllt:ddraw8.obj
 0003:000124c0       _ACCEL8_driver             0047e4c0     mgllt:accel8.obj
 0003:00012880       _LINEAR8_driver            0047e880     mgllt:linear8.obj
 0003:00012c40       _VGA8_driver               0047ec40     mgllt:vga8.obj
 0003:00012d28       _PACKED8_driver            0047ed28     mgllt:pack8.obj
 0003:00013bb8       _WINDC_driver              0047fbb8     mgllt:windc.obj
 0003:00013c70       __MGL_def_cursor           0047fc70     mgllt:cursor.obj
 0003:000140ac       _useVFlat                  004800ac     mgllt:svga.obj
 0003:000140b0       _setBank20                 004800b0     mgllt:svga.obj
 0003:000140b4       _setCRT20                  004800b4     mgllt:svga.obj
 0003:000140b8       _setPal20                  004800b8     mgllt:svga.obj
 0003:00014250       __VGA4_defPal              00480250     mgllt:vgapal.obj
 0003:00014290       __VGA8_defPal              00480290     mgllt:vgapal.obj
 0003:000146c0       __MGL_halftonePal          004806c0     mgllt:halftone.obj
 0003:00014d0c       _VBE_MMIOSel               00480d0c     mgllt:vesavbe.obj
 0003:00014e40       __fltused                  00480e40     LIBC:fpinit.obj
 0003:00014e44       __ldused                   00480e44     LIBC:fpinit.obj
 0003:00014e48       __FPinit                   00480e48     LIBC:fpinit.obj
 0003:00014e4c       __FPmtinit                 00480e4c     LIBC:fpinit.obj
 0003:00014e50       __FPmtterm                 00480e50     LIBC:fpinit.obj
 0003:00014e80       __pctype                   00480e80     LIBC:ctype.obj
 0003:00014e84       __pwctype                  00480e84     LIBC:ctype.obj
 0003:00014e88       __ctype                    00480e88     LIBC:ctype.obj
 0003:0001508c       ___mb_cur_max              0048108c     LIBC:nlsdata1.obj
 0003:00015090       ___decimal_point           00481090     LIBC:nlsdata1.obj
 0003:00015094       ___decimal_point_length    00481094     LIBC:nlsdata1.obj
 0003:00015098       ___lc_time_curr            00481098     LIBC:strftime.obj
 0003:000150a0       ___lc_time_c               004810a0     LIBC:strftime.obj
 0003:00015150       __half                     00481150     LIBC:pow.obj
 0003:00015178       __aexit_rtn                00481178     LIBC:wincrt0.obj
 0003:0001517c       ___app_type                0048117c     LIBC:wincrt0.obj
 0003:00015180       __cfltcvt_tab              00481180     LIBC:cmiscdat.obj
 0003:00015198       __iob                      00481198     LIBC:_file.obj
 0003:00015418       ___nullstring              00481418     LIBC:output.obj
 0003:0001541c       ___wnullstring             0048141c     LIBC:output.obj
 0003:00015420       ___badioinfo               00481420     LIBC:ioinit.obj
 0003:00015510       __d_inf                    00481510     LIBC:util.obj
 0003:00015518       __d_ind                    00481518     LIBC:util.obj
 0003:00015520       __d_max                    00481520     LIBC:util.obj
 0003:00015528       __d_min                    00481528     LIBC:util.obj
 0003:00015530       __d_mzero                  00481530     LIBC:util.obj
 0003:00015550       __timezone                 00481550     LIBC:timeset.obj
 0003:00015554       __daylight                 00481554     LIBC:timeset.obj
 0003:00015558       __dstbias                  00481558     LIBC:timeset.obj
 0003:000155dc       __tzname                   004815dc     LIBC:timeset.obj
 0003:00015614       __NLG_Destination          00481614     LIBC:exsup.obj
 0003:00015624       __amblksiz                 00481624     LIBC:heapinit.obj
 0003:00015628       ___sbh_threshold           00481628     LIBC:sbheap.obj
 0003:00015630       __infinity                 00481630     LIBC:87tran.obj
 0003:0001563a       __minfinity                0048163a     LIBC:87tran.obj
 0003:00015644       __logemax                  00481644     LIBC:87tran.obj
 0003:00015674       __OP_EXPjmptab             00481674     LIBC:87tran.obj
 0003:000156a0       __indefinite               004816a0     LIBC:87disp.obj
 0003:000156aa       __piby2                    004816aa     LIBC:87disp.obj
 0003:000156bc       __cpower                   004816bc     LIBC:87disp.obj
 0003:00015838       __sys_errlist              00481838     LIBC:syserr.obj
 0003:000158e8       __sys_nerr                 004818e8     LIBC:syserr.obj
 0003:000158f0       __XcptActTab               004818f0     LIBC:winxfltr.obj
 0003:00015968       __First_FPE_Indx           00481968     LIBC:winxfltr.obj
 0003:0001596c       __Num_FPE                  0048196c     LIBC:winxfltr.obj
 0003:00015970       __XcptActTabCount          00481970     LIBC:winxfltr.obj
 0003:00015974       __fpecode                  00481974     LIBC:winxfltr.obj
 0003:00015a08       __tmpoff                   00481a08     LIBC:rmtmp.obj
 0003:00015a0c       __tempoff                  00481a0c     LIBC:rmtmp.obj
 0003:00015a40       __matherr_flag             00481a40     LIBC:matherr.obj
 0003:00015a44       __lpdays                   00481a44     LIBC:days.obj
 0003:00015a78       __days                     00481a78     LIBC:days.obj
 0003:00015d08       __pow10pos                 00481d08     LIBC:constpow.obj
 0003:00015e68       __pow10neg                 00481e68     LIBC:constpow.obj
 0003:00016054       _source_data               00482054     cl_main.obj
 0003:00017250       ??_C@_00A@?$AA@            00483250     cmd.obj
 0003:00017f44       _msg_suppress_1            00483f44     common.obj
 0003:00017f48       _com_gamedir               00483f48     common.obj
 0003:00017fc8       _com_searchpaths           00483fc8     common.obj
 0003:00017fcc       _com_verifypaths           00483fcc     common.obj
 0003:0001c004       _con_text                  00488004     console.obj
 0003:0001c008       _cl_inconsole              00488008     console.obj
 0003:0001c08c       _num_rand                  0048808c     host_cmd.obj
 0003:0001c0b4       _next_rand                 004880b4     host_cmd.obj
 0003:0001c154       _m_history_x_wseq          00488154     in_win.obj
 0003:0001c158       _m_history_y_wseq          00488158     in_win.obj
 0003:0001c15c       _m_history_x_rseq          0048815c     in_win.obj
 0003:0001c160       _m_history_y_rseq          00488160     in_win.obj
 0003:0001c164       _wheel_up_count            00488164     in_win.obj
 0003:0001c168       _wheel_dn_count            00488168     in_win.obj
 0003:0001c170       _shift_down                00488170     keys.obj
 0003:0001c174       _ctrl_down                 00488174     keys.obj
 0003:0001c178       _alt_down                  00488178     keys.obj
 0003:0001c17c       _edit_line                 0048817c     keys.obj
 0003:0001c180       _history_line              00488180     keys.obj
 0003:0001c184       _team_message              00488184     keys.obj
 0003:0001c18c       _numlocations              0048818c     location.obj
 0003:0001c190       _vec3_origin               00488190     mathlib.obj
 0003:0001c19c       _mat_time                  0048819c     matrix.obj
 0003:0001c1a0       _step                      004881a0     matrix.obj
 0003:0001c1a4       _m_serverInfoMessage       004881a4     menu.obj
 0003:0001c1a8       _searchComplete            004881a8     menu.obj
 0003:0001c5c0       _packetsSent               004885c0     net_dgrm.obj
 0003:0001c5c4       _packetsReSent             004885c4     net_dgrm.obj
 0003:0001c5c8       _packetsReceived           004885c8     net_dgrm.obj
 0003:0001c5cc       _receivedDuplicateCount    004885cc     net_dgrm.obj
 0003:0001c5d0       _shortPacketCount          004885d0     net_dgrm.obj
 0003:0001c5d4       _banAddr                   004885d4     net_dgrm.obj
 0003:0001c5dc       _localconnectpending       004885dc     net_loop.obj
 0003:0001c5e0       _loop_client               004885e0     net_loop.obj
 0003:0001c5e4       _loop_server               004885e4     net_loop.obj
 0003:0001c5f8       _net_activeSockets         004885f8     net_main.obj
 0003:0001c5fc       _net_freeSockets           004885fc     net_main.obj
 0003:0001c600       _net_numsockets            00488600     net_main.obj
 0003:0001c604       _serialAvailable           00488604     net_main.obj
 0003:0001c608       _ipxAvailable              00488608     net_main.obj
 0003:0001c60c       _tcpipAvailable            0048860c     net_main.obj
 0003:0001c614       _slistInProgress           00488614     net_main.obj
 0003:0001c618       _slistSilent               00488618     net_main.obj
 0003:0001c61c       _net_activeconnections     0048861c     net_main.obj
 0003:0001c620       _messagesSent              00488620     net_main.obj
 0003:0001c624       _messagesReceived          00488624     net_main.obj
 0003:0001c628       _unreliableMessagesSent    00488628     net_main.obj
 0003:0001c62c       _unreliableMessagesReceived 0048862c     net_main.obj
 0003:0001c630       _rcon_active               00488630     net_main.obj
 0003:0001c634       _configRestored            00488634     net_main.obj
 0003:0001c638       _recording                 00488638     net_main.obj
 0003:0001c63c       _hostCacheCount            0048863c     net_main.obj
 0003:0001c69c       _winsock_initialized       0048869c     net_wins.obj
 0003:0001d6e8       _pq_cheatfreeEnabled       004896e8     security.obj
 0003:0001d6ec       _pq_cheatfree              004896ec     security.obj
 0003:0001d6f0       _qsmackActive              004896f0     security.obj
 0003:0001d6f4       _Security_InitCRC          004896f4     security.obj
 0003:0001d6f8       _Security_SetSeed          004896f8     security.obj
 0003:0001d6fc       _Security_Decode           004896fc     security.obj
 0003:0001d700       _Security_Encode           00489700     security.obj
 0003:0001d704       _Security_CRC              00489704     security.obj
 0003:0001d708       _Security_CRC_File         00489708     security.obj
 0003:0001d70c       _Security_Verify           0048970c     security.obj
 0003:0001d718       _snd_blocked               00489718     snd_dma.obj
 0003:0001d71c       _snd_initialized           0048971c     snd_dma.obj
 0003:0001d720       _shm                       00489720     snd_dma.obj
 0003:0001d724       _sound_started             00489724     snd_dma.obj
 0003:0001d728       _fakedma                   00489728     snd_dma.obj
 0003:0001ea98       _vid_default               0048aa98     vid_win.obj
 0003:0001ea9c       _mgldc                     0048aa9c     vid_win.obj
 0003:0001eaa0       _memdc                     0048aaa0     vid_win.obj
 0003:0001eaa4       _dibdc                     0048aaa4     vid_win.obj
 0003:0001eaa8       _windc                     0048aaa8     vid_win.obj
 0003:00020ce0       ___fastflag                0048cce0     LIBC:fpinit.obj
 0003:00020ce4       __adjust_fdiv              0048cce4     LIBC:fpinit.obj
 0003:00020d28       _errno                     0048cd28     LIBC:crt0dat.obj
 0003:00020d2c       __doserrno                 0048cd2c     LIBC:crt0dat.obj
 0003:00020d30       __umaskval                 0048cd30     LIBC:crt0dat.obj
 0003:00020d34       __osver                    0048cd34     LIBC:crt0dat.obj
 0003:00020d38       __winver                   0048cd38     LIBC:crt0dat.obj
 0003:00020d3c       __winmajor                 0048cd3c     LIBC:crt0dat.obj
 0003:00020d40       __winminor                 0048cd40     LIBC:crt0dat.obj
 0003:00020d44       ___argc                    0048cd44     LIBC:crt0dat.obj
 0003:00020d48       ___argv                    0048cd48     LIBC:crt0dat.obj
 0003:00020d4c       ___wargv                   0048cd4c     LIBC:crt0dat.obj
 0003:00020d50       __environ                  0048cd50     LIBC:crt0dat.obj
 0003:00020d54       ___initenv                 0048cd54     LIBC:crt0dat.obj
 0003:00020d58       __wenviron                 0048cd58     LIBC:crt0dat.obj
 0003:00020d5c       ___winitenv                0048cd5c     LIBC:crt0dat.obj
 0003:00020d60       __pgmptr                   0048cd60     LIBC:crt0dat.obj
 0003:00020d64       __wpgmptr                  0048cd64     LIBC:crt0dat.obj
 0003:00020d68       __exitflag                 0048cd68     LIBC:crt0dat.obj
 0003:00020d6c       __C_Termination_Done       0048cd6c     LIBC:crt0dat.obj
 0003:00020d70       __C_Exit_Done              0048cd70     LIBC:crt0dat.obj
 0003:00020d74       __aenvptr                  0048cd74     LIBC:wincrt0.obj
 0003:00020d78       __wenvptr                  0048cd78     LIBC:wincrt0.obj
 0003:00020d7c       ___error_mode              0048cd7c     LIBC:wincrt0.obj
 0003:00020db0       __cflush                   0048cdb0     LIBC:_file.obj
 0003:00020db4       __stdbuf                   0048cdb4     LIBC:_sftbuf.obj
 0003:00020dc4       ___lc_handle               0048cdc4     LIBC:nlsdata2.obj
 0003:00020ddc       ___lc_codepage             0048cddc     LIBC:nlsdata2.obj
 0003:00020de0       ___lc_collate_cp           0048cde0     LIBC:nlsdata2.obj
 0003:00020f00       __newmode                  0048cf00     LIBC:_newmode.obj
 0003:00020f04       ?_pnhHeap@@3P6AHI@ZA       0048cf04     LIBC:handler.obj
 0003:00020f08       __fmode                    0048cf08     LIBC:txtmode.obj
 0003:00020f0c       __pxcptinfoptrs            0048cf0c     LIBC:winxfltr.obj
 0003:00021018       __adbgmsg                  0048d018     LIBC:crt0msg.obj
 0003:0002101c       __commode                  0048d01c     LIBC:ncommode.obj
 0003:00021020       __old_pfxlen               0048d020     LIBC:rmtmp.obj
 0003:0002106c       _hunk_base                 0048d06c     <common>
 0003:00021070       _hunk_tempactive           0048d070     <common>
 0003:00021074       _mainzone                  0048d074     <common>
 0003:00021078       _hunk_low_used             0048d078     <common>
 0003:0002107c       _hunk_size                 0048d07c     <common>
 0003:00021080       _hunk_high_used            0048d080     <common>
 0003:000210a0       _cache_head                0048d0a0     <common>
 0003:000210c8       _hunk_tempmark             0048d0c8     <common>
 0003:000210cc       _wad_lumps                 0048d0cc     <common>
 0003:000210d0       _wad_base                  0048d0d0     <common>
 0003:000210d4       _wad_numlumps              0048d0d4     <common>
 0003:000210d8       _v_dmg_time                0048d0d8     <common>
 0003:000210dc       _v_dmg_roll                0048d0dc     <common>
 0003:000210e0       _forward                   0048d0e0     <common>
 0003:000210f0       _right                     0048d0f0     <common>
 0003:000210fc       _v_dmg_pitch               0048d0fc     <common>
 0003:00021100       _up                        0048d100     <common>
 0003:00021120       _gammatable                0048d120     <common>
 0003:00021220       _vid_testendtime           0048d220     <common>
 0003:00021228       _window_width              0048d228     <common>
 0003:0002122c       _vid_realmode              0048d22c     <common>
 0003:00021230       _aPage                     0048d230     <common>
 0003:00021234       _WindowStyle               0048d234     <common>
 0003:00021238       _DIBHeight                 0048d238     <common>
 0003:0002123c       _mode                      0048d23c     <common>
 0003:00021240       _DIBWidth                  0048d240     <common>
 0003:00021244       _dibonly                   0048d244     <common>
 0003:00021248       _window_y                  0048d248     <common>
 0003:0002124c       _window_x                  0048d24c     <common>
 0003:00021250       _window_rect               0048d250     <common>
 0003:00021260       _d_8to16table              0048d260     <common>
 0003:00021460       _vid_curpal                0048d460     <common>
 0003:00021760       _vid_testingmode           0048d760     <common>
 0003:00021764       _vPage                     0048d764     <common>
 0003:00021768       _window_center_x           0048d768     <common>
 0003:0002176c       _window_center_y           0048d76c     <common>
 0003:00021770       _window_height             0048d770     <common>
 0003:00021774       _ExWindowStyle             0048d774     <common>
 0003:00021780       _WindowRect                0048d780     <common>
 0003:00021790       _DDActive                  0048d790     <common>
 0003:00021794       _mainwindow                0048d794     <common>
 0003:00021798       _WinNT                     0048d798     <common>
 0003:0002179c       _sys_checksum              0048d79c     <common>
 0003:000217a0       _global_hInstance          0048d7a0     <common>
 0003:000217a4       _Minimized                 0048d7a4     <common>
 0003:000217a8       _ActiveApp                 0048d7a8     <common>
 0003:000217c0       _sys_handles               0048d7c0     <common>
 0003:000217e8       _hwnd_dialog               0048d7e8     <common>
 0003:000217ec       _global_nCmdShow           0048d7ec     <common>
 0003:000217f0       _hinput                    0048d7f0     <common>
 0003:00021800       _argv                      0048d800     <common>
 0003:000218c8       _isDedicated               0048d8c8     <common>
 0003:000218cc       _houtput                   0048d8cc     <common>
 0003:000218d0       _hlock                     0048d8d0     <common>
 0003:000218d4       _angles                    0048d8d4     <common>
 0003:000218d8       _origin                    0048d8d8     <common>
 0003:000218e0       _cmd                       0048d8e0     <common>
 0003:000218f8       _onground                  0048d8f8     <common>
 0003:000218fc       _sv_player                 0048d8fc     <common>
 0003:00021900       _wishdir                   0048d900     <common>
 0003:0002190c       _wishspeed                 0048d90c     <common>
 0003:00021910       _velocity                  0048d910     <common>
 0003:00021914       _c_yes                     0048d914     <common>
 0003:00021918       _c_no                      0048d918     <common>
 0003:00021920       _svs                       0048d920     <common>
 0003:00021940       _localmodels               0048d940     <common>
 0003:00021e40       _sv                        0048de40     <common>
 0003:00025838       _fatbytes                  00491838     <common>
 0003:00025840       _fatpvs                    00491840     <common>
 0003:00025c40       _pDSBuf                    00491c40     <common>
 0003:00025c44       _pDS                       00491c44     <common>
 0003:00025c48       _hWaveOut                  00491c48     <common>
 0003:00025c4c       _hData                     00491c4c     <common>
 0003:00025c50       _lpWaveHdr                 00491c50     <common>
 0003:00025c60       _mmstarttime               00491c60     <common>
 0003:00025c6c       _hInstDS                   00491c6c     <common>
 0003:00025c70       _gSndBufSize               00491c70     <common>
 0003:00025c74       _lpData                    00491c74     <common>
 0003:00025c78       _pDSPBuf                   00491c78     <common>
 0003:00025c7c       _pDirectSoundCreate        00491c7c     <common>
 0003:00025c80       _hWaveHdr                  00491c80     <common>
 0003:00025c84       _snd_linear_count          00491c84     <common>
 0003:00025ca0       _paintbuffer               00491ca0     <common>
 0003:00026ca0       _snd_out                   00492ca0     <common>
 0003:00026cc0       _snd_scaletable            00492cc0     <common>
 0003:0002ecc0       _snd_vol                   0049acc0     <common>
 0003:0002ecc4       _snd_p                     0049acc4     <common>
 0003:0002ecc8       _iff_end                   0049acc8     <common>
 0003:0002eccc       _last_chunk                0049accc     <common>
 0003:0002ecd0       _data_p                    0049acd0     <common>
 0003:0002ecd4       _iff_chunk_len             0049acd4     <common>
 0003:0002ecd8       _iff_data                  0049acd8     <common>
 0003:0002ecdc       _volume_changed            0049acdc     <common>
 0003:0002ece0       _listener_forward          0049ace0     <common>
 0003:0002ecec       _soundtime                 0049acec     <common>
 0003:0002ecf0       _paintedtime               0049acf0     <common>
 0003:0002ed00       _ambient_sfx               0049ad00     <common>
 0003:0002ed10       _known_sfx                 0049ad10     <common>
 0003:0002ed20       _listener_right            0049ad20     <common>
 0003:0002ed40       _sn                        0049ad40     <common>
 0003:0002ed68       _total_channels            0049ad68     <common>
 0003:0002ed70       _listener_origin           0049ad70     <common>
 0003:0002ed80       _listener_up               0049ad80     <common>
 0003:0002ed8c       _num_sfx                   0049ad8c     <common>
 0003:0002eda0       _channels                  0049ada0     <common>
 0003:000307a0       _net_seed                  0049c7a0     <common>
 0003:000307a4       _qsmackAddr                0049c7a4     <common>
 0003:000307a8       _oldfov                    0049c7a8     <common>
 0003:000307ac       _scr_erase_center          0049c7ac     <common>
 0003:000307b0       _clearnotify               0049c7b0     <common>
 0003:000307b4       _scr_net                   0049c7b4     <common>
 0003:000307b8       _scr_ram                   0049c7b8     <common>
 0003:000307bc       _scr_drawdialog            0049c7bc     <common>
 0003:000307c0       _vid                       0049c7c0     <common>
 0003:00030804       _block_drawing             0049c804     <common>
 0003:00030808       _scr_copyeverything        0049c808     <common>
 0003:0003080c       _scr_skipupdate            0049c80c     <common>
 0003:00030820       _scr_centerstring          0049c820     <common>
 0003:00030c20       _scr_centertime_off        0049cc20     <common>
 0003:00030c24       _scr_centertime_start      0049cc24     <common>
 0003:00030c28       _scr_notifystring          0049cc28     <common>
 0003:00030c2c       _clearconsole              0049cc2c     <common>
 0003:00030c30       _scr_conlines              0049cc30     <common>
 0003:00030c34       _scr_con_current           0049cc34     <common>
 0003:00030c40       _scr_vrect                 0049cc40     <common>
 0003:00030c54       _scr_turtle                0049cc54     <common>
 0003:00030c58       _scr_copytop               0049cc58     <common>
 0003:00030c5c       _scr_erase_lines           0049cc5c     <common>
 0003:00030c60       _oldscreensize             0049cc60     <common>
 0003:00030c64       _scr_disabled_time         0049cc64     <common>
 0003:00030c68       _pconupdate                0049cc68     <common>
 0003:00030c6c       _scr_fullupdate            0049cc6c     <common>
 0003:00030c70       _scr_disabled_for_loading  0049cc70     <common>
 0003:00030c74       _scr_center_lines          0049cc74     <common>
 0003:00030c78       _scr_initialized           0049cc78     <common>
 0003:00030c7c       _scr_drawloading           0049cc7c     <common>
 0003:00030c80       _sb_armor                  0049cc80     <common>
 0003:00030ca0       _sb_weapons                0049cca0     <common>
 0003:00030d80       _rsb_teambord              0049cd80     <common>
 0003:00030da0       _sb_faces                  0049cda0     <common>
 0003:00030dd8       _sb_updates                0049cdd8     <common>
 0003:00030de0       _sb_sigil                  0049cde0     <common>
 0003:00030e00       _sb_items                  0049ce00     <common>
 0003:00030e80       _sb_face_quad              0049ce80     <common>
 0003:00030e84       _sb_sbar                   0049ce84     <common>
 0003:00030e88       _hsb_items                 0049ce88     <common>
 0003:00030ea0       _sb_nums                   0049cea0     <common>
 0003:00030ef8       _scoreboardlines           0049cef8     <common>
 0003:00030f00       _sb_ammo                   0049cf00     <common>
 0003:00030f10       _sb_slash                  0049cf10     <common>
 0003:00030f14       _sb_colon                  0049cf14     <common>
 0003:00030f18       _sb_lines                  0049cf18     <common>
 0003:00030f1c       _sb_face_invuln            0049cf1c     <common>
 0003:00030f20       _sb_face_invis             0049cf20     <common>
 0003:00030f24       _sb_showscores             0049cf24     <common>
 0003:00030f28       _sb_ibar                   0049cf28     <common>
 0003:00030f30       _rsb_invbar                0049cf30     <common>
 0003:00030f38       _sb_scorebar               0049cf38     <common>
 0003:00030f40       _rsb_ammo                  0049cf40     <common>
 0003:00030f50       _rsb_items                 0049cf50     <common>
 0003:00030f60       _hsb_weapons               0049cf60     <common>
 0003:00031000       _fragsort                  0049d000     <common>
 0003:00031040       _rsb_weapons               0049d040     <common>
 0003:00031054       _sb_face_invis_invuln      0049d054     <common>
 0003:00031058       _r_numhblocks              0049d058     <common>
 0003:0003105c       _prowdestbase              0049d05c     <common>
 0003:00031060       _blocklights               0049d060     <common>
 0003:00031570       _lightleft                 0049d570     <common>
 0003:00031574       _r_source                  0049d574     <common>
 0003:00031578       _r_sourcemax               0049d578     <common>
 0003:0003157c       _lightdeltastep            0049d57c     <common>
 0003:00031580       _blocksize                 0049d580     <common>
 0003:00031584       _lightright                0049d584     <common>
 0003:00031588       _r_numvblocks              0049d588     <common>
 0003:000315a0       _r_drawsurf                0049d5a0     <common>
 0003:000315cc       _blockdivshift             0049d5cc     <common>
 0003:000315d0       _lightleftstep             0049d5d0     <common>
 0003:000315d4       _sourcetstep               0049d5d4     <common>
 0003:000315d8       _lightrightstep            0049d5d8     <common>
 0003:000315dc       _r_lightptr                0049d5dc     <common>
 0003:000315e0       _lightdelta                0049d5e0     <common>
 0003:000315e4       _r_lightwidth              0049d5e4     <common>
 0003:000315e8       _pbasesource               0049d5e8     <common>
 0003:000315ec       _surfrowbytes              0049d5ec     <common>
 0003:000315f0       _sourcesstep               0049d5f0     <common>
 0003:000315f4       _r_stepback                0049d5f4     <common>
 0003:000315f8       _blockdivmask              0049d5f8     <common>
 0003:00031600       _r_spritedesc              0049d600     <common>
 0003:00031634       _skytime                   0049d634     <common>
 0003:00031640       _bottomsky                 0049d640     <common>
 0003:000357c0       _skyspeed2                 004a17c0     <common>
 0003:000357c4       _r_skysource               004a17c4     <common>
 0003:000357e0       _bottommask                004a17e0     <common>
 0003:00039960       _r_skydirect               004a5960     <common>
 0003:00039964       _skyspeed                  004a5964     <common>
 0003:00039980       _newsky                    004a5980     <common>
 0003:00041980       _r_skymade                 004ad980     <common>
 0003:00041984       _r_numparticles            004ad984     <common>
 0003:00041988       _particles                 004ad988     <common>
 0003:0004198c       _free_particles            004ad98c     <common>
 0003:000419a0       _avelocities               004ad9a0     <common>
 0003:00042138       _active_particles          004ae138     <common>
 0003:00042140       _r_pright                  004ae140     <common>
 0003:00042150       _r_ppn                     004ae150     <common>
 0003:00042160       _r_pup                     004ae160     <common>
 0003:00042180       _screenedge                004ae180     <common>
 0003:000421d0       _r_outofsurfaces           004ae1d0     <common>
 0003:000421d4       _pbtofpolys                004ae1d4     <common>
 0003:000421d8       _r_viewleaf                004ae1d8     <common>
 0003:000421dc       _dp_time2                  004ae1dc     <common>
 0003:000421e0       _dp_time1                  004ae1e0     <common>
 0003:000421e4       _yOrigin                   004ae1e4     <common>
 0003:000421e8       _r_dowarpold               004ae1e8     <common>
 0003:000421ec       _aliasyscale               004ae1ec     <common>
 0003:000421f0       _r_drawpolys               004ae1f0     <common>
 0003:000421f4       _c_surf                    004ae1f4     <common>
 0003:000421f8       _r_surfsonstack            004ae1f8     <common>
 0003:00042200       _r_refdef                  004ae200     <common>
 0003:00042294       _r_drawculledpolys         004ae294     <common>
 0003:00042298       _r_stack_start             004ae298     <common>
 0003:0004229c       _r_viewchanged             004ae29c     <common>
 0003:000422a0       _xscaleshrink              004ae2a0     <common>
 0003:000422a4       _xscaleinv                 004ae2a4     <common>
 0003:000422a8       _aliasxcenter              004ae2a8     <common>
 0003:000422ac       _r_resfudge                004ae2ac     <common>
 0003:000422b0       _pixelAspect               004ae2b0     <common>
 0003:000422b4       _db_time1                  004ae2b4     <common>
 0003:000422b8       _db_time2                  004ae2b8     <common>
 0003:000422bc       _de_time2                  004ae2bc     <common>
 0003:000422c0       _viewlightvec              004ae2c0     <common>
 0003:000422cc       _de_time1                  004ae2cc     <common>
 0003:000422d0       _r_maxedgesseen            004ae2d0     <common>
 0003:000422d4       _r_notexture_mip           004ae2d4     <common>
 0003:000422d8       _r_numallocatededges       004ae2d8     <common>
 0003:000422dc       _r_worldpolysbacktofront   004ae2dc     <common>
 0003:000422e0       _base_vright               004ae2e0     <common>
 0003:000422f0       _vpn                       004ae2f0     <common>
 0003:000422fc       _se_time1                  004ae2fc     <common>
 0003:00042300       _se_time2                  004ae300     <common>
 0003:00042304       _r_drawnpolycount          004ae304     <common>
 0003:00042308       _r_cnumsurfs               004ae308     <common>
 0003:00042310       _vup                       004ae310     <common>
 0003:0004231c       _xcenter                   004ae31c     <common>
 0003:00042320       _aliasxscale               004ae320     <common>
 0003:00042330       _base_vpn                  004ae330     <common>
 0003:0004233c       _r_maxsurfsseen            004ae33c     <common>
 0003:00042340       _yscaleinv                 004ae340     <common>
 0003:00042344       _r_aliastransition         004ae344     <common>
 0003:00042348       _d_spanpixcount            004ae348     <common>
 0003:00042350       _base_vup                  004ae350     <common>
 0003:0004235c       _r_time1                   004ae35c     <common>
 0003:00042360       _r_polycount               004ae360     <common>
 0003:00042364       _r_visframecount           004ae364     <common>
 0003:00042368       _verticalFieldOfView       004ae368     <common>
 0003:0004236c       _xscale                    004ae36c     <common>
 0003:00042370       _r_warpbuffer              004ae370     <common>
 0003:00042374       _yscale                    004ae374     <common>
 0003:00042378       _r_outofedges              004ae378     <common>
 0003:00042380       _r_frustum_indexes         004ae380     <common>
 0003:000423e0       _pfrustum_indexes          004ae3e0     <common>
 0003:000423f0       _ycenter                   004ae3f0     <common>
 0003:00042400       _r_origin                  004ae400     <common>
 0003:00042410       _vright                    004ae410     <common>
 0003:0004241c       _screenAspect              004ae41c     <common>
 0003:00042420       _r_dowarp                  004ae420     <common>
 0003:00042424       _dv_time1                  004ae424     <common>
 0003:00042428       _dv_time2                  004ae428     <common>
 0003:0004242c       _xOrigin                   004ae42c     <common>
 0003:00042430       _aliasycenter              004ae430     <common>
 0003:00042434       _r_oldviewleaf             004ae434     <common>
 0003:00042438       _r_clipflags               004ae438     <common>
 0003:0004243c       _rw_time1                  004ae43c     <common>
 0003:00042440       _rw_time2                  004ae440     <common>
 0003:00042444       _colormap                  004ae444     <common>
 0003:00042448       _numbtofpolys              004ae448     <common>
 0003:0004244c       _r_pcurrentvertbase        004ae44c     <common>
 0003:00042450       _r_wholepolycount          004ae450     <common>
 0003:00042454       _yscaleshrink              004ae454     <common>
 0003:00042460       _d_lightstylevalue         004ae460     <common>
 0003:00042860       _r_dlightframecount        004ae860     <common>
 0003:00042864       _r_pefragtopnode           004ae864     <common>
 0003:00042868       _lastlink                  004ae868     <common>
 0003:0004286c       _r_addent                  004ae86c     <common>
 0003:00042870       _r_emaxs                   004ae870     <common>
 0003:00042880       _r_emins                   004ae880     <common>
 0003:000428a0       _edge_head                 004ae8a0     <common>
 0003:000428c0       _newedges                  004ae8c0     <common>
 0003:000438c0       _edge_head_u_shift20       004af8c0     <common>
 0003:000438c4       _r_edges                   004af8c4     <common>
 0003:000438c8       _r_currentkey              004af8c8     <common>
 0003:000438cc       _surface_p                 004af8cc     <common>
 0003:000438d0       _edge_max                  004af8d0     <common>
 0003:000438e0       _edge_sentinel             004af8e0     <common>
 0003:00043900       _current_iv                004af900     <common>
 0003:00043904       _auxedges                  004af904     <common>
 0003:00043908       _edge_p                    004af908     <common>
 0003:0004390c       _fv                        004af90c     <common>
 0003:00043920       _edge_aftertail            004af920     <common>
 0003:00043940       _span_p                    004af940     <common>
 0003:00043960       _removeedges               004af960     <common>
 0003:00044960       _edge_tail_u_shift20       004b0960     <common>
 0003:00044964       _max_span_p                004b0964     <common>
 0003:00044968       _surf_max                  004b0968     <common>
 0003:0004496c       _surfaces                  004b096c     <common>
 0003:00044980       _edge_tail                 004b0980     <common>
 0003:000449a0       _c_faceclip                004b09a0     <common>
 0003:000449b0       _r_rightenter              004b09b0     <common>
 0003:000449c0       _r_rightexit               004b09c0     <common>
 0003:000449cc       _r_leftclipped             004b09cc     <common>
 0003:000449d0       _r_pedge                   004b09d0     <common>
 0003:000449d4       _r_ceilv1                  004b09d4     <common>
 0003:000449d8       _r_emitted                 004b09d8     <common>
 0003:000449e0       _r_polydesc                004b09e0     <common>
 0003:000449f0       _r_leftenter               004b09f0     <common>
 0003:00044a00       _sintable                  004b0a00     <common>
 0003:00046000       _intsintable               004b2000     <common>
 0003:00047600       _view_clipplanes           004b3600     <common>
 0003:00047660       _r_u1                      004b3660     <common>
 0003:00047664       _r_v1                      004b3664     <common>
 0003:00047668       _r_lastvertvalid           004b3668     <common>
 0003:0004766c       _r_rightclipped            004b366c     <common>
 0003:00047670       _r_leftexit                004b3670     <common>
 0003:0004767c       _r_nearzionly              004b367c     <common>
 0003:00047680       _r_lzi1                    004b3680     <common>
 0003:00047684       _r_nearzi                  004b3684     <common>
 0003:00047688       _cacheoffset               004b3688     <common>
 0003:00047690       _base_modelorg             004b3690     <common>
 0003:000476a0       _modelorg                  004b36a0     <common>
 0003:000476c0       _entity_rotation           004b36c0     <common>
 0003:000476e4       _r_currentbkey             004b36e4     <common>
 0003:000476e8       _insubmodel                004b36e8     <common>
 0003:000476f0       _r_entorigin               004b36f0     <common>
 0003:000476fc       _currententity             004b36fc     <common>
 0003:00047700       _r_worldmodelorg           004b3700     <common>
 0003:0004770c       _pfinalverts               004b370c     <common>
 0003:00047720       _r_affinetridesc           004b3720     <common>
 0003:00047744       _pauxverts                 004b3744     <common>
 0003:00047748       _a_skinwidth               004b3748     <common>
 0003:0004774c       _r_anumverts               004b374c     <common>
 0003:00047750       _r_amodels_drawn           004b3750     <common>
 0003:00047754       _paliashdr                 004b3754     <common>
 0003:00047758       _pmdl                      004b3758     <common>
 0003:0004775c       _acolormap                 004b375c     <common>
 0003:00047760       _r_ambientlight            004b3760     <common>
 0003:00047780       _aliastransform            004b3780     <common>
 0003:000477b0       _r_shadelight              004b37b0     <common>
 0003:000477b4       _r_apverts                 004b37b4     <common>
 0003:000477c0       _r_plightvec               004b37c0     <common>
 0003:000477e0       _pr_stack                  004b37e0     <common>
 0003:000478e0       _pr_xstatement             004b38e0     <common>
 0003:00047900       _localstack                004b3900     <common>
 0003:00049900       _pr_trace                  004b5900     <common>
 0003:00049904       _pr_depth                  004b5904     <common>
 0003:00049908       _pr_xfunction              004b5908     <common>
 0003:0004990c       _pr_argc                   004b590c     <common>
 0003:00049910       _localstack_used           004b5910     <common>
 0003:00049914       _pr_global_struct          004b5914     <common>
 0003:00049918       _pr_statements             004b5918     <common>
 0003:0004991c       _pr_edict_size             004b591c     <common>
 0003:00049920       _pr_globaldefs             004b5920     <common>
 0003:00049924       _pr_globals                004b5924     <common>
 0003:00049928       _progs                     004b5928     <common>
 0003:0004992c       _pr_fielddefs              004b592c     <common>
 0003:00049930       _pr_crc                    004b5930     <common>
 0003:00049934       _pr_strings                004b5934     <common>
 0003:00049938       _pr_functions              004b5938     <common>
 0003:0004993c       _c_notvis                  004b593c     <common>
 0003:00049940       _checkpvs                  004b5940     <common>
 0003:00049d40       _c_invis                   004b5d40     <common>
 0003:00049d60       _pr_string_temp            004b5d60     <common>
 0003:00049de0       _winsock_lib_initialized   004b5de0     <common>
 0003:00049e00       _winsockdata               004b5e00     <common>
 0003:00049fa0       _vcrSendMessage            004b5fa0     <common>
 0003:00049fb8       _GetModemConfig            004b5fb8     <common>
 0003:00049fc0       _newdata                   004b5fc0     <common>
 0003:00049fe0       _vcrGetMessage             004b5fe0     <common>
 0003:00049ff8       _GetComPortConfig          004b5ff8     <common>
 0003:00049ffc       _net_driverlevel           004b5ffc     <common>
 0003:0004a000       _net_time                  004b6000     <common>
 0003:0004a020       _hostcache                 004b6020     <common>
 0003:0004a320       _SetComPortConfig          004b6320     <common>
 0003:0004a340       _net_message               004b6340     <common>
 0003:0004a360       _my_tcpip_address          004b6360     <common>
 0003:0004a3a0       _SetModemConfig            004b63a0     <common>
 0003:0004a3c0       _my_ipx_address            004b63c0     <common>
 0003:0004a400       _server_name               004b6400     <common>
 0003:0004a440       _rcon_buff                 004b6440     <common>
 0003:0004c440       _net_hostport              004b8440     <common>
 0003:0004c460       _buff                      004b8460     <common>
 0003:0004e460       _vcrConnect                004ba460     <common>
 0003:0004e470       _droppedDatagrams          004ba470     <common>
 0003:0004e480       _packetBuffer              004ba480     <common>
 0003:0004e888       _mod_numknown              004ba888     <common>
 0003:0004e8a0       _loadname                  004ba8a0     <common>
 0003:0004e8c0       _loadmodel                 004ba8c0     <common>
 0003:0004e8e0       _mod_known                 004ba8e0     <common>
 0003:000670e0       _mod_base                  004d30e0     <common>
 0003:00067100       _mod_novis                 004d3100     <common>
 0003:00067500       _serialConfig_cursor       004d3500     <common>
 0003:00067508       _searchCompleteTime        004d3508     <common>
 0003:00067510       _m_singleplayer_cursor     004d3510     <common>
 0003:00067514       _m_net_items               004d3514     <common>
 0003:00067518       _setup_top                 004d3518     <common>
 0003:0006751c       _bind_grab                 004d351c     <common>
 0003:00067520       _m_save_demonum            004d3520     <common>
 0003:00067524       _maxplayers                004d3524     <common>
 0003:00067528       _setup_bottom              004d3528     <common>
 0003:0006752c       _serialConfig_comport      004d352c     <common>
 0003:00067530       _setup_myname              004d3530     <common>
 0003:00067540       _m_return_reason           004d3540     <common>
 0003:00067560       _serialConfig_phone        004d3560     <common>
 0003:00067570       _keys_cursor               004d3570     <common>
 0003:00067574       _modemConfig_cursor        004d3574     <common>
 0003:00067578       _m_state                   004d3578     <common>
 0003:0006757c       _options_cursor            004d357c     <common>
 0003:00067580       _m_quit_prevstate          004d3580     <common>
 0003:00067590       _setup_hostname            004d3590     <common>
 0003:000675a0       _slist_cursor              004d35a0     <common>
 0003:000675a4       _vid_menukeyfn             004d35a4     <common>
 0003:000675c0       _loadable                  004d35c0     <common>
 0003:000675f0       _help_page                 004d35f0     <common>
 0003:000675f4       _m_net_cursor              004d35f4     <common>
 0003:000675f8       _m_recursiveDraw           004d35f8     <common>
 0003:000675fc       _m_multiplayer_cursor      004d35fc     <common>
 0003:00067600       _setup_oldtop              004d3600     <common>
 0003:00067608       _m_serverInfoMessageTime   004d3608     <common>
 0003:00067610       _modemConfig_hangup        004d3610     <common>
 0003:00067620       _m_filenames               004d3620     <common>
 0003:00067800       _load_cursor               004d3800     <common>
 0003:00067804       _m_return_state            004d3804     <common>
 0003:00067808       _lanConfig_port            004d3808     <common>
 0003:0006780c       _modemConfig_dialing       004d380c     <common>
 0003:00067810       _vid_menudrawfn            004d3810     <common>
 0003:00067814       _startepisode              004d3814     <common>
 0003:00067818       _m_main_cursor             004d3818     <common>
 0003:00067820       _modemConfig_init          004d3820     <common>
 0003:00067840       _setup_oldbottom           004d3840     <common>
 0003:00067844       _serialConfig_irq          004d3844     <common>
 0003:00067848       _wasInMenus                004d3848     <common>
 0003:0006784c       _gameoptions_cursor        004d384c     <common>
 0003:00067860       _translationTable          004d3860     <common>
 0003:00067960       _identityTable             004d3960     <common>
 0003:00067a60       _msgNumber                 004d3a60     <common>
 0003:00067a64       _m_entersound              004d3a64     <common>
 0003:00067a68       _m_return_onerror          004d3a68     <common>
 0003:00067a70       _modemConfig_clear         004d3a70     <common>
 0003:00067a80       _slist_sorted              004d3a80     <common>
 0003:00067a84       _serialConfig_baud         004d3a84     <common>
 0003:00067aa0       _lanConfig_joinname        004d3aa0     <common>
 0003:00067ab8       _startlevel                004d3ab8     <common>
 0003:00067ac0       _lanConfig_portname        004d3ac0     <common>
 0003:00067ae0       _m                         004d3ae0     <common>
 0003:0006a290       _n                         004d6290     <common>
 0003:0006a2a0       _s                         004d62a0     <common>
 0003:000717d0       _xres                      004dd7d0     <common>
 0003:000717d4       _yres                      004dd7d4     <common>
 0003:000717d8       _r2                        004dd7d8     <common>
 0003:000717dc       _savecross                 004dd7dc     <common>
 0003:000717e0       _locations                 004dd7e0     <common>
 0003:000726e0       _menubound                 004de6e0     <common>
 0003:00072ae0       _keydown                   004deae0     <common>
 0003:00072ee0       _chat_buffer               004deee0     <common>
 0003:00072f20       _keyshift                  004def20     <common>
 0003:00073320       _keybindings               004df320     <common>
 0003:00073720       _key_count                 004df720     <common>
 0003:00073740       _consolekeys               004df740     <common>
 0003:00073b40       _key_repeats               004dfb40     <common>
 0003:00073f40       _key_linepos               004dff40     <common>
 0003:00073f60       _key_lines                 004dff60     <common>
 0003:00075f60       _key_dest                  004e1f60     <common>
 0003:00075f64       _key_lastpress             004e1f64     <common>
 0003:00075f68       _iplog_size                004e1f68     <common>
 0003:00075f6c       _iplogs                    004e1f6c     <common>
 0003:00075f70       _iplog_head                004e1f70     <common>
 0003:00075f74       _iplog_full                004e1f74     <common>
 0003:00075f78       _iplog_next                004e1f78     <common>
 0003:00075f7c       _psendto                   004e1f7c     <common>
 0003:00075f80       _dwControlMap              004e1f80     <common>
 0003:00075fa0       _dwAxisMap                 004e1fa0     <common>
 0003:00075fb8       _uiWheelMessage            004e1fb8     <common>
 0003:00075fbc       _pioctlsocket              004e1fbc     <common>
 0003:00075fc0       _pWSACleanup               004e1fc0     <common>
 0003:00075fc4       _flex_mouseactive          004e1fc4     <common>
 0003:00075fe0       _pdwRawValue               004e1fe0     <common>
 0003:00075ff8       _joy_numbuttons            004e1ff8     <common>
 0003:00076000       _mouse_y                   004e2000     <common>
 0003:00076008       _joy_avail                 004e2008     <common>
 0003:00076010       _mouse_x                   004e2010     <common>
 0003:00076018       _precvfrom                 004e2018     <common>
 0003:0007601c       _joy_oldpovstate           004e201c     <common>
 0003:00076020       _my_accum                  004e2020     <common>
 0003:00076024       _pWSAStartup               004e2024     <common>
 0003:00076028       _flex_mouseinitialized     004e2028     <common>
 0003:0007602c       _pgethostname              004e202c     <common>
 0003:00076030       _psetsockopt               004e2030     <common>
 0003:00076034       _old_mouse_y               004e2034     <common>
 0003:00076038       _pgethostbyname            004e2038     <common>
 0003:0007603c       _old_mouse_x               004e203c     <common>
 0003:00076040       _joy_oldbuttonstate        004e2040     <common>
 0003:00076044       _pgetsockname              004e2044     <common>
 0003:00076048       _current_pos               004e2048     <common>
 0003:00076050       _use_m_smooth              004e2050     <common>
 0003:00076054       _joy_advancedinit          004e2054     <common>
 0003:00076058       _pgethostbyaddr            004e2058     <common>
 0003:0007605c       _pclosesocket              004e205c     <common>
 0003:00076060       _pWSAGetLastError          004e2060     <common>
 0003:00076080       _m_history_x               004e2080     <common>
 0003:00076480       _m_history_y               004e2480     <common>
 0003:00076880       _joy_id                    004e2880     <common>
 0003:00076884       _mouse_oldbuttonstate      004e2884     <common>
 0003:00076888       _mouse_buttons             004e2888     <common>
 0003:0007688c       _m_event                   004e288c     <common>
 0003:00076890       _pDirectInputCreate        004e2890     <common>
 0003:00076894       _joy_flags                 004e2894     <common>
 0003:00076898       _mx_accum                  004e2898     <common>
 0003:0007689c       _joy_haspov                004e289c     <common>
 0003:000768a0       _psocket                   004e28a0     <common>
 0003:000768c0       _msg_order                 004e28c0     <common>
 0003:00076b40       _msg_rand                  004e2b40     <common>
 0003:00080b40       _noclip_anglehack          004ecb40     <common>
 0003:00080b44       _current_skill             004ecb44     <common>
 0003:00080b48       _host_hunklevel            004ecb48     <common>
 0003:00080b50       _host_frametime            004ecb50     <common>
 0003:00080b58       _host_framecount           004ecb58     <common>
 0003:00080b60       _dequake                   004ecb60     <common>
 0003:00080c60       _host_initialized          004ecc60     <common>
 0003:00080c64       _host_basepal              004ecc64     <common>
 0003:00080c68       _host_colormap             004ecc68     <common>
 0003:00080c6c       _host_client               004ecc6c     <common>
 0003:00080c70       _last_angle_time           004ecc70     <common>
 0003:00080c80       _host_parms                004ecc80     <common>
 0003:00080c98       _oldrealtime               004ecc98     <common>
 0003:00080ca0       _minimum_memory            004ecca0     <common>
 0003:00080ca8       _host_time                 004ecca8     <common>
 0003:00080cc0       _host_abortserver          004eccc0     <common>
 0003:00080d00       _realtime                  004ecd00     <common>
 0003:00080d08       _draw_chars                004ecd08     <common>
 0003:00080d0c       _draw_backtile             004ecd0c     <common>
 0003:00080d20       _menu_cachepics            004ecd20     <common>
 0003:00082f20       _menu_numcachepics         004eef20     <common>
 0003:00082f24       _draw_disc                 004eef24     <common>
 0003:00082f28       _surfscale                 004eef28     <common>
 0003:00082f2c       _sc_base                   004eef2c     <common>
 0003:00082f30       _sc_size                   004eef30     <common>
 0003:00082f34       _r_cache_thrash            004eef34     <common>
 0003:00082f38       _sc_rover                  004eef38     <common>
 0003:00082f3c       _r_turb_pbase              004eef3c     <common>
 0003:00082f40       _r_turb_turb               004eef40     <common>
 0003:00082f44       _r_turb_s                  004eef44     <common>
 0003:00082f48       _r_turb_t                  004eef48     <common>
 0003:00082f4c       _r_turb_tstep              004eef4c     <common>
 0003:00082f50       _r_turb_spancount          004eef50     <common>
 0003:00082f54       _r_turb_sstep              004eef54     <common>
 0003:00082f58       _r_turb_pdest              004eef58     <common>
 0003:00082f5c       _d_light                   004eef5c     <common>
 0003:00082f60       _d_xdenom                  004eef60     <common>
 0003:00082f64       _r_sstepx                  004eef64     <common>
 0003:00082f68       _r_sstepy                  004eef68     <common>
 0003:00082f6c       _pedgetable                004eef6c     <common>
 0003:00082f70       _d_pcolormap               004eef70     <common>
 0003:00082f74       _d_zibasestep              004eef74     <common>
 0003:00082f78       _r_tstepx                  004eef78     <common>
 0003:00082f7c       _r_tstepy                  004eef7c     <common>
 0003:00082f80       _d_tfracextrastep          004eef80     <common>
 0003:00082f84       _d_tfrac                   004eef84     <common>
 0003:00082f88       _d_pedgespanpackage        004eef88     <common>
 0003:00082f8c       _skinwidth                 004eef8c     <common>
 0003:00082f90       _d_ziextrastep             004eef90     <common>
 0003:00082f94       _d_tfracbasestep           004eef94     <common>
 0003:00082f98       _d_aflatcolor              004eef98     <common>
 0003:00082f9c       _a_spans                   004eef9c     <common>
 0003:00082fa0       _d_ptexextrastep           004eefa0     <common>
 0003:00082fa4       _a_tstepxfrac              004eefa4     <common>
 0003:00082fa8       _d_aspancount              004eefa8     <common>
 0003:00082fac       _r_zistepy                 004eefac     <common>
 0003:00082fb0       _r_zistepx                 004eefb0     <common>
 0003:00082fb4       _d_pdestextrastep          004eefb4     <common>
 0003:00082fb8       _d_pzbasestep              004eefb8     <common>
 0003:00082fc0       _r_p0                      004eefc0     <common>
 0003:00082fe0       _r_p1                      004eefe0     <common>
 0003:00083000       _r_p2                      004ef000     <common>
 0003:00083018       _d_lightbasestep           004ef018     <common>
 0003:00083020       _skintable                 004ef020     <common>
 0003:000837a0       _a_ststepxwhole            004ef7a0     <common>
 0003:000837a4       _d_pzextrastep             004ef7a4     <common>
 0003:000837a8       _d_pdestbasestep           004ef7a8     <common>
 0003:000837ac       _skinstart                 004ef7ac     <common>
 0003:000837b0       _r_lstepx                  004ef7b0     <common>
 0003:000837b4       _r_lstepy                  004ef7b4     <common>
 0003:000837b8       _d_pz                      004ef7b8     <common>
 0003:000837bc       _d_lightextrastep          004ef7bc     <common>
 0003:000837c0       _d_zi                      004ef7c0     <common>
 0003:000837c4       _d_sfracextrastep          004ef7c4     <common>
 0003:000837c8       _d_pdest                   004ef7c8     <common>
 0003:000837cc       _d_countextrastep          004ef7cc     <common>
 0003:000837d0       _d_sfrac                   004ef7d0     <common>
 0003:000837d4       _d_sfracbasestep           004ef7d4     <common>
 0003:000837d8       _d_ptexbasestep            004ef7d8     <common>
 0003:000837dc       _d_ptex                    004ef7dc     <common>
 0003:000837e0       _a_sstepxfrac              004ef7e0     <common>
 0003:00083800       _d_scantable               004ef800     <common>
 0003:00084800       _zspantable                004f0800     <common>
 0003:00085800       _d_vrectx                  004f1800     <common>
 0003:00085804       _d_vrecty                  004f1804     <common>
 0003:00085808       _d_pix_min                 004f1808     <common>
 0003:0008580c       _d_pix_max                 004f180c     <common>
 0003:00085810       _d_y_aspect_shift          004f1810     <common>
 0003:00085814       _d_vrectbottom_particle    004f1814     <common>
 0003:00085818       _d_vrectright_particle     004f1818     <common>
 0003:0008581c       _d_pix_shift               004f181c     <common>
 0003:00085820       _d_scalemip                004f1820     <common>
 0003:0008582c       _d_minmip                  004f182c     <common>
 0003:00085830       _d_drawspans               004f1830     <common>
 0003:00085834       _d_initial_rover           004f1834     <common>
 0003:00085838       _d_roverwrapped            004f1838     <common>
 0003:0008583c       _scale_for_mip             004f183c     <common>
 0003:00085840       _errorterm                 004f1840     <common>
 0003:00085844       _erroradjustdown           004f1844     <common>
 0003:00085848       _erroradjustup             004f1848     <common>
 0003:00085850       _transformed_modelorg      004f1850     <common>
 0003:0008585c       _ubasestep                 004f185c     <common>
 0003:00085860       _screenwidth               004f1860     <common>
 0003:00085864       _cvar_vars                 004f1864     <common>
 0003:00085868       _con_forcedup              004f1868     <common>
 0003:00085880       _logfilename               004f1880     <common>
 0003:00085900       _con_times                 004f1900     <common>
 0003:00085910       _con_vislines              004f1910     <common>
 0003:00085914       _con_linewidth             004f1914     <common>
 0003:00085918       _con_notifylines           004f1918     <common>
 0003:0008591c       _con_current               004f191c     <common>
 0003:00085920       _con_backscroll            004f1920     <common>
 0003:00085924       _con_initialized           004f1924     <common>
 0003:00085928       _con_x                     004f1928     <common>
 0003:0008592c       _con_totallines            004f192c     <common>
 0003:00085930       _con_debuglog              004f1930     <common>
 0003:00085934       _hStdin                    004f1934     <common>
 0003:00085938       _hfileBuffer               004f1938     <common>
 0003:0008593c       _heventParentSend          004f193c     <common>
 0003:00085940       _hStdout                   004f1940     <common>
 0003:00085944       _heventDone                004f1944     <common>
 0003:00085948       _heventChildSend           004f1948     <common>
 0003:00085960       _com_cachedir              004f1960     <common>
 0003:000859e0       _hipnotic                  004f19e0     <common>
 0003:000859e4       _LittleFloat               004f19e4     <common>
 0003:000859e8       _proghack                  004f19e8     <common>
 0003:000859ec       _BigFloat                  004f19ec     <common>
 0003:000859f0       _com_filesize              004f19f0     <common>
 0003:000859f4       _LittleShort               004f19f4     <common>
 0003:000859f8       _loadcache                 004f19f8     <common>
 0003:000859fc       _BigShort                  004f19fc     <common>
 0003:00085a00       _com_argc                  004f1a00     <common>
 0003:00085a04       _loadbuf                   004f1a04     <common>
 0003:00085a08       _com_argv                  004f1a08     <common>
 0003:00085a0c       _BigLong                   004f1a0c     <common>
 0003:00085a10       _LittleLong                004f1a10     <common>
 0003:00085a20       _com_token                 004f1a20     <common>
 0003:00085e20       _rogue                     004f1e20     <common>
 0003:00085e24       _com_modified              004f1e24     <common>
 0003:00085e40       _com_cmdline               004f1e40     <common>
 0003:00085f40       _loadsize                  004f1f40     <common>
 0003:00085f44       _bigendien                 004f1f44     <common>
 0003:00085f48       _msg_readcount             004f1f48     <common>
 0003:00085f4c       _msg_badread               004f1f4c     <common>
 0003:00085f60       _cmd_text                  004f1f60     <common>
 0003:00085f74       _cmd_wait                  004f1f74     <common>
 0003:00085f78       _cmd_source                004f1f78     <common>
 0003:00085f7c       _cmd_alias                 004f1f7c     <common>
 0003:00085f80       _cl_sfx_r_exp3             004f1f80     <common>
 0003:00085fa0       _cl_beams                  004f1fa0     <common>
 0003:00086300       _cl_sfx_knighthit          004f2300     <common>
 0003:00086304       _cl_sfx_ric1               004f2304     <common>
 0003:00086308       _cl_sfx_ric3               004f2308     <common>
 0003:0008630c       _cl_sfx_ric2               004f230c     <common>
 0003:00086310       _num_temp_entities         004f2310     <common>
 0003:00086314       _cl_sfx_wizhit             004f2314     <common>
 0003:00086320       _cl_temp_entities          004f2320     <common>
 0003:00089120       _cl_sfx_tink1              004f5120     <common>
 0003:00089140       _bitcounts                 004f5140     <common>
 0003:00089180       _cl_dlights                004f5180     <common>
 0003:00089580       _cl_entities               004f5580     <common>
 0003:000e3300       _cls                       0054f300     <common>
 0003:000e3c20       _cl_lightstyle             0054fc20     <common>
 0003:000e4d20       _cl_visedicts              00550d20     <common>
 0003:000e5120       _cl                        00551120     <common>
 0003:000e5cd8       _cl_numvisedicts           00551cd8     <common>
 0003:000e5cdc       _savedfov                  00551cdc     <common>
 0003:000e5ce0       _savedsensitivity          00551ce0     <common>
 0003:000e5d00       _cl_static_entities        00551d00     <common>
 0003:000eb900       _cl_efrags                 00557900     <common>
 0003:000ee100       _in_lookdown               0055a100     <common>
 0003:000ee110       _in_speed                  0055a110     <common>
 0003:000ee120       _in_attack                 0055a120     <common>
 0003:000ee130       _in_up                     0055a130     <common>
 0003:000ee140       _in_use                    0055a140     <common>
 0003:000ee150       _in_down                   0055a150     <common>
 0003:000ee160       _lag_data                  0055a160     <common>
 0003:000ef160       _lag_tail                  0055b160     <common>
 0003:000ef180       _lag_buff                  0055b180     <common>
 0003:000ef400       _in_mlook                  0055b400     <common>
 0003:000ef410       _in_forward                0055b410     <common>
 0003:000ef420       _in_left                   0055b420     <common>
 0003:000ef42c       _lag_head                  0055b42c     <common>
 0003:000ef430       _in_right                  0055b430     <common>
 0003:000ef440       _in_moveleft               0055b440     <common>
 0003:000ef450       _in_lookup                 0055b450     <common>
 0003:000ef460       _in_jump                   0055b460     <common>
 0003:000ef470       _in_strafe                 0055b470     <common>
 0003:000ef480       _in_moveright              0055b480     <common>
 0003:000ef490       _in_back                   0055b490     <common>
 0003:000ef49c       _in_impulse                0055b49c     <common>
 0003:000ef4a0       _lag_sendtime              0055b4a0     <common>
 0003:000ef5a0       _in_klook                  0055b5a0     <common>
 0003:000ef5c0       _demo_head                 0055b5c0     <common>
 0003:000f5380       _demo_head_size            00561380     <common>
 0003:000f5390       _chase_dest                00561390     <common>
 0003:000f539c       _wDeviceID                 0056139c     <common>
 0003:000f53a0       _VBE_bankSwitch            005613a0     <common>
 0003:000f53a4       _SVGA_setBankVec           005613a4     <common>
 0003:000f53a8       _VBE_memory                005613a8     <common>
 0003:000f53ac       _VBE_bankShift             005613ac     <common>
 0003:000f53b0       _VBE_version               005613b0     <common>
 0003:000f53b4       _isNonVGA                  005613b4     <common>
 0003:000f53b8       _SVGA_curBank              005613b8     <common>
 0003:000f53bc       __MGL_afPtr                005613bc     <common>
 0003:000f53c0       __MGL_malloc               005613c0     <common>
 0003:000f53c4       __MGL_free                 005613c4     <common>
 0003:000f53c8       __MGL_result               005613c8     <common>
 0003:000f53e0       __PACKED_vecs              005613e0     <common>
 0003:000f54cc       __MGL_buf                  005614cc     <common>
 0003:000f54e0       __MGL_path                 005614e0     <common>
 0003:000f5600       __MGL_availableModes       00561600     <common>
 0003:000f56c0       __MGL_dc                   005616c0     <common>
 0003:000f5aec       _pPM_createSelector        00561aec     <common>
 0003:000f5af0       _pWD_getEvent              00561af0     <common>
 0003:000f5af4       _pVF_available             00561af4     <common>
 0003:000f5af8       _pPM_freeSelector          00561af8     <common>
 0003:000f5afc       _pDirectDrawCreateClipper  00561afc     <common>
 0003:000f5b00       _pWD_postEvent             00561b00     <common>
 0003:000f5b04       _pPM_setBankA              00561b04     <common>
 0003:000f5b08       __MGL_modeId               00561b08     <common>
 0003:000f5b0c       _pWD_registerEventProc     00561b0c     <common>
 0003:000f5b10       _pPM_getByte               00561b10     <common>
 0003:000f5b14       _pPM_setByte               00561b14     <common>
 0003:000f5b18       _pWD_haltEvent             00561b18     <common>
 0003:000f5b1c       _pWD_setTimerTick          00561b1c     <common>
 0003:000f5b20       _pWD_flushEvent            00561b20     <common>
 0003:000f5b24       _pCreateDIBSection         00561b24     <common>
 0003:000f5b28       _pPM_mapPhysicalAddr       00561b28     <common>
 0003:000f5b2c       _pWD_isSafeMode            00561b2c     <common>
 0003:000f5b30       _pPM_freeRealSeg           00561b30     <common>
 0003:000f5b34       _pWinGBitBlt               00561b34     <common>
 0003:000f5b40       __MGL_ddCaps               00561b40     <common>
 0003:000f5c7c       _pPM_setWord               00561c7c     <common>
 0003:000f5c80       _pPM_saveDS                00561c80     <common>
 0003:000f5c84       _pPM_allocRealSeg          00561c84     <common>
 0003:000f5c88       _pPM_setBankAB             00561c88     <common>
 0003:000f5c8c       _pPM_getWord               00561c8c     <common>
 0003:000f5c90       __MGL_deskX                00561c90     <common>
 0003:000f5c94       __MGL_deskY                00561c94     <common>
 0003:000f5c98       _p_PM_setRMvect            00561c98     <common>
 0003:000f5c9c       _pWinGStretchBlt           00561c9c     <common>
 0003:000f5ca0       _pDirectDrawCreate         00561ca0     <common>
 0003:000f5ca4       _pSetDIBColorTable         00561ca4     <common>
 0003:000f5ca8       _pPM_memcpynf              00561ca8     <common>
 0003:000f5cac       __MGL_driverId             00561cac     <common>
 0003:000f5cb0       _pPM_mapRealPointer        00561cb0     <common>
 0003:000f5cb4       _pPM_memcpyfn              00561cb4     <common>
 0003:000f5cb8       _pWD_registerFullScreenWindow 00561cb8     <common>
 0003:000f5cbc       _pWinGSetDIBColorTable     00561cbc     <common>
 0003:000f5cc0       __MGL_rseg                 00561cc0     <common>
 0003:000f5cc4       __MGL_rbufSel              00561cc4     <common>
 0003:000f5cc8       _pPM_setLong               00561cc8     <common>
 0003:000f5ccc       _pWD_getMousePos           00561ccc     <common>
 0003:000f5cd0       _pPM_setCRTStart           00561cd0     <common>
 0003:000f5cd4       __MGL_rbufOff              00561cd4     <common>
 0003:000f5cd8       _p_WD_doSuspendApp         00561cd8     <common>
 0003:000f5cdc       _pPM_getLong               00561cdc     <common>
 0003:000f5ce0       _pWinGCreateBitmap         00561ce0     <common>
 0003:000f5ce4       _p_PM_getRMvect            00561ce4     <common>
 0003:000f5ce8       _pWD_changeResolution      00561ce8     <common>
 0003:000f5cec       _pWinGCreateDC             00561cec     <common>
 0003:000f5cf0       __MGL_xRes                 00561cf0     <common>
 0003:000f5cf4       _pWD_setMouseCallback      00561cf4     <common>
 0003:000f5cf8       _pPM_int86                 00561cf8     <common>
 0003:000f5cfc       _pWD_peekEvent             00561cfc     <common>
 0003:000f5d00       _pWD_setAppInstance        00561d00     <common>
 0003:000f5d04       __MGL_roff                 00561d04     <common>
 0003:000f5d08       __MGL_yRes                 00561d08     <common>
 0003:000f5d0c       _pWD_setMousePos           00561d0c     <common>
 0003:000f5d10       __MGL_suspendApp           00561d10     <common>
 0003:000f5d14       _pPM_getBIOSSelector       00561d14     <common>
 0003:000f5d18       _pVF_exit                  00561d18     <common>
 0003:000f5d1c       _pWD_startFullScreen       00561d1c     <common>
 0003:000f5d20       _pPM_availableMemory       00561d20     <common>
 0003:000f5d24       __MGL_bltType              00561d24     <common>
 0003:000f5d28       _pWD_setSuspendAppCallback 00561d28     <common>
 0003:000f5d2c       _pPM_int86x                00561d2c     <common>
 0003:000f5d30       _pPM_callRealMode          00561d30     <common>
 0003:000f5d34       _pVF_init                  00561d34     <common>
 0003:000f5d38       _pWD_restoreGDI            00561d38     <common>
 0003:000f5d3c       ___mbcodepage              00561d3c     <common>
 0003:000f5d40       ___mbulinfo                00561d40     <common>
 0003:000f5d4c       ___ismbcodepage            00561d4c     <common>
 0003:000f5d60       __mbcasemap                00561d60     <common>
 0003:000f5e60       __mbctype                  00561e60     <common>
 0003:000f5f64       ___mblcid                  00561f64     <common>
 0003:000f5f68       ___sbh_sizeHeaderList      00561f68     <common>
 0003:000f5f6c       ___sbh_indGroupDefer       00561f6c     <common>
 0003:000f5f70       ___sbh_pHeaderScan         00561f70     <common>
 0003:000f5f74       ___sbh_pHeaderDefer        00561f74     <common>
 0003:000f5f78       ___sbh_cntHeaderList       00561f78     <common>
 0003:000f5f7c       ___sbh_pHeaderList         00561f7c     <common>
 0003:000f5f80       __crtheap                  00561f80     <common>
 0003:000f5fa0       ___pioinfo                 00561fa0     <common>
 0003:000f60a0       __nhandle                  005620a0     <common>
 0003:000f60a4       ___piob                    005620a4     <common>
 0003:000f60c0       __bufin                    005620c0     <common>
 0003:000f70c0       __nstream                  005630c0     <common>
 0003:000f70c4       __acmdln                   005630c4     <common>
 0003:000f70c8       ___env_initialized         005630c8     <common>
 0003:000f70cc       ___mbctype_initialized     005630cc     <common>
 0003:000f70d0       ___onexitend               005630d0     <common>
 0003:000f70d4       ___onexitbegin             005630d4     <common>
 0003:000f70d8       ___alternate_form          005630d8     <common>
 0003:000f70dc       ___no_lead_zeros           005630dc     <common>
 0004:00000000       __IMPORT_DESCRIPTOR_WINMM  00564000     winmm:WINMM.dll
 0004:00000014       __IMPORT_DESCRIPTOR_WSOCK32 00564014     wsock32:WSOCK32.dll
 0004:00000028       __IMPORT_DESCRIPTOR_KERNEL32 00564028     kernel32:KERNEL32.dll
 0004:0000003c       __IMPORT_DESCRIPTOR_USER32 0056403c     user32:USER32.dll
 0004:00000050       __IMPORT_DESCRIPTOR_GDI32  00564050     gdi32:GDI32.dll
 0004:00000064       __IMPORT_DESCRIPTOR_ADVAPI32 00564064     advapi32:ADVAPI32.dll
 0004:00000078       __NULL_IMPORT_DESCRIPTOR   00564078     winmm:WINMM.dll
 0004:000003a0       __imp__RegQueryValueExA@24 005643a0     advapi32:ADVAPI32.dll
 0004:000003a4       __imp__RegSetValueExA@24   005643a4     advapi32:ADVAPI32.dll
 0004:000003a8       __imp__RegCloseKey@4       005643a8     advapi32:ADVAPI32.dll
 0004:000003ac       __imp__RegOpenKeyExA@20    005643ac     advapi32:ADVAPI32.dll
 0004:000003b0       \177ADVAPI32_NULL_THUNK_DATA 005643b0     advapi32:ADVAPI32.dll
 0004:000003b4       __imp__RealizePalette@4    005643b4     gdi32:GDI32.dll
 0004:000003b8       __imp__UnrealizeObject@4   005643b8     gdi32:GDI32.dll
 0004:000003bc       __imp__SelectObject@8      005643bc     gdi32:GDI32.dll
 0004:000003c0       __imp__DeleteDC@4          005643c0     gdi32:GDI32.dll
 0004:000003c4       __imp__CreateCompatibleDC@4 005643c4     gdi32:GDI32.dll
 0004:000003c8       __imp__DeleteObject@4      005643c8     gdi32:GDI32.dll
 0004:000003cc       __imp__CreatePalette@4     005643cc     gdi32:GDI32.dll
 0004:000003d0       __imp__GetSystemPaletteEntries@16 005643d0     gdi32:GDI32.dll
 0004:000003d4       __imp__SelectPalette@12    005643d4     gdi32:GDI32.dll
 0004:000003d8       __imp__GetDIBits@28        005643d8     gdi32:GDI32.dll
 0004:000003dc       __imp__CreateCompatibleBitmap@12 005643dc     gdi32:GDI32.dll
 0004:000003e0       __imp__AnimatePalette@16   005643e0     gdi32:GDI32.dll
 0004:000003e4       __imp__BitBlt@36           005643e4     gdi32:GDI32.dll
 0004:000003e8       __imp__StretchBlt@44       005643e8     gdi32:GDI32.dll
 0004:000003ec       __imp__SetStretchBltMode@8 005643ec     gdi32:GDI32.dll
 0004:000003f0       __imp__CreateDCA@16        005643f0     gdi32:GDI32.dll
 0004:000003f4       __imp__GetStockObject@4    005643f4     gdi32:GDI32.dll
 0004:000003f8       __imp__GetSystemPaletteUse@4 005643f8     gdi32:GDI32.dll
 0004:000003fc       __imp__SetSystemPaletteUse@8 005643fc     gdi32:GDI32.dll
 0004:00000400       __imp__Escape@20           00564400     gdi32:GDI32.dll
 0004:00000404       __imp__GetDeviceCaps@8     00564404     gdi32:GDI32.dll
 0004:00000408       __imp__PatBlt@24           00564408     gdi32:GDI32.dll
 0004:0000040c       \177GDI32_NULL_THUNK_DATA  0056440c     gdi32:GDI32.dll
 0004:00000410       __imp__WaitForMultipleObjects@16 00564410     kernel32:KERNEL32.dll
 0004:00000414       __imp__MapViewOfFile@20    00564414     kernel32:KERNEL32.dll
 0004:00000418       __imp__UnmapViewOfFile@4   00564418     kernel32:KERNEL32.dll
 0004:0000041c       __imp__GetConsoleScreenBufferInfo@8 0056441c     kernel32:KERNEL32.dll
 0004:00000420       __imp__ReadConsoleOutputCharacterA@20 00564420     kernel32:KERNEL32.dll
 0004:00000424       __imp__WriteConsoleInputA@16 00564424     kernel32:KERNEL32.dll
 0004:00000428       __imp__SetConsoleScreenBufferSize@8 00564428     kernel32:KERNEL32.dll
 0004:0000042c       __imp__SetConsoleWindowInfo@12 0056442c     kernel32:KERNEL32.dll
 0004:00000430       __imp__GetLargestConsoleWindowSize@4 00564430     kernel32:KERNEL32.dll
 0004:00000434       __imp__Sleep@4             00564434     kernel32:KERNEL32.dll
 0004:00000438       __imp__WaitForSingleObject@8 00564438     kernel32:KERNEL32.dll
 0004:0000043c       __imp__ResumeThread@4      0056443c     kernel32:KERNEL32.dll
 0004:00000440       __imp__SetThreadPriority@8 00564440     kernel32:KERNEL32.dll
 0004:00000444       __imp__GetProcAddress@8    00564444     kernel32:KERNEL32.dll
 0004:00000448       __imp__LoadLibraryA@4      00564448     kernel32:KERNEL32.dll
 0004:0000044c       __imp__GlobalUnlock@4      0056444c     kernel32:KERNEL32.dll
 0004:00000450       __imp__GlobalLock@4        00564450     kernel32:KERNEL32.dll
 0004:00000454       __imp__GlobalFree@4        00564454     kernel32:KERNEL32.dll
 0004:00000458       __imp__GlobalAlloc@8       00564458     kernel32:KERNEL32.dll
 0004:0000045c       __imp__VirtualProtect@16   0056445c     kernel32:KERNEL32.dll
 0004:00000460       __imp__GetVersionExA@4     00564460     kernel32:KERNEL32.dll
 0004:00000464       __imp__QueryPerformanceFrequency@4 00564464     kernel32:KERNEL32.dll
 0004:00000468       __imp__WriteFile@20        00564468     kernel32:KERNEL32.dll
 0004:0000046c       __imp__FreeConsole@0       0056446c     kernel32:KERNEL32.dll
 0004:00000470       __imp__QueryPerformanceCounter@4 00564470     kernel32:KERNEL32.dll
 0004:00000474       __imp__ReadConsoleInputA@16 00564474     kernel32:KERNEL32.dll
 0004:00000478       __imp__GetNumberOfConsoleInputEvents@8 00564478     kernel32:KERNEL32.dll
 0004:0000047c       __imp__AllocConsole@0      0056447c     kernel32:KERNEL32.dll
 0004:00000480       __imp__GetCommandLineA@0   00564480     kernel32:KERNEL32.dll
 0004:00000484       __imp__GetCurrentDirectoryA@8 00564484     kernel32:KERNEL32.dll
 0004:00000488       __imp__SetEvent@4          00564488     kernel32:KERNEL32.dll
 0004:0000048c       __imp__GetVersion@0        0056448c     kernel32:KERNEL32.dll
 0004:00000490       __imp__FindClose@4         00564490     kernel32:KERNEL32.dll
 0004:00000494       __imp__FindFirstFileA@8    00564494     kernel32:KERNEL32.dll
 0004:00000498       __imp__GetSystemDirectoryA@8 00564498     kernel32:KERNEL32.dll
 0004:0000049c       __imp__GetModuleHandleA@4  0056449c     kernel32:KERNEL32.dll
 0004:000004a0       __imp__LCMapStringA@24     005644a0     kernel32:KERNEL32.dll
 0004:000004a4       __imp__WideCharToMultiByte@32 005644a4     kernel32:KERNEL32.dll
 0004:000004a8       __imp__GetStringTypeW@16   005644a8     kernel32:KERNEL32.dll
 0004:000004ac       __imp__GetStringTypeA@20   005644ac     kernel32:KERNEL32.dll
 0004:000004b0       __imp__MultiByteToWideChar@24 005644b0     kernel32:KERNEL32.dll
 0004:000004b4       __imp__SetFilePointer@16   005644b4     kernel32:KERNEL32.dll
 0004:000004b8       __imp__RaiseException@16   005644b8     kernel32:KERNEL32.dll
 0004:000004bc       __imp__SetHandleCount@4    005644bc     kernel32:KERNEL32.dll
 0004:000004c0       __imp__ReadFile@20         005644c0     kernel32:KERNEL32.dll
 0004:000004c4       __imp__FlushFileBuffers@4  005644c4     kernel32:KERNEL32.dll
 0004:000004c8       __imp__GetStartupInfoA@4   005644c8     kernel32:KERNEL32.dll
 0004:000004cc       __imp__HeapFree@12         005644cc     kernel32:KERNEL32.dll
 0004:000004d0       __imp__CreateDirectoryA@8  005644d0     kernel32:KERNEL32.dll
 0004:000004d4       __imp__GetCurrentProcess@0 005644d4     kernel32:KERNEL32.dll
 0004:000004d8       __imp__TerminateProcess@8  005644d8     kernel32:KERNEL32.dll
 0004:000004dc       __imp__ExitProcess@4       005644dc     kernel32:KERNEL32.dll
 0004:000004e0       __imp__CreateFileA@28      005644e0     kernel32:KERNEL32.dll
 0004:000004e4       __imp__GetFileType@4       005644e4     kernel32:KERNEL32.dll
 0004:000004e8       __imp__GetLastError@0      005644e8     kernel32:KERNEL32.dll
 0004:000004ec       __imp__GetCurrentProcessId@0 005644ec     kernel32:KERNEL32.dll
 0004:000004f0       __imp__HeapAlloc@12        005644f0     kernel32:KERNEL32.dll
 0004:000004f4       __imp__GetLocalTime@4      005644f4     kernel32:KERNEL32.dll
 0004:000004f8       __imp__LCMapStringW@24     005644f8     kernel32:KERNEL32.dll
 0004:000004fc       __imp__GetSystemTime@4     005644fc     kernel32:KERNEL32.dll
 0004:00000500       __imp__GetTimeZoneInformation@4 00564500     kernel32:KERNEL32.dll
 0004:00000504       __imp__CreateEventA@16     00564504     kernel32:KERNEL32.dll
 0004:00000508       __imp__CreateThread@24     00564508     kernel32:KERNEL32.dll
 0004:0000050c       __imp__CloseHandle@4       0056450c     kernel32:KERNEL32.dll
 0004:00000510       __imp__GetStdHandle@4      00564510     kernel32:KERNEL32.dll
 0004:00000514       __imp__RtlUnwind@16        00564514     kernel32:KERNEL32.dll
 0004:00000518       __imp__HeapDestroy@4       00564518     kernel32:KERNEL32.dll
 0004:0000051c       __imp__HeapCreate@12       0056451c     kernel32:KERNEL32.dll
 0004:00000520       __imp__VirtualFree@12      00564520     kernel32:KERNEL32.dll
 0004:00000524       __imp__VirtualAlloc@16     00564524     kernel32:KERNEL32.dll
 0004:00000528       __imp__HeapReAlloc@16      00564528     kernel32:KERNEL32.dll
 0004:0000052c       __imp__SetEndOfFile@4      0056452c     kernel32:KERNEL32.dll
 0004:00000530       __imp__SetStdHandle@8      00564530     kernel32:KERNEL32.dll
 0004:00000534       __imp__UnhandledExceptionFilter@4 00564534     kernel32:KERNEL32.dll
 0004:00000538       __imp__GetModuleFileNameA@12 00564538     kernel32:KERNEL32.dll
 0004:0000053c       __imp__FreeEnvironmentStringsA@4 0056453c     kernel32:KERNEL32.dll
 0004:00000540       __imp__FreeEnvironmentStringsW@4 00564540     kernel32:KERNEL32.dll
 0004:00000544       __imp__GetEnvironmentStrings@0 00564544     kernel32:KERNEL32.dll
 0004:00000548       __imp__GetEnvironmentStringsW@0 00564548     kernel32:KERNEL32.dll
 0004:0000054c       __imp__GetFileAttributesA@4 0056454c     kernel32:KERNEL32.dll
 0004:00000550       __imp__GetCPInfo@8         00564550     kernel32:KERNEL32.dll
 0004:00000554       __imp__GetACP@0            00564554     kernel32:KERNEL32.dll
 0004:00000558       __imp__GetOEMCP@0          00564558     kernel32:KERNEL32.dll
 0004:0000055c       __imp__CompareStringA@24   0056455c     kernel32:KERNEL32.dll
 0004:00000560       __imp__CompareStringW@24   00564560     kernel32:KERNEL32.dll
 0004:00000564       __imp__SetEnvironmentVariableA@8 00564564     kernel32:KERNEL32.dll
 0004:00000568       __imp__GlobalMemoryStatus@4 00564568     kernel32:KERNEL32.dll
 0004:0000056c       __imp__DeleteFileA@4       0056456c     kernel32:KERNEL32.dll
 0004:00000570       \177KERNEL32_NULL_THUNK_DATA 00564570     kernel32:KERNEL32.dll
 0004:00000574       __imp__SetTimer@16         00564574     user32:USER32.dll
 0004:00000578       __imp__KillTimer@8         00564578     user32:USER32.dll
 0004:0000057c       __imp__GetClientRect@8     0056457c     user32:USER32.dll
 0004:00000580       __imp__LoadStringA@16      00564580     user32:USER32.dll
 0004:00000584       __imp__SetFocus@4          00564584     user32:USER32.dll
 0004:00000588       __imp__MessageBeep@4       00564588     user32:USER32.dll
 0004:0000058c       __imp__EnableWindow@8      0056458c     user32:USER32.dll
 0004:00000590       __imp__SetActiveWindow@4   00564590     user32:USER32.dll
 0004:00000594       __imp__SetCursor@4         00564594     user32:USER32.dll
 0004:00000598       __imp__SetWindowPlacement@8 00564598     user32:USER32.dll
 0004:0000059c       __imp__GetWindowPlacement@8 0056459c     user32:USER32.dll
 0004:000005a0       __imp__GetActiveWindow@0   005645a0     user32:USER32.dll
 0004:000005a4       __imp__BeginPaint@8        005645a4     user32:USER32.dll
 0004:000005a8       __imp__EndPaint@8          005645a8     user32:USER32.dll
 0004:000005ac       __imp__GetKeyboardState@4  005645ac     user32:USER32.dll
 0004:000005b0       __imp__ToAscii@20          005645b0     user32:USER32.dll
 0004:000005b4       __imp__DefWindowProcA@16   005645b4     user32:USER32.dll
 0004:000005b8       __imp__InvalidateRect@12   005645b8     user32:USER32.dll
 0004:000005bc       __imp__DestroyWindow@4     005645bc     user32:USER32.dll
 0004:000005c0       __imp__PostMessageA@16     005645c0     user32:USER32.dll
 0004:000005c4       __imp__AdjustWindowRectEx@16 005645c4     user32:USER32.dll
 0004:000005c8       __imp__CreateWindowExA@48  005645c8     user32:USER32.dll
 0004:000005cc       __imp__SetWindowLongA@12   005645cc     user32:USER32.dll
 0004:000005d0       __imp__SendMessageA@16     005645d0     user32:USER32.dll
 0004:000005d4       __imp__EnumDisplaySettingsA@12 005645d4     user32:USER32.dll
 0004:000005d8       __imp__ChangeDisplaySettingsA@8 005645d8     user32:USER32.dll
 0004:000005dc       __imp__LoadIconA@8         005645dc     user32:USER32.dll
 0004:000005e0       __imp__LoadCursorA@8       005645e0     user32:USER32.dll
 0004:000005e4       __imp__RegisterClassA@4    005645e4     user32:USER32.dll
 0004:000005e8       __imp__GetDC@4             005645e8     user32:USER32.dll
 0004:000005ec       __imp__ReleaseDC@8         005645ec     user32:USER32.dll
 0004:000005f0       __imp__GetSystemMetrics@4  005645f0     user32:USER32.dll
 0004:000005f4       __imp__CreateDialogParamA@20 005645f4     user32:USER32.dll
 0004:000005f8       __imp__SetWindowPos@28     005645f8     user32:USER32.dll
 0004:000005fc       __imp__ShowWindow@8        005645fc     user32:USER32.dll
 0004:00000600       __imp__UpdateWindow@4      00564600     user32:USER32.dll
 0004:00000604       __imp__SetForegroundWindow@4 00564604     user32:USER32.dll
 0004:00000608       __imp__MsgWaitForMultipleObjects@20 00564608     user32:USER32.dll
 0004:0000060c       __imp__GetMessageA@16      0056460c     user32:USER32.dll
 0004:00000610       __imp__MessageBoxA@16      00564610     user32:USER32.dll
 0004:00000614       __imp__PeekMessageA@20     00564614     user32:USER32.dll
 0004:00000618       __imp__TranslateMessage@4  00564618     user32:USER32.dll
 0004:0000061c       __imp__DispatchMessageA@4  0056461c     user32:USER32.dll
 0004:00000620       __imp__GetKeyState@4       00564620     user32:USER32.dll
 0004:00000624       __imp__OpenClipboard@4     00564624     user32:USER32.dll
 0004:00000628       __imp__GetClipboardData@4  00564628     user32:USER32.dll
 0004:0000062c       __imp__CloseClipboard@0    0056462c     user32:USER32.dll
 0004:00000630       __imp__GetCursorPos@4      00564630     user32:USER32.dll
 0004:00000634       __imp__RegisterWindowMessageA@4 00564634     user32:USER32.dll
 0004:00000638       __imp__ReleaseCapture@0    00564638     user32:USER32.dll
 0004:0000063c       __imp__SystemParametersInfoA@16 0056463c     user32:USER32.dll
 0004:00000640       __imp__SetCursorPos@8      00564640     user32:USER32.dll
 0004:00000644       __imp__SetCapture@4        00564644     user32:USER32.dll
 0004:00000648       __imp__ShowCursor@4        00564648     user32:USER32.dll
 0004:0000064c       __imp__ClipCursor@4        0056464c     user32:USER32.dll
 0004:00000650       __imp__GetWindowRect@8     00564650     user32:USER32.dll
 0004:00000654       \177USER32_NULL_THUNK_DATA 00564654     user32:USER32.dll
 0004:00000658       __imp__joyGetDevCapsA@12   00564658     winmm:WINMM.dll
 0004:0000065c       __imp__joyGetPosEx@8       0056465c     winmm:WINMM.dll
 0004:00000660       __imp__joyGetNumDevs@0     00564660     winmm:WINMM.dll
 0004:00000664       __imp__waveOutReset@4      00564664     winmm:WINMM.dll
 0004:00000668       __imp__waveOutClose@4      00564668     winmm:WINMM.dll
 0004:0000066c       __imp__waveOutUnprepareHeader@12 0056466c     winmm:WINMM.dll
 0004:00000670       __imp__waveOutPrepareHeader@12 00564670     winmm:WINMM.dll
 0004:00000674       __imp__waveOutOpen@24      00564674     winmm:WINMM.dll
 0004:00000678       __imp__waveOutWrite@12     00564678     winmm:WINMM.dll
 0004:0000067c       __imp__timeGetTime@0       0056467c     winmm:WINMM.dll
 0004:00000680       __imp__mciSendCommandA@16  00564680     winmm:WINMM.dll
 0004:00000684       \177WINMM_NULL_THUNK_DATA  00564684     winmm:WINMM.dll
 0004:00000688       __imp__inet_ntoa@4         00564688     wsock32:WSOCK32.dll
 0004:0000068c       __imp__inet_addr@4         0056468c     wsock32:WSOCK32.dll
 0004:00000690       __imp__WSACancelBlockingCall@0 00564690     wsock32:WSOCK32.dll
 0004:00000694       __imp__ntohl@4             00564694     wsock32:WSOCK32.dll
 0004:00000698       __imp__WSAUnhookBlockingHook@0 00564698     wsock32:WSOCK32.dll
 0004:0000069c       __imp__WSASetBlockingHook@4 0056469c     wsock32:WSOCK32.dll
 0004:000006a0       __imp__htons@4             005646a0     wsock32:WSOCK32.dll
 0004:000006a4       __imp__bind@12             005646a4     wsock32:WSOCK32.dll
 0004:000006a8       __imp__ntohs@4             005646a8     wsock32:WSOCK32.dll
 0004:000006ac       __imp__htonl@4             005646ac     wsock32:WSOCK32.dll
 0004:000006b0       \177WSOCK32_NULL_THUNK_DATA 005646b0     wsock32:WSOCK32.dll

 entry point at        0001:0005ffd1

 Static symbols

 0001:00048a1c       $$$$$$00001                00449a1c f   worlda.obj
 0001:000489b8       $$$$$$00001                004499b8 f   sys_wina.obj
 0001:000489cc       $$$$$$00002                004499cc f   sys_wina.obj
 0001:00048478       $$$$$$00001                00449478 f   surf8.obj
 0001:0004899c       $$$$$$00002                0044999c f   surf8.obj
 0001:00048250       $$$$$$00001                00449250 f   surf16.obj
 0001:0004845c       $$$$$$00002                0044945c f   surf16.obj
 0001:000480ec       $$$$$$00001                004490ec f   snd_mixa.obj
 0001:00047c58       $$$$$$00001                00448c58 f   r_edgea.obj
 0001:000476cc       $$$$$$00001                004486cc f   r_drawa.obj
 0001:00047544       $$$$$$00001                00448544 f   r_aliasa.obj
 0001:00047430       $$$$$$00001                00448430 f   r_aclipa.obj
 0001:000471c8       $$$$$$00001                004481c8 f   math.obj
 0001:00046928       $$$$$$00001                00447928 f   d_spr8.obj
 0001:000468ac       $$$$$$00001                004478ac f   d_scana.obj
 0001:00045dfc       $$$$$$00001                00446dfc f   d_polysa.obj
 0001:00045a38       $$$$$$00001                00446a38 f   d_parta.obj
 0001:0004511c       $$$$$$00001                0044611c f   d_draw16.obj
 0001:00044820       $$$$$$00001                00445820 f   d_draw.obj
 0001:00034180       _SCR_CalcRefdef            00435180 f   screen.obj
 0001:00024580       _PartialIPAddress          00425580 f   net_wins.obj
 0001:00022650       _PrintSlistHeader          00423650 f   net_main.obj
 0001:00022680       _Slist_Send                00423680 f   net_main.obj
 0001:00022700       _Slist_Poll                00423700 f   net_main.obj
 0001:000227c0       _PrintSlist                004237c0 f   net_main.obj
 0001:00022840       _PrintSlistTrailer         00423840 f   net_main.obj
 0001:00023530       _NET_Listen_f              00424530 f   net_main.obj
 0001:000235c0       _MaxPlayers_f              004245c0 f   net_main.obj
 0001:00023690       _NET_Port_f                00424690 f   net_main.obj
 0001:000222f0       _IntAlign                  004232f0 f   net_loop.obj
 0001:0001fcb0       _Test_Poll                 00420cb0 f   net_dgrm.obj
 0001:0001fe40       _Test2_Poll                00420e40 f   net_dgrm.obj
 0001:00020040       _Rcon_Poll                 00421040 f   net_dgrm.obj
 0001:00020220       _Test_f                    00421220 f   net_dgrm.obj
 0001:00020470       _Test2_f                   00421470 f   net_dgrm.obj
 0001:000206a0       _Rcon_f                    004216a0 f   net_dgrm.obj
 0001:00020ad0       __Datagram_CheckNewConnections 00421ad0 f   net_dgrm.obj
 0001:00021650       __Datagram_SearchForHosts  00422650 f   net_dgrm.obj
 0001:00021a80       __Datagram_Connect         00422a80 f   net_dgrm.obj
 0001:000001b0       _CDAudio_GetAudioDiskInfo  004011b0 f   cd_win.obj
 0001:00000610       _CD_f                      00401610 f   cd_win.obj
 0001:000008f0       _CDAudio_Eject             004018f0 f   cd_win.obj
 0001:00000920       _CDAudio_CloseDoor         00401920 f   cd_win.obj
 0001:0005c348       _VBE_callESDI              0045d348 f   mgllt:vesavbe.obj
 0001:0005c3e4       _VBE_copyStrToLocal        0045d3e4 f   mgllt:vesavbe.obj
 0001:0005c456       _VBE_copyShortToLocal      0045d456 f   mgllt:vesavbe.obj
 0001:0005cef6       _InitPMCode                0045def6 f   mgllt:vesavbe.obj
 0001:0005b264       _backslash                 0045c264 f   mgllt:vbeaf.obj
 0001:0005b2aa       _fileSize                  0045c2aa f   mgllt:vbeaf.obj
 0001:00057d09       _findMode                  00458d09 f   mgllt:svga.obj
 0001:0005840b       _backslash                 0045940b f   mgllt:svga.obj
 0001:00058bfd       _SVGA_set8BitPalette       00459bfd f   mgllt:svga.obj
 0001:000566d8       _FindDriver                004576d8 f   mgllt:gaccel.obj
 0001:00056cf1       _backslash                 00457cf1 f   mgllt:gaccel.obj
 0001:000563a1       _openCursorFile            004573a1 f   mgllt:cursor.obj
 0001:00055ac8       __MGL_setRVecs             00456ac8 f   mgllt:common.obj
 0001:00054b3e       _destroyDC                 00455b3e f   mgllt:windc.obj
 0001:00054bc6       _FindPixelFormat           00455bc6 f   mgllt:windc.obj
 0001:0005416c       _PumpMessages              0045516c f   mgllt:event.obj
 0001:000544fe       _AddEvent                  004554fe f   mgllt:event.obj
 0001:000547a2       _InitEvent                 004557a2 f   mgllt:event.obj
 0001:000522f1       _EnumCallBack@8            004532f1 f   mgllt:gddraw.obj
 0001:000523b1       _DD_getPixelFormat         004533b1 f   mgllt:gddraw.obj
 0001:000524e0       _FindDriver                004534e0 f   mgllt:gddraw.obj
 0001:00052824       _EnumBackBuffersCallBack@12 00453824 f   mgllt:gddraw.obj
 0001:00052875       _DDRAW_fatalError          00453875 f   mgllt:gddraw.obj
 0001:00052e49       _DDRAW_errMsg              00453e49 f   mgllt:gddraw.obj
 0001:000518fc       _saveCursor                004528fc f   mgllt:mouse.obj
 0001:000519c3       _restoreCursor             004529c3 f   mgllt:mouse.obj
 0001:0004e689       _AllocateSurface           0044f689 f   mgllt:pack8.obj
 0001:0004e73e       _destroyDC                 0044f73e f   mgllt:pack8.obj
 0001:0004e7d4       _DestroySurface            0044f7d4 f   mgllt:pack8.obj
 0001:0004e0c5       _destroyDC                 0044f0c5 f   mgllt:vga8.obj
 0001:0004de72       _destroyDC                 0044ee72 f   mgllt:linear8.obj
 0001:0004d9f4       _destroyDC                 0044e9f4 f   mgllt:accel8.obj
 0001:0004d58c       _destroyDC                 0044e58c f   mgllt:ddraw8.obj
 0001:00048c23       _RestoreFullScreen         00449c23 f   mgllt:mglwin.obj
 0001:00048dae       _ClearMessageQueue         00449dae f   mgllt:mglwin.obj
 0001:0004946a       _LoadWinDirect             0044a46a f   mgllt:mglwin.obj
 0001:0004995a       _SafeProcAddress           0044a95a f   mgllt:mglwin.obj
 0001:000499ac       __MGL_suspendAppProc       0044a9ac f   mgllt:mglwin.obj
 0001:00049b42       _LoadDirectDraw            0044ab42 f   mgllt:mglwin.obj
 0001:00049d0d       _SafeLoadLibrary           0044ad0d f   mgllt:mglwin.obj
 0001:00049d9c       _backslash                 0044ad9c f   mgllt:mglwin.obj
 0001:00049de2       _SizeMemCallBack@8         0044ade2 f   mgllt:mglwin.obj
 0001:0004a33c       __MGL_destroyWindowedDC    0044b33c f   mgllt:mglwin.obj
 0001:0004a8b6       _LoadWinG                  0044b8b6 f   mgllt:mglwin.obj
 0001:0004a97e       _LoadCreateDIBSection      0044b97e f   mgllt:mglwin.obj
 0001:0004a9fe       _MGL_clearSystemPalette    0044b9fe f   mgllt:mglwin.obj
 0001:0004ab11       __MGL_initCommon           0044bb11 f   mgllt:mglwin.obj
 0001:00068fd2       _findenv                   00469fd2 f   LIBC:setenv.obj
 0001:0006902a       _copy_environ              0046a02a f   LIBC:setenv.obj
 0001:000638ec       _strncnt                   004648ec f   LIBC:a_map.obj
 0001:000688fe       _getSystemCP               004698fe f   LIBC:mbctype.obj
 0001:00068948       _CPtoLCID                  00469948 f   LIBC:mbctype.obj
 0001:0006897b       _setSBCS                   0046997b f   LIBC:mbctype.obj
 0001:000689a4       _setSBUpLow                004699a4 f   LIBC:mbctype.obj
 0001:00068734       _x_ismbbtype               00469734 f   LIBC:ismbbyte.obj
 0001:000678e4       label0                     004688e4 f   LIBC:adj_fdiv.obj
 0001:000678ea       label1                     004688ea f   LIBC:adj_fdiv.obj
 0001:000678ef       label2                     004688ef f   LIBC:adj_fdiv.obj
 0001:000678f5       label3                     004688f5 f   LIBC:adj_fdiv.obj
 0001:000678fa       label4                     004688fa f   LIBC:adj_fdiv.obj
 0001:00067900       label5                     00468900 f   LIBC:adj_fdiv.obj
 0001:00067906       label6                     00468906 f   LIBC:adj_fdiv.obj
 0001:0006790c       label7                     0046890c f   LIBC:adj_fdiv.obj
 0001:00067912       label8                     00468912 f   LIBC:adj_fdiv.obj
 0001:0006792e       label9                     0046892e f   LIBC:adj_fdiv.obj
 0001:00067933       label10                    00468933 f   LIBC:adj_fdiv.obj
 0001:00067949       label11                    00468949 f   LIBC:adj_fdiv.obj
 0001:0006794e       label12                    0046894e f   LIBC:adj_fdiv.obj
 0001:0006796a       label13                    0046896a f   LIBC:adj_fdiv.obj
 0001:0006797a       label14                    0046897a f   LIBC:adj_fdiv.obj
 0001:0006798e       label15                    0046898e f   LIBC:adj_fdiv.obj
 0001:0006799e       label16                    0046899e f   LIBC:adj_fdiv.obj
 0001:000679be       label17                    004689be f   LIBC:adj_fdiv.obj
 0001:000679c3       label18                    004689c3 f   LIBC:adj_fdiv.obj
 0001:000679dd       label19                    004689dd f   LIBC:adj_fdiv.obj
 0001:000679e2       label20                    004689e2 f   LIBC:adj_fdiv.obj
 0001:00067a02       label21                    00468a02 f   LIBC:adj_fdiv.obj
 0001:00067a16       label22                    00468a16 f   LIBC:adj_fdiv.obj
 0001:00067a2e       label23                    00468a2e f   LIBC:adj_fdiv.obj
 0001:00067a42       label24                    00468a42 f   LIBC:adj_fdiv.obj
 0001:00067a62       label25                    00468a62 f   LIBC:adj_fdiv.obj
 0001:00067a67       label26                    00468a67 f   LIBC:adj_fdiv.obj
 0001:00067a81       label27                    00468a81 f   LIBC:adj_fdiv.obj
 0001:00067a86       label28                    00468a86 f   LIBC:adj_fdiv.obj
 0001:00067aa6       label29                    00468aa6 f   LIBC:adj_fdiv.obj
 0001:00067aba       label30                    00468aba f   LIBC:adj_fdiv.obj
 0001:00067ad2       label31                    00468ad2 f   LIBC:adj_fdiv.obj
 0001:00067ae6       label32                    00468ae6 f   LIBC:adj_fdiv.obj
 0001:00067b06       label33                    00468b06 f   LIBC:adj_fdiv.obj
 0001:00067b0b       label34                    00468b0b f   LIBC:adj_fdiv.obj
 0001:00067b25       label35                    00468b25 f   LIBC:adj_fdiv.obj
 0001:00067b2a       label36                    00468b2a f   LIBC:adj_fdiv.obj
 0001:00067b4a       label37                    00468b4a f   LIBC:adj_fdiv.obj
 0001:00067b5e       label38                    00468b5e f   LIBC:adj_fdiv.obj
 0001:00067b76       label39                    00468b76 f   LIBC:adj_fdiv.obj
 0001:00067b8a       label40                    00468b8a f   LIBC:adj_fdiv.obj
 0001:00067baa       label41                    00468baa f   LIBC:adj_fdiv.obj
 0001:00067baf       label42                    00468baf f   LIBC:adj_fdiv.obj
 0001:00067bc9       label43                    00468bc9 f   LIBC:adj_fdiv.obj
 0001:00067bce       label44                    00468bce f   LIBC:adj_fdiv.obj
 0001:00067bee       label45                    00468bee f   LIBC:adj_fdiv.obj
 0001:00067c02       label46                    00468c02 f   LIBC:adj_fdiv.obj
 0001:00067c1a       label47                    00468c1a f   LIBC:adj_fdiv.obj
 0001:00067c2e       label48                    00468c2e f   LIBC:adj_fdiv.obj
 0001:00067c4e       label49                    00468c4e f   LIBC:adj_fdiv.obj
 0001:00067c53       label50                    00468c53 f   LIBC:adj_fdiv.obj
 0001:00067c6d       label51                    00468c6d f   LIBC:adj_fdiv.obj
 0001:00067c72       label52                    00468c72 f   LIBC:adj_fdiv.obj
 0001:00067c92       label53                    00468c92 f   LIBC:adj_fdiv.obj
 0001:00067ca6       label54                    00468ca6 f   LIBC:adj_fdiv.obj
 0001:00067cbe       label55                    00468cbe f   LIBC:adj_fdiv.obj
 0001:00067cd2       label56                    00468cd2 f   LIBC:adj_fdiv.obj
 0001:00067cf2       label57                    00468cf2 f   LIBC:adj_fdiv.obj
 0001:00067cf7       label58                    00468cf7 f   LIBC:adj_fdiv.obj
 0001:00067d11       label59                    00468d11 f   LIBC:adj_fdiv.obj
 0001:00067d16       label60                    00468d16 f   LIBC:adj_fdiv.obj
 0001:00067d36       label61                    00468d36 f   LIBC:adj_fdiv.obj
 0001:00067d4a       label62                    00468d4a f   LIBC:adj_fdiv.obj
 0001:00067d62       label63                    00468d62 f   LIBC:adj_fdiv.obj
 0001:00066cb0       LeadUp1                    00467cb0 f   LIBC:memmove.obj
 0001:00066cdc       LeadUp2                    00467cdc f   LIBC:memmove.obj
 0001:00066d00       LeadUp3                    00467d00 f   LIBC:memmove.obj
 0001:00066d7f       UnwindUp0                  00467d7f f   LIBC:memmove.obj
 0001:00066d6c       UnwindUp1                  00467d6c f   LIBC:memmove.obj
 0001:00066d64       UnwindUp2                  00467d64 f   LIBC:memmove.obj
 0001:00066d5c       UnwindUp3                  00467d5c f   LIBC:memmove.obj
 0001:00066d54       UnwindUp4                  00467d54 f   LIBC:memmove.obj
 0001:00066d4c       UnwindUp5                  00467d4c f   LIBC:memmove.obj
 0001:00066d44       UnwindUp6                  00467d44 f   LIBC:memmove.obj
 0001:00066d3c       UnwindUp7                  00467d3c f   LIBC:memmove.obj
 0001:00066d98       TrailUp0                   00467d98 f   LIBC:memmove.obj
 0001:00066da0       TrailUp1                   00467da0 f   LIBC:memmove.obj
 0001:00066dac       TrailUp2                   00467dac f   LIBC:memmove.obj
 0001:00066dc0       TrailUp3                   00467dc0 f   LIBC:memmove.obj
 0001:00066e38       LeadDown1                  00467e38 f   LIBC:memmove.obj
 0001:00066e58       LeadDown2                  00467e58 f   LIBC:memmove.obj
 0001:00066e80       LeadDown3                  00467e80 f   LIBC:memmove.obj
 0001:00066ed4       UnwindDown7                00467ed4 f   LIBC:memmove.obj
 0001:00066edc       UnwindDown6                00467edc f   LIBC:memmove.obj
 0001:00066ee4       UnwindDown5                00467ee4 f   LIBC:memmove.obj
 0001:00066eec       UnwindDown4                00467eec f   LIBC:memmove.obj
 0001:00066ef4       UnwindDown3                00467ef4 f   LIBC:memmove.obj
 0001:00066efc       UnwindDown2                00467efc f   LIBC:memmove.obj
 0001:00066f04       UnwindDown1                00467f04 f   LIBC:memmove.obj
 0001:00066f17       UnwindDown0                00467f17 f   LIBC:memmove.obj
 0001:00066f30       TrailDown0                 00467f30 f   LIBC:memmove.obj
 0001:00066f38       TrailDown1                 00467f38 f   LIBC:memmove.obj
 0001:00066f48       TrailDown2                 00467f48 f   LIBC:memmove.obj
 0001:00066f5c       TrailDown3                 00467f5c f   LIBC:memmove.obj
 0001:00066407       _strtoxl                   00467407 f   LIBC:strtol.obj
 0001:00066390       _xtoa                      00467390 f   LIBC:xtoa.obj
 0001:00065d1f       _parse_cmdline             00466d1f f   LIBC:stdargv.obj
 0001:00065b32       _xcptlookup                00466b32 f   LIBC:winxfltr.obj
 0001:00064f31       fFEXP                      00465f31 f   LIBC:87tran.obj
 0001:00065071       _rtforexpinf               00466071 f   LIBC:87tran.obj
 0001:00064248       _gu_return                 00465248 f   LIBC:exsup.obj
 0001:00064250       __unwind_handler           00465250 f   LIBC:exsup.obj
 0001:00064175       _store_dt                  00465175 f   LIBC:asctime.obj
 0001:00063d36       _cvtdate                   00464d36 f   LIBC:tzset.obj
 0001:000638ec       _strncnt                   004648ec f   LIBC:a_map.obj
 0001:000632a7       __get_fname                004642a7 f   LIBC:fpexcept.obj
 0001:00062bb8       __hextodec                 00463bb8 f   LIBC:input.obj
 0001:00062bef       __inc                      00463bef f   LIBC:input.obj
 0001:00062c09       __un_inc                   00463c09 f   LIBC:input.obj
 0001:00062c20       __whiteout                 00463c20 f   LIBC:input.obj
 0001:000619fd       _write_char                004629fd f   LIBC:output.obj
 0001:00061a32       _write_multi_char          00462a32 f   LIBC:output.obj
 0001:00061a63       _write_string              00462a63 f   LIBC:output.obj
 0001:00061a9b       _get_int_arg               00462a9b f   LIBC:output.obj
 0001:00061aa8       _get_int64_arg             00462aa8 f   LIBC:output.obj
 0001:00061ab8       _get_short_arg             00462ab8 f   LIBC:output.obj
 0001:00060dff       __cftoe_g                  00461dff f   LIBC:cvt.obj
 0001:00060e26       __cftof_g                  00461e26 f   LIBC:cvt.obj
 0001:00060e9a       __shift                    00461e9a f   LIBC:cvt.obj
 0001:00060964       _init_namebuf              00461964 f   LIBC:tmpfile.obj
 0001:000609c5       _genfname                  004619c5 f   LIBC:tmpfile.obj
 0001:00060570       LeadUp1                    00461570 f   LIBC:memcpy.obj
 0001:0006059c       LeadUp2                    0046159c f   LIBC:memcpy.obj
 0001:000605c0       LeadUp3                    004615c0 f   LIBC:memcpy.obj
 0001:0006063f       UnwindUp0                  0046163f f   LIBC:memcpy.obj
 0001:0006062c       UnwindUp1                  0046162c f   LIBC:memcpy.obj
 0001:00060624       UnwindUp2                  00461624 f   LIBC:memcpy.obj
 0001:0006061c       UnwindUp3                  0046161c f   LIBC:memcpy.obj
 0001:00060614       UnwindUp4                  00461614 f   LIBC:memcpy.obj
 0001:0006060c       UnwindUp5                  0046160c f   LIBC:memcpy.obj
 0001:00060604       UnwindUp6                  00461604 f   LIBC:memcpy.obj
 0001:000605fc       UnwindUp7                  004615fc f   LIBC:memcpy.obj
 0001:00060658       TrailUp0                   00461658 f   LIBC:memcpy.obj
 0001:00060660       TrailUp1                   00461660 f   LIBC:memcpy.obj
 0001:0006066c       TrailUp2                   0046166c f   LIBC:memcpy.obj
 0001:00060680       TrailUp3                   00461680 f   LIBC:memcpy.obj
 0001:000606f8       LeadDown1                  004616f8 f   LIBC:memcpy.obj
 0001:00060718       LeadDown2                  00461718 f   LIBC:memcpy.obj
 0001:00060740       LeadDown3                  00461740 f   LIBC:memcpy.obj
 0001:00060794       UnwindDown7                00461794 f   LIBC:memcpy.obj
 0001:0006079c       UnwindDown6                0046179c f   LIBC:memcpy.obj
 0001:000607a4       UnwindDown5                004617a4 f   LIBC:memcpy.obj
 0001:000607ac       UnwindDown4                004617ac f   LIBC:memcpy.obj
 0001:000607b4       UnwindDown3                004617b4 f   LIBC:memcpy.obj
 0001:000607bc       UnwindDown2                004617bc f   LIBC:memcpy.obj
 0001:000607c4       UnwindDown1                004617c4 f   LIBC:memcpy.obj
 0001:000607d7       UnwindDown0                004617d7 f   LIBC:memcpy.obj
 0001:000607f0       TrailDown0                 004617f0 f   LIBC:memcpy.obj
 0001:000607f8       TrailDown1                 004617f8 f   LIBC:memcpy.obj
 0001:00060808       TrailDown2                 00461808 f   LIBC:memcpy.obj
 0001:0006081c       TrailDown3                 0046181c f   LIBC:memcpy.obj
 0001:0006015b       __abstract_cw              0046115b f   LIBC:ieee87.obj
 0001:000601ed       __hw_cw                    004611ed f   LIBC:ieee87.obj
 0001:000600ec       _fast_error_exit           004610ec f   LIBC:wincrt0.obj
 0001:0005fec3       _doexit                    00460ec3 f   LIBC:crt0dat.obj
 0001:0005ff5c       __initterm                 00460f5c f   LIBC:crt0dat.obj
 0001:0005e7db       __expandtime               0045f7db f   LIBC:strftime.obj
 0001:0005ebca       __store_str                0045fbca f   LIBC:strftime.obj
 0001:0005ebf1       __store_num                0045fbf1 f   LIBC:strftime.obj
 0001:0005ec60       __store_number             0045fc60 f   LIBC:strftime.obj
 0001:0005eca9       __store_winword            0045fca9 f   LIBC:strftime.obj
 0001:0005daa0       _flsall                    0045eaa0 f   LIBC:fflush.obj

FIXUPS: 5ec41 1d ffffff0e 1e 26 23 fffffe38 9 18 3c 32 34 1b fffffedc 8
FIXUPS: 5e9d5 19 ffffff6d 5 a cc5 ffffff40 d 30 ffffff70 1d fffffe3a 1d
FIXUPS: 5f290 1e 20 c 29 17 26 fffffe50 13 fffffd63 16 ffffff39 41 37 ffffff3e
FIXUPS: 5ee22 13 ffffffac 11 b ffffff52 32 19 ffffff45 1581 11 24 d ffffff82
FIXUPS: 60235 9 ffffffa4 24 8 ffffffab b ffffffde fffffdea 22 16 1a 15
FIXUPS: 5fffb fffff729 8f 165 14c 96 68 5c 4f 1a7 16 1a5 fffff719 63 105c
FIXUPS: 60759 2a 10 1b 2a 10 fffffecc 5d fffffd5d 14 1b 25 14 10 d 10 b
FIXUPS: 6054b 3b 14 60 7 14 7 fffffdff ffffffca ffffffec ffffff7d 13 14
FIXUPS: 60390 981 c2 32 fffffe6b 17 9 c 1e 12 fffffcb0 181 59 23 3e 29
FIXUPS: 60bf6 11 e fffffc9d 1e 20 c 29 17 26 fffffe95 12 2a 10 1b 2a 10
FIXUPS: 614af f 15 fffffc4a 17 20 fffffed8 c 9 10 a 5 5 12 24 9 11 e e
FIXUPS: 610da 1c 9 fffffeae c ffffffdd fffffef4 f 11 11 73 11 ffffff2b
FIXUPS: 61d20 2d 9 1f 27 45 12 24 23 2e 16 13 19 b fffffbcb ffffff96 ffffff11
FIXUPS: 61930 c 1d 24 2e 6 b 13 d 1c 7 fffffeca 2b 10 fffffb8f 14dd 17
FIXUPS: 629a5 18 5e 32 37 fffff785 b 29 38 1b fffffe81 19 12 58 e fffffdf9
FIXUPS: 620a2 fffffe6e ffffffc3 fffffbbb 1b ae 1b 3d 13 26 41 a4 1d 20
FIXUPS: 62fb1 e 82 fffffef4 ffffff91 fffffdff 48 50 22 fffffe05 e5 fffff739
FIXUPS: 623e1 99 19 68 89 d 2e 25 d9 bf 3b 18 c 15 8 77 12 96 16 1c d99
FIXUPS: 6370c a6 1f 4f 17 2b 6f 33 27 c 19 2b 11 29 17 49 3d 1e 23 17 60
FIXUPS: 63b34 46 e a 38 39 16 14 8 fffff526 ebf 22 107 8c 17 1d 40 9 d
FIXUPS: 6426d 8 ffffef5d 25 8 b 12 53 f8 e a8 32 2c 23 1f 2c 37 2d 17 2f
FIXUPS: 63683 1a 30 13b8 7 17 e 1e 2e 2b 42 ba 4f 2f 15 fffffa93 7c b4
FIXUPS: 6465f 10 fffffea4 3e fffffec0 16 fffff849 1c 1c 26 b 31 b f 102
FIXUPS: 63f36 ca 233c fffffc24 12 1d 5 55 3c 7 2f b2 15 fffff610 109 f
FIXUPS: 653bf fffffe85 ffffff76 24 ffffff32 d d c 19 11 fffffee5 66 fffffe42
FIXUPS: 64ef7 fffffa2a 2f 11a 15 226e 17 fffffed7 19 14 14 12 f e 9 17
FIXUPS: 66b7f 22 fffffe58 fffffe21 fffffe70 38 18 28 b 1f 2f 11 6 38 fffffe16
FIXUPS: 6662a 13 29 fffffdc4 5e 7 f6c ffffff75 7 d ffffffb4 ffffffa8 24
FIXUPS: 6729c fffffe69 16 8a 15 13 1a 14 d 11 12 16 19 fffffe11 d 11 2f
FIXUPS: 670dd fffffe93 23 44 13 fffffcaf 35 f e75 ffffffbe 9 fffffc1e 17
FIXUPS: 677aa f 151 12 16 c 1d 18 a c e 17 10 24 54 16 20 c 21 c fffffc09
FIXUPS: 6763a fffffdf5 bd 2b 1c eb 2646 10f 6f fffff990 10c 3a 31 5 151
FIXUPS: 69a63 28 aa fffffbf7 ffffff0c ffffff62 45 10 16 c ffffee1a 71 61
FIXUPS: 685e9 4a 78 76 fffffb74 ffffff98 fffffd74 19 ffffffbe fffffbbe
FIXUPS: 6a421 9 d 9 fffffc82 14 18 18 96 6 a 6 1b 4b fffffc48 2b 1c 1b
FIXUPS: 69edd 21 1c 1f 28 28 8 11 24 25 6c 10 12 fffffbd4 fffe25f7 29 2a
FIXUPS: 4c2c5 21 1b 2e 16 21 1e5be 11 ffffff5f fffffede 14 19 1b 11 19
FIXUPS: 6a7eb 3f 7 37 fffffd53 47 41 10c fffffbc5 1d 4e 19 46 1d fffe1858
FIXUPS: 4bc5f 1f 35 38 1b 9 20 9 20 9 d 18 3b 83 19 d 1a7 26 26 26 25 25
FIXUPS: 4c0f2 29 29 1b 26 1d 26 29 32 fffff16f 1e 21 1fb 107 b6 73 21 d
FIXUPS: 4b83c 17 12 d d 12 8 60 18 18 18 18 68 18 149 1c b 1f 11 3b 47
FIXUPS: 4bc16 9 ffffee7c 10 d 10 12 48 5 37 e6 ef 13 64 182 43 8e 6f 60
FIXUPS: 4b154 1a 1b 33 26 18 2b 36 16 42 1d 11 11 5e 30 fffff3af 18 18
FIXUPS: 4a777 18 18 18 18 18 18 18 18 18 18 18 18 18 18 18 18 18 18 18
FIXUPS: 4a98c c 24 65 18 1b f 20 c fffff6a9 259 33 8 5 75 18 6c 2a 13 18
FIXUPS: 4a537 18 18 18 18 18 18 18 18 18 18 18 18 18 18 18 18 18 18 18
FIXUPS: 4a717 35a8 c 22 10 10 2e 68 ffffbe1b 34 f f 30 1d 6d f d c c 10
FIXUPS: 49d1b c 10 12 24 5 8d 43 5 30 a0 9d a 2caf 2f 3f 25 14 17 30 24
FIXUPS: 4cd8b 25 33 179 2b 36 16 27 30 12 1e 21 af7 18 a c 40 44 c 22 10
FIXUPS: 4dc72 2b 15 948 12 ffffddd0 11d af 23 28 2c7 83 25 10 d c 88 33
FIXUPS: 4caae 19 8 6 1c 28 c 8 a 8 10 67 15 c 1e 40 16 1c44 4c d8 30 32
FIXUPS: 4ea21 41 12 fffff76c 1f 1b 1b 1d 1d 1d 1d 1d 1d 1d 1d 1d 1d 1d
FIXUPS: 4e391 82 c 4c e4 1b c 37 c 620 1f 1f 1f 1f 1f 82 c 4c d8 3b 32
FIXUPS: 4ee9f 41 12 fffff75e 1f 1b 1b 1d 1d 1d 1d 1d 1d 1d 1d 1d 1d 1d
FIXUPS: 4e801 82 f45 17 22b 36 c6 182 7d 1a 3d 1a ba 11e ffffefd7 1f 68
FIXUPS: 4f084 30 32 41 12 42 38 fffff8f2 21 1d 1d 1f 1f 1f 1f 1f 1f 242b
FIXUPS: 512a6 1f 24 46 14 151 c d c ffffeb9c 18d 57 843 12 f 5e 20 f 4f
FIXUPS: 50b88 ffffe675 214 2b cd 14f c 40 89 32 41 12 3415 3f 113 8 c9
FIXUPS: 52e5d a3 1d 3e fffff238 5d 47 1e3 1f fffff426 97 95 a7 f0 2d 73
FIXUPS: 51bd6 68 e 14 fffff04b 166 27 42 d6 3a 31 3bbe 15 4f 2e 7d 135
FIXUPS: 54df2 3b 35 3b 35 7c a9 ffffdfdc 4d 18 be fffff578 13 20 43 1f
FIXUPS: 5270c 1b8 c 8 12a 75 8 8d 38 64 2ad9 2f 26 61 5a ffffdac6 3b 3f
FIXUPS: 53399 2cf 3c 1b 3f d1 201 4a 5c 7c 15 6f 15 e3 15 19 41 70 26 63
FIXUPS: 53de4 c41 46 c8 29cc fffff535 11 11 11 11 11 11 11 11 1ef b9 fffffa75
FIXUPS: 567f8 1f 3b 19 fffff012 f3 20e 12 8b 98b 45 45 4b 1e ffffe981 17e
FIXUPS: 554e3 b6 ca 282e 2b 26 11 d cf 1b 103 2c 73 8b 49 3a2 1c 50 4d
FIXUPS: 5874e 4c 4d 36 50 21 1d 34 9a 27 48 ffffe809 21 1ba e3 3e e3 12
FIXUPS: 576c2 c3 2eb 1a 23 1e d 15 e 12 15 e 17 d a e 12 4e 6f 2b 3b 26
FIXUPS: 57cde 21 78 1a 23 1e 12 4e 1a80 10 a a 21 20 80 54 117 14 6f 81
FIXUPS: 59c1d ea 3a 1c e 47 8c 15f 183 ef 52 88 36 11 ffffd213 12 2b 1a
FIXUPS: 575ac 12 1c2a 12 2e 20 24 5c 7b 1c 26 36 26 17 21 6b 4e 25 22 12
FIXUPS: 59559 20 24 4c 7b 1c 26 21 11 d 8b 34 6e 8f bf7 165 a b7 11c e7
FIXUPS: 5a996 ffffe09f 53 27 c 3e c2 a5 22 56 b5 214 36 db 4e 25 22 d 15
FIXUPS: 59177 12 15 e 17 d a 3183 1f 19 6c 56 47 3a 3a 33 60 2c 4a 6b 5b
FIXUPS: 5ba95 ffffffce fffffff6 ffffffd4 fffffff6 ffffffd4 fffffff6 ffffffec
FIXUPS: 5b9cf ffffffe0 fffffff6 ffffffd1 fffffff6 ffffffe0 fffff882 1b9
FIXUPS: 5a36a 113 1ac9 17 17 17 17 9b 14 14 20 15 10 f 14 14 35 f 14 14
FIXUPS: 5c185 12 2c 23 f f 1c 31 21 46 13 c 15 1f 19af 5a 4f 35 35 35 35
FIXUPS: 5dec6 71 27 41 1f 90 29 48 4b 27 9b 1f 19 ffffe594 fffffff6 fffff385
FIXUPS: 5bbed 7f 38 56 53 53 53 92 71 12f2 2b 4b 32 1f 1f 1f 21 67 31 16
FIXUPS: 5d3d8 2e 10 62 10 53 35 1cb 117 24 48 5d 52 57 76 6f 6f 89 4e 6a
FIXUPS: 5dc45 fffa3af0 c 11 13 11 f 6 9 11 15 c e c e c e 15 5 18 22 68
FIXUPS: 18dd 36 30 17 23 5cb9b ffffffdc fffffe7f ffffffb9 ffffee39 6e fffa408b
FIXUPS: 12c2 5f 86 61 11 8 19 6d 12 f 14 32 3d 3a 3f e 1c a 1b 14 d 1b
FIXUPS: 1664 18 1b 13 e c 21 2d 6 cf1 7 36 11 11 18 5a a0 20 f 9 fffff3e4
FIXUPS: 19a0 a a a 43 47 58 12 99 fffff4d5 72 1e 3a 24 39 3a 1b 53 1c 36
FIXUPS: 216e f 17 f b 9 14 11 11 16 1c 4c 25 20 b 14 c b 14 c b 18 2a b
FIXUPS: 2369 1b 11 c c 8 36 f fffff934 15 1b 7 b 90 3d 3f 1e d 3d 31 1b
FIXUPS: 1f9a 1d 37 1d 3d e c 5 b 1e 2b 1f 16 9 11 18 1e 16 6 fa6 f f f
FIXUPS: 3141 f f f f f f f 12 f f f f f f f 12 f f f a a ffffe968 2f 62
FIXUPS: 1c7f a 7d 103b 16 22 16 d3 12 8 ab 12 28 1e 19 7 8 7 8 7 4a c 1e
FIXUPS: 304b f f f f f f f 12 f f f fffff7f3 10 10 10 10 10 10 10 10 10
FIXUPS: 2986 d 6 1f a 6 3d e0 1f 20 17 a 1f 22 d 4e e2 d 16 16 19 16 16e0
FIXUPS: 4415 a ffffe1c7 f 75 1d 15 9a 10 10 10 37 19 10 10 10 10 10 10
FIXUPS: 2826 10 10 10 10 10 10 10 10 10 10 10 19b5 a a a a a a a d a a
FIXUPS: 42fc a a f f f f f 12 f f f f f a a a a d a a fffffc24 2b 8 5 34
FIXUPS: 409a 9 20 11 18 12 d 3e 14 3c 14 2b c c c c c b 1c 5 5 a a a a
FIXUPS: 4277 a fffff523 33 34 8 28 c 36 14 49 1b3 44 2c 3c 21 d 9 e1 3c
FIXUPS: 3db1 f 2d 10 8 36 20 2f 1a 68 6 48 a0 11 fffff469 e 34 2d 16 11
FIXUPS: 3532 f 36 11 b c b 14 b c 16 14 45 15 42 18 9 15 10 18 28 20 12
FIXUPS: 3773 f 8 270b 8 11 a a 29 15 1e 25 14 6 20 12 35 ffffd2c6 19 90
FIXUPS: 3344 19 a a c 10 a c 1d 31 10 2e 9 16 19 283d 13 a f d 5 15 8 3f
FIXUPS: 5d43 15 8 21 5 15 8 1d d a 6 6 d a a e 7 d 7 d 17 e 20 fffffaf1
FIXUPS: 59a4 22 39 22 15 13 8 3a c 23 31 10 6 d 16 12 8 8 b d a 5 6 d a
FIXUPS: 5ba3 bc f 11 18 7 fffff560 8 1b 5 a 22 2e 29 24 5a 42 c b 6 8 fb
FIXUPS: 54b9 1a b 37 d5 1d 1b 119 b4 37 26 1c 16 27 3d 31 fffff523 5 12
FIXUPS: 4e57 b 10 1e 1f 2c 12a 25 67 20 d 7 8 22 13 d 13 a 16 5 18 5 16
FIXUPS: 5182 22 5 16 24 5 fffff809 14 2e 36 1b 2a 2e 15 3f 15 15 15 15
FIXUPS: 4b99 7d b 8 8 10 8 25 22 54 24 24 10 5a 1b 16 a 16 5 fffff8f8 32
FIXUPS: 4727 a a f a d 1d 3f 12 21 3f 12 26 e 13 1a a e 14 5 5 26 14 14
FIXUPS: 493b 2d f f 7 6 1d9c 6 d2 43 3d 1c 39 ffffdb73 4b c 16 1d 7 21
FIXUPS: 4511 32 26 50 1f 35 27 c 10 a c 13 12 1e d 8 5 12 1d9f 4b c 8 8
FIXUPS: 64e7 1d 13 6 13 6 13 6 13 6 c 8 8 c c 8 8 c d 8 8 8 7 b 7 4b 12
FIXUPS: 623f c 8 8 18 1e c 8 8 15 8 29 c 26 2d c 8 8 15 8 29 c 26 2e c
FIXUPS: 6428 8 15 c 8 8 c 160c a b 16 a7 f f f f f f f ffffe4b2 f f f f
FIXUPS: 60b1 f 18 7 8 8 8 8 8 47 99 15 8 8 15 141f f 9 13 9 10 13 b f 8
FIXUPS: 7718 1b 40 2c c 14 c 1b 1c 35 32 11a 8 37 1c 13 39 16 9 e b f fffff5e5
FIXUPS: 7076 c 8 19 21 15 15 14 d 6a 5d 1c 7 18 32 f 14 1e 14 51 9f 1d9
FIXUPS: 7569 21 27 1e b a b 26 b fffff69f 4a e 1d 9 9 1d f b 9 6 10 b b
FIXUPS: 6dbd 6 6 1e a b 9 e 22 48 f 23 17 20 62 e 43 12 fffffa3f 10 13
FIXUPS: 6a13 3c 79 11 40 13 20 15 a a a a a a a a a a 11 a f d a a f 24
FIXUPS: 6c66 2a 19 29cc 13 28 9 29 86 89 6 a 18 6 d 18 6 17 38 6 d 5c 16
FIXUPS: 995c 24 58 58 16 ffffcf15 1e 1e c c 22 f 281e 20 3f 27 20 18 13
FIXUPS: 92e3 c b 9 8 16 1b 32 1c 28 29 1e e 1e 27 3e 26 12 14 9 1d 90 4c
FIXUPS: 9627 45 fffff6e1 9 18 16 e 6 33 2e 10 b 6 29 e 10 6 41 e2 f 1f
FIXUPS: 8fc4 2d 32 2f 10 25 88 f 1a 3d 10 29 11 fffff46b 21 1e 9 10 a 4e
FIXUPS: 8778 52 f 1cc 3f 1d 1a 1a 9 28 1d f 14 92 5c 27 c7 a f 8 5 19 16
FIXUPS: 8d00 10 112c 33 ffffdeea 40 c ec 1d4 31 e4 20 20 46 27 c c 1e a
FIXUPS: 8277 28 18 28 1d8 1d 21 20 20 36 59 13 14 6 30 2788 27 11 29 21
FIXUPS: ae74 62 85 99 6c 17 28 37 15 38 73 38 ffffe914 37 2e 7b 23 13 e
FIXUPS: 9c11 b 1b 9a 8c 1b 25 80 820 a a a a a f f f 12 f f 14 40 189 ba
FIXUPS: a96b eb 13 26 10c f8 21 9 1d 6 19 14 11 1d 21 2e fffff36b e 28
FIXUPS: a137 11 1b 94 57 1a 11 80 46 4e 12 56 3a 46 35 48 16 12 26 76 c
FIXUPS: a5cf 14 9 9 b 12 12 f f9c 6f 1b 15 10 6 25 d 27 14 10 14 11 7 a
FIXUPS: b740 c 7 a c7 6 10 16 11 9 25 26 ffffe7b6 27 30 19 9 1252 9 12
FIXUPS: b360 b 6 1e 1c f f f 1f 31 18 18 21 12 12 1e 1a b 6 7 a 9 18 6
FIXUPS: b525 a 27 1b 53 727 9 35 c 9 79 8 6 9 9 54 8 1b c 17 13 bb fffff2f7
FIXUPS: b242 8 19 20 18 16 14 d f f b 6 1c 9 fd1 b 4e 143 13f 14c 14a 26
FIXUPS: c8cb 47 29 fffff77f aa 19 a1 fffffd52 a a 3d 10 60 fffffa0f 10
FIXUPS: baf8 33 28 2c 22 5d 76 9 65 17ad e 9 111 2a 3c 3c 6a e 49 5 5 c
FIXUPS: cfe8 27 1b 56 34 29 21 fffff8fb 68 5b 2c 11e e1 26 8a 24 8b 24
FIXUPS: ced8 1d72 5 2b 26 ffffeaa9 11 10 53 58 3f 84 1e 20 6f d3 18 21
FIXUPS: db88 82 fffff5d0 20 29 18 10 a ab 59 83 18 12 a 71 2c2e 20 18 5
FIXUPS: 100f1 5 5 5 e ffffdb1a 83 39 11 14 9 14 f f 228 61 43 d9 1f1 2c5
FIXUPS: e5bc 3f 4a3 b 139 5 5 59 1338 5 a 5 5 5 5 5 5 5 5 5 a 19 8 15 16
FIXUPS: 1001c 16 f 8 5 5 5 5 5 5 a a a c 5 fffffbf8 1e 12 17 15 17 16 12
FIXUPS: fd5c 9 12 3b 17 18 1c 36 15 14 16 1c 45 4c 1b 7 8 d 5 5 5 5 5 6
FIXUPS: f9d8 15 10 9 26 9 5 5 5 e 5 e e 20 18 b 18 28 8 1b 8 2a 7 1d 19
FIXUPS: fb9a 34 c c 8 39 4b fffff8ea 26 b 8 26 8 8 26 b 5c 7 30 19 e 14
FIXUPS: f6ed 37 b 12 2c 69 8 5 f 11f a 6c 9 19 5 5 20 fffff817 13 10 10
FIXUPS: f228 6 6 b 6 28 1d f 13 d e e 9 2b 10 16 2b 30 17 48 10 16 35 18
FIXUPS: f46e 40 22 27 fffffb42 a a a a a a a a a a a f d a a a a a a a
FIXUPS: f111 2d 2b 9 14 12 15 b b 11 b 4325 f f a ffffb79d 11 13 1d 11
FIXUPS: ed20 7 c 25 12 14 11 13 1d 8 20 19 2c 2b 1c 1e 5a 21 10 f5 a a
FIXUPS: f02f 42e9 f f f 12 f f f f f f f 12 f f f f f f f 12 f f f f f
FIXUPS: 134a7 f 12 f f f fffff986 43 9 3b 9 78 1f 22 12 19 43 15 12 f 13
FIXUPS: 130a2 9 64 47 f 2d 76 9 1b f 22 35 10 3a f f f fffff81c e 6 2f
FIXUPS: 12b86 10 f 45 7 11 f 3b 7 29 c 14 13 1c a 3c 2c 5 21 5 7f e f 21
FIXUPS: 12e2e 1e 19 10 fffff5ae 10 a 37 37 9 6 52 1d 2a 2d 38 38 2e 3c
FIXUPS: 126c7 54 6d 69 6e 72 59 5d b9 58 1b f 9 10 b 18 18 fffff562 10
FIXUPS: 12098 11 14 f 11 11 10 10 27 13 20 1b 15 11 10 4c 4e 34 15 9 12
FIXUPS: 122bd e 94 13 54 a 6 20 6 fffff918 21 12 10 27 7 3a a1 8 2a 14
FIXUPS: 11eb8 10 1b 2f f 16 10 10 11 11 10 19 2f 13 11 20 11 10 10 11 10
FIXUPS: 118e3 c 6 9 6 41 16 59 2a 17 25 22 3a 28 1d 4b f 11 19 1a 1b 10
FIXUPS: 11b95 46 20 3b 7 20 13 1f 7 28 fffff735 e 52 93 b 48 46 c d cc
FIXUPS: 1169e 18 1d 10 1d 21 c 22 e 8 e 11 d 93 7 41 2a 10 14 a d c fffff6a7
FIXUPS: 10f99 51 36 17 53 11 b 2d 11 33 36 8 13 15 d c a 4a 16 16 53 1d
FIXUPS: 1129c 47 22 21 2a 17 29 a 45 fffff929 18 1a 10 14 14 7 6 13 a 1d
FIXUPS: 10dcf f 1b 17 11 11 11 16 19 11 10 1c 17 18 e 1b 12 f 5 c 16 fffff9d7
FIXUPS: 1092d 2b 13 62 14 29 5 9 2b 8 8e 73 1c 1b e f 14 9 11 4a 17 11
FIXUPS: 10c51 11 13 13 16 9 f 22 20 fffff7a1 22 f 11 24 51 22 18 47 18
FIXUPS: 10602 18 16 12 e 47 b 50 8 e b a 5e 40 2b 47 25 a 5e 10 2d f 433e
FIXUPS: 14c62 1e 1e 1e a1 2c 9a 1f 94 2f 73 1c 2ef ffffaec3 5 7 8 2d 24
FIXUPS: 10266 5f 3d 12 7a 18 18 3b 20 f 11 25 427c 1a1 6 8a 22 a a a a
FIXUPS: 1495f a a a a a a a a a a d a a a f 1a 71 3c 49 89 82 e fffff35d
FIXUPS: 13f96 1d 34 1b 29 41 21 10 42 a a a a 16 d a f 8 5 5 1d 5 83 1f
FIXUPS: 1427d ad c 12 c 160 26 1732 a ffffd934 5 a 8 5 64 35d d b9 15 74
FIXUPS: 13a8b 2c 1d e 29 e 3c 6b a 160 90 73 31 4d 27 2b 28 e 13 1770 14
FIXUPS: 156d3 17 14 e d 17 9 42 31 16 9 10 8 31 1b7 25 61 e 19 3b 31 29
FIXUPS: 15b2f 67 a 20 19 9 13 11 11cf f a 14 13 13 39 ffffe664 26 32 1f
FIXUPS: 15550 9 17 14 e d 8 2f d f 14 b 9 17 14 e d 7 b f b 107c 1b 18
FIXUPS: 16754 f 6 12 b 20 e f b 55 49 24 1c f 229 f f f c3 b 46 c 3e c
FIXUPS: 16cd6 15 46 41 57 219 18 2d 32 1b ffffed97 83 5b 9b 13 2ba a 1a
FIXUPS: 162b1 114 d a 172 1e 9d 19 b c 18 f b 6 f b f 2b 35 730d 12 6d
FIXUPS: 1daa1 ffff9caf 88 29 e 33 26 19 3d 304 fffff58b 29 4ab 26 7 10
FIXUPS: 17666 1b 7 18 8 f fffff81e 18 b 18 d 4d 6a 6812 7 7 7 7 7 7 7 7
FIXUPS: 1d825 7 13 12 5 5 76 12 12 12 12 12 12 12 16 12 12 12 12 12 12
FIXUPS: 1d9e3 12 fffffaf4 c 2d 2e 41 6 b4 f f f f f f f 12 f f f f 55 8
FIXUPS: 1d764 5 11 34 7 7 7 7 7 7 7 fffff86c 11 6 8 32 6 37 6 26 6 c d9
FIXUPS: 1d206 17 d e 11 37 e 21 d4 9 f 40 17 39 1b f 24 1c 20 2d fffff5a6
FIXUPS: 1cac9 2d 14 1f 35 11 11 11 11 cf 30 25 2c 1e 22 29 29 22 29 27
FIXUPS: 1ce18 29 131 c 2a 3a 7 1c 7 f 23 fffff5f2 f6 a a 17 10 11 e 13
FIXUPS: 1c7a0 e 2e 11 17 2e 26 11 62 11 27 10 b d 11 27 10 b d 11 50 11
FIXUPS: 1ca33 fffff77f a 19 37 9 10 24 14 17 11 1e d 17 15 18 15 14 1d
FIXUPS: 1c357 26 1d 27 1c 3d f 2d 40 16 a 3b 6 114 fffff5be a a 19 2e 15
FIXUPS: 1bc4c 18 1e 2a 15 14 14 1e 2a 14 14 15 1e 29 17 11 11 1e 37 d 2b
FIXUPS: 1becf 5c 1e 23e 21 fffff363 14 18 11 11 12 18 1a 12 1d 1e 18 15
FIXUPS: 1b637 1b 15 14 1e 1e 2a 1c 3d f 2d 3d c3 e6 59 d 3b 6 f fffff7ec
FIXUPS: 1b215 e e e e 11 e e e e e 11 e e e 11 11 14 11 11 11 11 ff a a
FIXUPS: 1b485 36 9 14 10 11 fffff710 30 2d 11 1e 2e 13 10 27 20 184 6 a
FIXUPS: 1aed3 14 a e e 11 e e 11 11 18 6 a 20 6 d 27 115 75 fffff6b7 2d
FIXUPS: 1a879 2d 51 a a 17 28 e 49 e 2d e 2d e 2d e 2d 28 e 2e e 2d 11
FIXUPS: 1ab6d 11 30 11 14 11 14 fffff97c 14 f 2d 2d 3b f f f f f 14 f f
FIXUPS: 1a6b8 f f 27 f f f f f f 14 f f f f f f 2d fffff8da 12 31 17 25
FIXUPS: 1a175 d 1b b e 2c 9 e 38 18 1f 2d 25 12 9 36 e 2c 37 a 1e 1b 13
FIXUPS: 1a4b9 89 f 14 fffff6f3 e 18 e 47 e b d e 2c 11 b 10 11 1d 1d b
FIXUPS: 19dc5 14 1e 2c 2d 12 d a b 8 a 10 26 2b 174 fffff87b 14 f f f 37
FIXUPS: 19979 37 37 90 14 1b 17 6 25 17 17 a a 17 e e e 11 24 e 24 e 20
FIXUPS: 19c0e 24 e fffff6be 1c 1b 14 14 6 18 38 c 2e 3f 7 146 5d 33 3b
FIXUPS: 19676 44 33 3c 33 3b 32 42 33 27 f f f 27 f f fffff4d9 29 3d f
FIXUPS: 18e52 39 76 16 6 13 16 2c 6 12 f 219 14 a a 17 16 11 16 11 1d d
FIXUPS: 19286 d 17 a 13 1b fffff760 c 2d 3b 22 22 c0 11 e 2f a a 17 e 10
FIXUPS: 18c62 11 10 11 e e 13 11 a d a 1a d 14 1c 1d 2a fffff84c 16 22
FIXUPS: 18632 16 17 16 22 1b 30 c 23 10 6 f 26 d6 1f 6 f 26 da a a 17 a
FIXUPS: 189a5 11 14 6 18 2f fffff74d 7 7 7 dd a a 17 a a 11 14 6 18 2a
FIXUPS: 1830e 2d 3f 7 15 24 d a eb 11 18 12 f 24 50 41 d fffff8a3 b 21
FIXUPS: 17e9f a 21 11 15 b 1c 8 a 1a 16 b 3a 16 5 4d a a 17 a a 11 14 6
FIXUPS: 18088 64 c 29 3c 7c63 3c 19 24 57 e 6f 4c 39 21 37 29 45 22 af
FIXUPS: 20163 b 29 29 13 12 d ffff7a2e 31 3b 44 30 105 1d b a 1e 76eb 9
FIXUPS: 1f551 8a 2c 9 c2 83 56 3c 39 37 25 43 46 26 3c 31 22 29 40 71 22
FIXUPS: 1facd 22 b5 26 1a 3f 14 11b 4f ffffee39 5f 5a 21 145 4a 29 13a
FIXUPS: 1efc1 130 e4 1a 4c 5b 1b 84 21 fd 43 35 9 9 9 9 9 9 9 9 9 9 9 9
FIXUPS: 1df57 9d 25 86 10 ce be 3e 63 9c 70 70 78 21 8a 19 122 1b 95 24
FIXUPS: 1e7e2 c a4 154 5 16 8 33 54 20 b4 52 41f8 31 19 19 39 27 42 8 a0
FIXUPS: 22f84 f 9 ffffab64 f 13 29 113 6d 9d d f 54 1b 29 33 1b 16 2e 10
FIXUPS: 1ded0 18 a 4a86 d 97 31 6c 3a 4c 8 22 c c f c c c c b b 59 6c 18
FIXUPS: 22ce3 1e 8 5 22 1e 12 c 8 d 15 fffff739 f 4c c c 18 14 11 5c 4f
FIXUPS: 22690 c c f c 58 94 18 30 26 83 7 5 d 8 b b 12 12 7 15 3b fffff62c
FIXUPS: 21fa8 2f c f 1d 47 14 18 64 24 6 15 14 34 77 11 c f 49 56 38 13
FIXUPS: 22325 25 30 f 18 35 52 91 a fffff772 f 46 11 f 11 13 c 57 1a 3e
FIXUPS: 21d95 f b 11 11 11 b 11 b a 1a 28 26 16 b 35 c f 14 e 56 fffff754
FIXUPS: 216c7 f 1e 2a 29 2b 2e 72 3c 32 c c 11 5 b 5c 14 c0 c f e 5a 41
FIXUPS: 21ad9 34 44 18 30 75 6 15 fffff55c a 4b f f f 38 11 8 25 4e 72
FIXUPS: 21379 3f c c b 69 14 30 11 8 25 45 72 3c 34 c c f 5c 14 fffff6e5
FIXUPS: 20d6e 7 7 7 a 31 18 27 a2 18 24 11 3a d 12 d 18 a c c 11 5f 28
FIXUPS: 210a4 13 10 18 24 11 a b fffff958 e 11 a 18 19 11 11 10 11 11 10
FIXUPS: 20b50 14 10 11 9 17 19 1d 9 2b 9 19 1a 23 2c 6c 18 30 c 5 fffff54c
FIXUPS: 202c1 9 22 9 23 a e a 4f 61 d1 cb 7a 58 8a 127 3a 1e 26 2c 9a 20
FIXUPS: 20984 21 2e 14 13 16 18 10 21 3d3c c 49 c c 3e 46 ffffe7a9 1f 12
FIXUPS: 23091 1e 28 13 19 46 13 19 10d 12 9 22 76 3b 13 87 13 ffffce0e
FIXUPS: 2026a 23 9 c 413a 12 f f f 82 1b 11 10 f 49 1d b 6 62 15 17 c 6
FIXUPS: 24624 2d 1e 13 f 15 b 6 2c a e 17 12 fffff97b 4e 56 38 1f 19 22
FIXUPS: 241fc 2c 26 17 11 11 22 14 19 32 1c 2c a a a a a a a a a a a a
FIXUPS: 243d2 fffff3c8 5e 17 40 e 23 1d 2e 41 e 2f 1e ab 9c 49 15 27 19
FIXUPS: 23b80 f 4d 85 db 19 51 38 8f 76 2b 8f 76 2b 9a5 14 10 18 19 8 43
FIXUPS: 24a97 8 44 14 8 43 11 9 1f 8 ffffe92e 6d 9b 3f 8 f 14 14 1f a 73
FIXUPS: 236f7 65 5 27 1a42 10 14 b 50 101 8 6 12 1c 57 f 2f 3a 2c c 29
FIXUPS: 254d9 2f a 25 2f da 22 d f 5e 1c fffff250 26 1b 1c 1f2 18 70 10
FIXUPS: 24c43 16 2a 32 170 31 3b 35 5a d 23 1e 39 45 23 1f f 11 17 40 10
FIXUPS: 250d8 1b b 37 b 17 10 7eb af 10 24 7b b5 98 51 25 25 35 35 35 35
FIXUPS: 25da1 35 35 35 35 29 c 35 39 a 1a 1d d 23 d 19 9d 1c 1d46 b b b
FIXUPS: 27dda b b b 1c d f 20 1c 7b 6 16 ffffd819 45 4c 5c a 17 4b 15 9
FIXUPS: 258a1 c 14 22 b 3d 17 1de6 a6 21 192 58 b2 f 84 9e 2d 2d 1c 35
FIXUPS: 27c99 6 6 14 6 6 14 6 6 18 6 1a 6 1e 6 1a 9 6 2b fffff2f6 30 2a
FIXUPS: 27111 16 9a 32 21 60 3f 21 60 1c 21 41 6 38 4b 90 49 e 61 4a a
FIXUPS: 275e1 51 19 24 20 27 28 35 fffff1cb 1c 22 39 1d 13 21 33 22 13e
FIXUPS: 26b65 48 d 6c 2c 73 af 1c 45 2c 21 4d 14 12 a a4 60 b 21 25 1a
FIXUPS: 2706c fffff290 a3 1c 1b 1a 13 b 25 9 37 7 10 29 9 37 7 10 12c 8a
FIXUPS: 26701 44 36 9 e 9a 16 18 17 e b e b 2bae 265 95 f f f a a a a a
FIXUPS: 297b4 a a d a a 31 50 ffffc899 1b 17 a 15 1b 16 6 a 2e 3f 3f 8d
FIXUPS: 290f3 16 24 1a 47 15 15 45 25 d a 9 23 b 1a 19 6 6 18 15 13 11
FIXUPS: 29306 6 3c 13 2d a 16 20 21 4d fffff73a b e e b 1c 58 16 c 22 24
FIXUPS: 28c9e 2e 13 16 c 15 19 15 36 80 21 5a 23 6 21 12 2f 12 90 20 11d
FIXUPS: 285fb 24 37 1a 43 19 11 1b a2 17 21 a2 d b 89 28 15 b 32 92 c c
FIXUPS: 28a64 14 6 1f 14 22 6 17 a 26 13aa 19 9 3dd c4 2e 4b 61 ffffdaee
FIXUPS: 27fa1 14 8 e 1e 2f6 d3 1d 10 33 15 1b 19 24 37 19 1a 69 1d 10 33
FIXUPS: 285c7 1b 134e b a b d 19 b 15 b 15 17 e d 27 31 21 6e 3a 14 5 11
FIXUPS: 29b47 4f 24 c5 24 8e d 2f 4c 2a de 15cd 39 5e 182 53 5f 38 14 12
FIXUPS: 2b7c0 8 19 2a 18 3e 9 ffffedb4 21 64 21 1e f 253 5f 3c 3d 3c ac
FIXUPS: 298a4 2f 32 d 2467 186 f aa 1b6 95 9 77 9 67 36 56 2e ffffe79f
FIXUPS: 2ab5e 31 c0 43 2dd 24 f4 8 6a 9d 4e 35 188 39 1b 18 37 18 20e8
FIXUPS: 2d54b 39 15 46 1a 9 ffffefc1 8b 4b 79 39 9a 17c 52 33 8b a8 35f
FIXUPS: 2cf90 9d f ffffe974 63 a a a a 8 247 a4 d 3670 e 14 17 8 38 12
FIXUPS: 2d940 fb 74 be 49 87 20 58 e1 fffff94a 27 3c b8 aa 7b fffff77d
FIXUPS: 2d0db 2ce 10 13 1d 127 1d 5 5 1bd5 1d 49 b 5 5 1c 1b 5 5 5 18 5
FIXUPS: 2f1ef 18 11 18 11 18 b b 18 14 e 1b 18 18 18 27 3b 8 2d fffff476
FIXUPS: 2e830 4e 1d 49 5a 11f e 68 1f 66 249 94 4f 29 54 2e c 93 3b 45
FIXUPS: 2f053 18 b e 5 18 11 18 24 5 5 ffffee90 a a a a a f f 45 16 8 4d
FIXUPS: 2e093 37 38 2c 26 72 2f 89 e7 16 1b 18 1f4 79 14 5 18 12 5 3d 1379
FIXUPS: 2fa1e 5d 1b 112 b 2c 35 e 8d 5 3b ffffe0e5 e9 f f a a a a a a a
FIXUPS: 2df2b a a a a d a a a 2ede 51 78 ffffe559 20 8 1c 5 5 32 14 22
FIXUPS: 2f583 60 11 3c 34 2d 36 1a 48 30 2a b 1e 16e f f f 50 4b f cb1
FIXUPS: 306b8 2d 18 7 20 a9 23 2d 15 17 1b 7 20 92 b7 11 21 2e 14 21 35
FIXUPS: 30abd d7 1f 37 33 7a 15 16 fa 68 fffff210 c e 23 15 1a 7 1c 5b
FIXUPS: 30147 1f 3a 1f b4 1f 84 31 23 1f 30 26 1f a9 29 1f 3d 1f 2c 22
FIXUPS: 305d1 91 23 baf 37 13d 18 18 18 139 1d 6e 95 39 3e 5a 4d 73 e8
FIXUPS: 3193e c 8 fffff6af ba 30 ffffec1b 17 34 30 19a 10 1b 19 21 9c 3e46
FIXUPS: 33e75 10 1b d f 63 b a a a 2c 24 28 1e 16 13 17 1c 16 1a 26 15
FIXUPS: 31aa1 23 56 13e 83 22 13 1a fffff41f 27eb 8 24 21 64 55 f 4c f
FIXUPS: 33ad7 17 8 74 c 12 12 33 1b 27 f f f 19 c e 4d 5f e7 c 1c 16 12
FIXUPS: 33429 8 37 15 17 12 22 1a 1e 15 e e 2c 1d 1e 1e 64 82 12 e 39 2b
FIXUPS: 33741 21 10 2b 50 38 8 1d b6 20 fffff325 90 37 5a 2d 1c 19 1c 58
FIXUPS: 32eb5 79 78 7a c bb 1c 16 21 4e 8 32 24 b2 10 12 12 12 12 15 12
FIXUPS: 3335e f fffff1b4 f f f f 36 2e 32 2e 35 30 2d 2e 90 64 17a 4c 68
FIXUPS: 32a1e d 1c d 14 1c 2b 10 26 2c e 4d 30 39 fffff761 f 1f f f f f
FIXUPS: 323af f f f f 1d 6 e 6 d 6 e 6 e 6 1c f 21 f f f f f f f fffffc4d
FIXUPS: 3216e f f f f f f f f f 12 f f f f f f f f f f f f f f 14 12 a
FIXUPS: 32313 a a fffffc79 f f f f f f f f f f 12 f 1d 6 e 6 d 6 e 6 e
FIXUPS: 320c9 e 9 e 6 20 f f f f 2f39 5 5 5 5 5 5 5 5 f 8 2c 3d 38 2d 22
FIXUPS: 351dd 25 25 29 6e 42 1b ffffcc05 6 e 6 1b f f f f 2d7c 3e 3f 76
FIXUPS: 34e0f f 23 80 cb 5 30 8 b 5 5 5 5 5 5 d 5 5 18 5 1b 14 5 14 7 5
FIXUPS: 3507f 5 fffff671 3a f 28 8c 24 19 24 16 144 11 8 31 3f 6 21 2d
FIXUPS: 34a9f 5e 28 6b 73 c 1e c 29 5 e e 1b 2d 5 fffff3f3 9a 2e 3c 3d
FIXUPS: 3424c a4 42 54 30 20 a a a a a a a a a f f f d f f 4c 62 44 56
FIXUPS: 34620 3e 1cf0 d f 27 9 26 11 9 d d 11 a d f b 6 27 b 3e 34 16 30
FIXUPS: 36546 5b 25 5b 44 12 23 ffffed1c 25 a 998 10 8 23 3b 21 1a 26 28
FIXUPS: 35eb7 88 34 1a d3 2b ca 8 25 3b 34 18 29 35 37 31 8 29 10 9 d d
FIXUPS: 36344 fffff2e9 f 2b 73 1f a f b 3f 27 9 13 1f 25 6e 9 3b 1e 10b
FIXUPS: 35a32 1e 5e 46 12 1e 4f 1b bf f 17 d8 2a fffff6c7 14 14 13 14 11
FIXUPS: 354aa 19 23 a 16 21 f f f f f f a a d a a a a a a a a 1e a e 1158
FIXUPS: 36824 1c d 18 1b 1e 22 29 18 3c 92 2d 36 42 20 24 22 16 b 15 1b
FIXUPS: 36b47 f 1c 13 1d 20 19 30 ffffe80a 14 2683 26 8 ee 8 16 3f 30 25
FIXUPS: 37c9c e7 76 8 10 ffffee34 cc 47 8 5 4f 4f d0 8 5 104 42 3d e 5d
FIXUPS: 366bf 2a 1c 3255 ffffda78 2b 7d 16 8 13 16 31 8 4f 66 19 2d 8 17
FIXUPS: 3763c 7f 8 54 8 1b 34 157 8 137 8 13 16 29 8 3e 1967 4c e b 18
FIXUPS: 394ad 47 55 9 b 1d 1e 19 1e 14 34 5 33 26 71 77 b 1b 1a 43 20 cc
FIXUPS: 398f7 5 5 21 27 fffff650 a 17 7 31 5c 24 30 10 f 42 30 2c 35 15
FIXUPS: 391c0 12 f 11 40 83 2f 6d e 32 12 b e e e e 18 fffff90d 7 1c 16
FIXUPS: 38d4b 16 7 1f 7 e 7 b 7 b 7 b 7 b 7 b 7 17 7 17 21 45 15 13 17
FIXUPS: 38efd 10 10 fffff9ea 7 15 15 15 15 15 15 3a 43 7b b 7 b 7 28 22
FIXUPS: 38b0d 19 5a e 18 10 19 ac 9 15 7 14 7 26 7 fffff61e 2b b b 8 6f
FIXUPS: 383d0 a 98 1c 2e 17 34 1f 30 60 1a 62 16 56 1bc 14 12 c 13 7 13
FIXUPS: 388c0 13 7 13 7 fffff7c0 b 13 16 b 11 e 2a 1e 2b 11 d 8 1b d 8
FIXUPS: 381e6 d 35 25 d 18 15 18 15 8 10 7 11 7 8 c 202e 16 d a2 32 c 15
FIXUPS: 3a454 ffffd9d4 a a a a a a a a a a 16 3b 10 e e 18 21 17 e 32 36
FIXUPS: 37fe9 8c 1a8f f0 bb 54 d 82 57 41 47 e 3c 12 37 34 2c 49 54 15
FIXUPS: 3a03e 3a 15 11 119 10 d f 3e 33 26 10 23 45 18da 32 16 f 1d 21
FIXUPS: 3bc7e e 5e 3d 66 22 31 6 15 8 e 20 9 6 41 40 16 1a 1e 14 14 2f
FIXUPS: 3bf71 b ffffda87 7a 1c97 9f 33 43 14 15 37 c3 6 e 16 16 11 12 b
FIXUPS: 3b9c3 6 8 b 1d b 25 10 b 31 43 21 25 21 8 28 5a ffffeeb7 32 ec
FIXUPS: 3ac85 32 11 31 d2 88 83 22 5f 10 a6 23 44 3a 87 5c 1d 71 f 53 99
FIXUPS: 3b35c 2a 58 61 120 2a cc 61 160c 18 18 18 18 18 18 14 14 14 14
FIXUPS: 3cdb6 12 15 20 17 12 1a 12 57 a 40 ffffd5b4 30 d8 8e 51 1bc 8f
FIXUPS: 3a90d 56 6f 1e27 53 5 d 3d 26 66 59 a 29 a 1c 56 f 57 1c 4d 11
FIXUPS: 3cb1d e 3f 42 19 21 16 1e 18 18 18 18 18 18 1120 1f 21 8 5 a 9
FIXUPS: 3de32 13 22 5 58 c 12 f ffffe108 ac 78 150 13c a7 3f 32 84 2b 1e
FIXUPS: 3c5e3 3d 88 79 6e 37 f1f a 19 41 2b 6b 12 c 17 35 3d 31 12 153
FIXUPS: 3dac3 d 18 49 73 1b d6 11 1d 14 14 10 24 24 25 1f 12 1f fffff47a
FIXUPS: 3d23a 1c 10 d e 12 15 39 19 5 18 5e 26 20 44 14 26 18 c3 e b 15
FIXUPS: 3d55c 40 14 6 31 ae 1c 5 24 fffff912 12 6 2d 16 b c 6 c 6 20 7
FIXUPS: 3d0ad 19 1b b 1b 7 10 15 f 10 14 12 11 1c 18 6 13 1c 8 1c 4c69
FIXUPS: 41e8b 5b 13 11 1b 11 b 19 13 e 6 19 13 14 4e e 48 8 d 4d 60 77
FIXUPS: 4220f 1a 10 36 19 1d ffffacfa 9 24 477d 32 56 4a 5f 1e 42 5 29
FIXUPS: 41937 19 6 77 27 c 19 c 5b 65 19 a4 17 15 40 14 b 21 98 107 1f
FIXUPS: 41e19 31 fffff3fe 13 8 95 12 11 4b 9d 28 5 11 5 3c 19 2b 5 41 25
FIXUPS: 4153f 5 21 5 3d 5 7 5 97 29 7c 23 8 1d fffff565 55 12 b 3d 14 9
FIXUPS: 40d9c 16 13 16 25 20 5 b e 5 b 66 13 d2 25 18 13 8 e7 12 11 69
FIXUPS: 41177 94 25 fffff4d6 f d 1d 1e 24 13 e1 11 43 b 19 18 98 8 5 5
FIXUPS: 409d2 8a 2b 49 19 3e 49 2b a7 10 f 12 b 8 f fffff868 18 6 41 6
FIXUPS: 4057c 6 3a 6 15 28 a a a a a a a a a a a a a a f 12 f f f f f fffff932
FIXUPS: 4005b 37 c1 8 54 30 e2 15 24 26 14 20 15 4f 1f b 1f f 13 6 6 b
FIXUPS: 4045d f 8 f 13 f 25 22 6 fffff6c6 16 1b 16 e f6 22 11 2b 8 4f 3c
FIXUPS: 3fdf9 47 7 5 6 12 7 a 5 25 5 13 5e 23 13 10 1f 84 14 b fffff424
FIXUPS: 3f446 f 12 16 c fa e 7f 14 f c 85 16 1c 16 e e9 5 2b 12 24 f e7
FIXUPS: 3f992 5 f 12 16 c 76 f9 fffff0f5 58 1a1 20b 2a 68 61 d 13 30 6
FIXUPS: 3f19a 2b 6 2a 6 46 39 6 23 14 2f 2e 12 3e 12 48 12 3a 12 b c ffffef26
FIXUPS: 3e395 92 8c c0 27 d a 1c c d 19 17 20 18 2b 14 35 b a b b1 9 5
FIXUPS: 3e7ab 145 137 a 58 a7 35 cf fffff4d1 10 2c 5 6 6 a 2b 5 5 5 24
FIXUPS: 3e1bf 5 5 32 1b a 16 1b 1a 23 11 11 26 11 11 12 5 5 f 8 565b a
FIXUPS: 4399a a a a a a a a d a a a a a a a a ffffa522 13 29 f 18 14 c
FIXUPS: 3e03d 21 40 2d 1c c 55c1 f 11 10 5 6e 1a 3d 3d 4f 3a 26 6 1b f
FIXUPS: 438d9 a a a a a a a a a a d a a a a a fffff009 6 c 6 c 6 120 50
FIXUPS: 42b53 32 37 31 59 28 14 c7 1f 4a 4d 2ec fa 23 30 77 5 2f 40 27
FIXUPS: 43582 d3 16 3a 1175 7d 54 c3 ee 38 7b e7 8c e ffffedeb 17 2c 5b
FIXUPS: 43b72 30 71 25 ffffe72f 9a 1b6 13a 11 9d 2b a 10 51 b5 17 72 6
FIXUPS: 457ef e c ffffe593 c 1c da 55 9 c9 11 1c 27 2b fe 46 8f 14 6c 8c
FIXUPS: 443c5 63 15 2a 41 97 aa 2c e1 2c 2c 72 af0 2e 1d 15 9 16 32 48
FIXUPS: 453b4 37 50 71 3c 6c 51 2c 50 33 1e 34 20 6 28 15 11 1f 11 14 e
FIXUPS: 457af a 22 2c50 fffff45c 5 ffffd4c5 1a 14 77 b 14 c 22 bf 15 1e
FIXUPS: 44f82 29 39 30 1e 2c 1f 3e 4f 33 21 55 17 3a 17 41 32 12

 320 bytes saved through ICF

